   1              	 .syntax unified
   2              	 .cpu cortex-m4
   3              	 .eabi_attribute 27,3
   4              	 .fpu fpv4-sp-d16
   5              	 .eabi_attribute 20,1
   6              	 .eabi_attribute 21,1
   7              	 .eabi_attribute 23,3
   8              	 .eabi_attribute 24,1
   9              	 .eabi_attribute 25,1
  10              	 .eabi_attribute 26,1
  11              	 .eabi_attribute 30,6
  12              	 .eabi_attribute 34,1
  13              	 .eabi_attribute 18,4
  14              	 .thumb
  15              	 .file "globals.c"
  16              	 .text
  17              	.Ltext0:
  18              	 .cfi_sections .debug_frame
  19              	 .global tft_tick
  20              	 .section .bss.tft_tick,"aw",%nobits
  23              	tft_tick:
  24 0000 00       	 .space 1
  25              	 .global MeasurementCounter
  26              	 .section .bss.MeasurementCounter,"aw",%nobits
  27              	 .align 2
  30              	MeasurementCounter:
  31 0000 00000000 	 .space 4
  32              	 .global InputBuffer1_idx
  33              	 .section .bss.InputBuffer1_idx,"aw",%nobits
  34              	 .align 1
  37              	InputBuffer1_idx:
  38 0000 0000     	 .space 2
  39              	 .global InputBuffer1
  40              	 .section .bss.InputBuffer1,"aw",%nobits
  41              	 .align 2
  44              	InputBuffer1:
  45 0000 00000000 	 .space 880
  45      00000000 
  45      00000000 
  45      00000000 
  45      00000000 
  46              	 .global InputType
  47              	 .section .data.InputType,"aw",%progbits
  50              	InputType:
  51 0000 03       	 .byte 3
  52              	 .global frameover
  53              	 .section .bss.frameover,"aw",%nobits
  56              	frameover:
  57 0000 00       	 .space 1
  58              	 .section .text.delay_ms,"ax",%progbits
  59              	 .align 2
  60              	 .global delay_ms
  61              	 .thumb
  62              	 .thumb_func
  64              	delay_ms:
  65              	.LFB485:
  66              	 .file 1 "../globals.c"
   1:../globals.c  **** /*
   2:../globals.c  ****  * globals.c
   3:../globals.c  ****  *
   4:../globals.c  ****  *  Created on: 20 Feb 2021
   5:../globals.c  ****  *      Author: RS
   6:../globals.c  ****  */
   7:../globals.c  **** 
   8:../globals.c  **** #include <DAVE.h>
   9:../globals.c  **** //#include <globals.h>
  10:../globals.c  **** 
  11:../globals.c  **** /*  MACROS - DEFINEs */
  12:../globals.c  **** #define DEBUG_ENABLE // self implemented Debug flag
  13:../globals.c  **** #define INPUTBUFFER1_SIZE (480-20-20) // =440 values stored, next every 5ms -> 2.2sec storage      
  14:../globals.c  **** 
  15:../globals.c  **** /* DEBUG */
  16:../globals.c  **** #if defined (DEBUG_ENABLE)
  17:../globals.c  **** 	extern void initialise_monitor_handles(void);
  18:../globals.c  **** #else
  19:../globals.c  **** 	#define printf(...) { ; }
  20:../globals.c  **** #endif
  21:../globals.c  **** 
  22:../globals.c  **** 
  23:../globals.c  **** 
  24:../globals.c  **** ///*  SYSTEM VARIABLEs */
  25:../globals.c  **** // Counter used for function delay_ms
  26:../globals.c  **** //volatile uint32_t _msCounter = 0;
  27:../globals.c  **** volatile uint8_t tft_tick = 0; // Trigger tft display function. Is set every time by Adc_Measuremen
  28:../globals.c  **** 
  29:../globals.c  **** 
  30:../globals.c  **** 
  31:../globals.c  **** ///*  MEASUREMENTs */
  32:../globals.c  **** volatile uint32_t MeasurementCounter = 0; // Count of executed measurements
  33:../globals.c  **** 
  34:../globals.c  **** // Buffer 1
  35:../globals.c  **** uint16_t InputBuffer1_idx = 0; // Current index in Buffer
  36:../globals.c  **** XMC_VADC_RESULT_SIZE_t InputBuffer1[INPUTBUFFER1_SIZE] = { 0 }; // all elements 0
  37:../globals.c  **** 
  38:../globals.c  **** 
  39:../globals.c  **** 
  40:../globals.c  **** ///*  MENU AND USER INTERFACE */
  41:../globals.c  **** // Input signal type used for measurement and GUI display
  42:../globals.c  **** volatile uint8_t InputType = 3; // 0=Sensor5, 1=TestImpulse, 2=TestSawTooth, 3=TestSine
  43:../globals.c  **** 
  44:../globals.c  **** 
  45:../globals.c  **** 
  46:../globals.c  **** ///* DEBUG */
  47:../globals.c  **** // Debug value - is set to 1 if the sensor buffer gets full the first time (used to only run debugc
  48:../globals.c  **** volatile uint8_t frameover = 0; 		// Used by: measure.c, tft.c
  49:../globals.c  **** 
  50:../globals.c  **** 
  51:../globals.c  **** 
  52:../globals.c  **** ///*  FUNCTIONS -----------------------------------------------------------------------------------
  53:../globals.c  **** //void SysTick_Handler(){ // Interrupt Routine - used for delay_ms
  54:../globals.c  **** //	_msCounter++;
  55:../globals.c  **** //}
  56:../globals.c  **** void delay_ms(uint32_t ms){
  67              	 .loc 1 56 0
  68              	 .cfi_startproc
  69              	 
  70              	 
  71 0000 80B5     	 push {r7,lr}
  72              	.LCFI0:
  73              	 .cfi_def_cfa_offset 8
  74              	 .cfi_offset 7,-8
  75              	 .cfi_offset 14,-4
  76 0002 84B0     	 sub sp,sp,#16
  77              	.LCFI1:
  78              	 .cfi_def_cfa_offset 24
  79 0004 00AF     	 add r7,sp,#0
  80              	.LCFI2:
  81              	 .cfi_def_cfa_register 7
  82 0006 7860     	 str r0,[r7,#4]
  57:../globals.c  **** 	// Delay execution by given milliseconds - used in tft.h->EVE.h->EVE_target.h
  58:../globals.c  **** 	//uint32_t now = SYSTIMER_GetTickCount();
  59:../globals.c  **** 	//while(now+ms > SYSTIMER_GetTickCount())
  60:../globals.c  **** 	uint32_t targetMicroSec = SYSTIMER_GetTime() + (ms*1000);
  83              	 .loc 1 60 0
  84 0008 FFF7FEFF 	 bl SYSTIMER_GetTime
  85 000c 0146     	 mov r1,r0
  86 000e 7B68     	 ldr r3,[r7,#4]
  87 0010 4FF47A72 	 mov r2,#1000
  88 0014 02FB03F3 	 mul r3,r2,r3
  89 0018 0B44     	 add r3,r3,r1
  90 001a FB60     	 str r3,[r7,#12]
  61:../globals.c  **** 	while(targetMicroSec > SYSTIMER_GetTime())
  91              	 .loc 1 61 0
  92 001c 00E0     	 b .L2
  93              	.L3:
  62:../globals.c  **** 		__NOP(); // do nothing
  94              	 .loc 1 62 0
  95              	
  96 001e 00BF     	 nop
  97              	
  98              	 .thumb
  99              	.L2:
  61:../globals.c  **** 	while(targetMicroSec > SYSTIMER_GetTime())
 100              	 .loc 1 61 0
 101 0020 FFF7FEFF 	 bl SYSTIMER_GetTime
 102 0024 0246     	 mov r2,r0
 103 0026 FB68     	 ldr r3,[r7,#12]
 104 0028 9A42     	 cmp r2,r3
 105 002a F8D3     	 bcc .L3
  63:../globals.c  **** }
 106              	 .loc 1 63 0
 107 002c 1037     	 adds r7,r7,#16
 108              	.LCFI3:
 109              	 .cfi_def_cfa_offset 8
 110 002e BD46     	 mov sp,r7
 111              	.LCFI4:
 112              	 .cfi_def_cfa_register 13
 113              	 
 114 0030 80BD     	 pop {r7,pc}
 115              	 .cfi_endproc
 116              	.LFE485:
 118 0032 00BF     	 .text
 119              	.Letext0:
 120              	 .file 2 "c:\\workspaces\\dave_4-4-2_64bit_2018-02-23\\dave-ide-4.4.2-64bit\\eclipse\\arm-gcc-49\\arm-none-eabi\\include\\machine\\_default_types.h"
 121              	 .file 3 "c:\\workspaces\\dave_4-4-2_64bit_2018-02-23\\dave-ide-4.4.2-64bit\\eclipse\\arm-gcc-49\\arm-none-eabi\\include\\stdint.h"
 122              	 .file 4 "C:/Workspaces/DAVE-4.4.2-64Bit_WS/DeflectionAnalyzer/Libraries/XMCLib/inc/xmc_usic.h"
 123              	 .file 5 "C:/Workspaces/DAVE-4.4.2-64Bit_WS/DeflectionAnalyzer/Libraries/XMCLib/inc/xmc_vadc.h"
 124              	 .file 6 "C:/Workspaces/DAVE-4.4.2-64Bit_WS/DeflectionAnalyzer/Libraries/CMSIS/Include/cmsis_gcc.h"
 125              	 .file 7 "C:/Workspaces/DAVE-4.4.2-64Bit_WS/DeflectionAnalyzer/Libraries/CMSIS/Include/core_cm4.h"
 126              	 .file 8 "C:/Workspaces/DAVE-4.4.2-64Bit_WS/DeflectionAnalyzer/Libraries/CMSIS/Infineon/XMC4700_series/Include/system_XMC4700.h"