   1              	 .syntax unified
   2              	 .cpu cortex-m4
   3              	 .eabi_attribute 27,3
   4              	 .fpu fpv4-sp-d16
   5              	 .eabi_attribute 20,1
   6              	 .eabi_attribute 21,1
   7              	 .eabi_attribute 23,3
   8              	 .eabi_attribute 24,1
   9              	 .eabi_attribute 25,1
  10              	 .eabi_attribute 26,1
  11              	 .eabi_attribute 30,6
  12              	 .eabi_attribute 34,1
  13              	 .eabi_attribute 18,4
  14              	 .thumb
  15              	 .file "main.c"
  16              	 .text
  17              	.Ltext0:
  18              	 .cfi_sections .debug_frame
  19              	 .section .text.XMC_GPIO_SetOutputHigh,"ax",%progbits
  20              	 .align 2
  21              	 .thumb
  22              	 .thumb_func
  24              	XMC_GPIO_SetOutputHigh:
  25              	.LFB177:
  26              	 .file 1 "C:/Workspaces/DAVE-4.4.2-64Bit_WS/DeflectionAnalyzer/Libraries/XMCLib/inc/xmc_gpio.h"
   1:C:/Workspaces/DAVE-4.4.2-64Bit_WS/DeflectionAnalyzer/Libraries/XMCLib/inc\xmc_gpio.h **** /**
   2:C:/Workspaces/DAVE-4.4.2-64Bit_WS/DeflectionAnalyzer/Libraries/XMCLib/inc\xmc_gpio.h ****  * @file xmc_gpio.h
   3:C:/Workspaces/DAVE-4.4.2-64Bit_WS/DeflectionAnalyzer/Libraries/XMCLib/inc\xmc_gpio.h ****  * @date 2015-06-20
   4:C:/Workspaces/DAVE-4.4.2-64Bit_WS/DeflectionAnalyzer/Libraries/XMCLib/inc\xmc_gpio.h ****  *
   5:C:/Workspaces/DAVE-4.4.2-64Bit_WS/DeflectionAnalyzer/Libraries/XMCLib/inc\xmc_gpio.h ****  * @cond
   6:C:/Workspaces/DAVE-4.4.2-64Bit_WS/DeflectionAnalyzer/Libraries/XMCLib/inc\xmc_gpio.h ****  **************************************************************************************************
   7:C:/Workspaces/DAVE-4.4.2-64Bit_WS/DeflectionAnalyzer/Libraries/XMCLib/inc\xmc_gpio.h ****  * XMClib v2.1.24 - XMC Peripheral Driver Library 
   8:C:/Workspaces/DAVE-4.4.2-64Bit_WS/DeflectionAnalyzer/Libraries/XMCLib/inc\xmc_gpio.h ****  *
   9:C:/Workspaces/DAVE-4.4.2-64Bit_WS/DeflectionAnalyzer/Libraries/XMCLib/inc\xmc_gpio.h ****  * Copyright (c) 2015-2019, Infineon Technologies AG
  10:C:/Workspaces/DAVE-4.4.2-64Bit_WS/DeflectionAnalyzer/Libraries/XMCLib/inc\xmc_gpio.h ****  * All rights reserved.                        
  11:C:/Workspaces/DAVE-4.4.2-64Bit_WS/DeflectionAnalyzer/Libraries/XMCLib/inc\xmc_gpio.h ****  *                                             
  12:C:/Workspaces/DAVE-4.4.2-64Bit_WS/DeflectionAnalyzer/Libraries/XMCLib/inc\xmc_gpio.h ****  * Redistribution and use in source and binary forms, with or without modification,are permitted pr
  13:C:/Workspaces/DAVE-4.4.2-64Bit_WS/DeflectionAnalyzer/Libraries/XMCLib/inc\xmc_gpio.h ****  * following conditions are met:   
  14:C:/Workspaces/DAVE-4.4.2-64Bit_WS/DeflectionAnalyzer/Libraries/XMCLib/inc\xmc_gpio.h ****  *                                                                              
  15:C:/Workspaces/DAVE-4.4.2-64Bit_WS/DeflectionAnalyzer/Libraries/XMCLib/inc\xmc_gpio.h ****  * Redistributions of source code must retain the above copyright notice, this list of conditions a
  16:C:/Workspaces/DAVE-4.4.2-64Bit_WS/DeflectionAnalyzer/Libraries/XMCLib/inc\xmc_gpio.h ****  * disclaimer.                        
  17:C:/Workspaces/DAVE-4.4.2-64Bit_WS/DeflectionAnalyzer/Libraries/XMCLib/inc\xmc_gpio.h ****  * 
  18:C:/Workspaces/DAVE-4.4.2-64Bit_WS/DeflectionAnalyzer/Libraries/XMCLib/inc\xmc_gpio.h ****  * Redistributions in binary form must reproduce the above copyright notice, this list of condition
  19:C:/Workspaces/DAVE-4.4.2-64Bit_WS/DeflectionAnalyzer/Libraries/XMCLib/inc\xmc_gpio.h ****  * disclaimer in the documentation and/or other materials provided with the distribution.          
  20:C:/Workspaces/DAVE-4.4.2-64Bit_WS/DeflectionAnalyzer/Libraries/XMCLib/inc\xmc_gpio.h ****  * 
  21:C:/Workspaces/DAVE-4.4.2-64Bit_WS/DeflectionAnalyzer/Libraries/XMCLib/inc\xmc_gpio.h ****  * Neither the name of the copyright holders nor the names of its contributors may be used to endor
  22:C:/Workspaces/DAVE-4.4.2-64Bit_WS/DeflectionAnalyzer/Libraries/XMCLib/inc\xmc_gpio.h ****  * products derived from this software without specific prior written permission.                  
  23:C:/Workspaces/DAVE-4.4.2-64Bit_WS/DeflectionAnalyzer/Libraries/XMCLib/inc\xmc_gpio.h ****  *                                                                              
  24:C:/Workspaces/DAVE-4.4.2-64Bit_WS/DeflectionAnalyzer/Libraries/XMCLib/inc\xmc_gpio.h ****  * THIS SOFTWARE IS PROVIDED BY THE COPYRIGHT HOLDERS AND CONTRIBUTORS "AS IS" AND ANY EXPRESS OR I
  25:C:/Workspaces/DAVE-4.4.2-64Bit_WS/DeflectionAnalyzer/Libraries/XMCLib/inc\xmc_gpio.h ****  * INCLUDING, BUT NOT LIMITED TO, THE IMPLIED WARRANTIES OF MERCHANTABILITY AND FITNESS FOR A PARTI
  26:C:/Workspaces/DAVE-4.4.2-64Bit_WS/DeflectionAnalyzer/Libraries/XMCLib/inc\xmc_gpio.h ****  * DISCLAIMED. IN NO EVENT SHALL THE COPYRIGHT HOLDER OR CONTRIBUTORS BE LIABLE  FOR ANY DIRECT, IN
  27:C:/Workspaces/DAVE-4.4.2-64Bit_WS/DeflectionAnalyzer/Libraries/XMCLib/inc\xmc_gpio.h ****  * SPECIAL, EXEMPLARY, OR CONSEQUENTIAL DAMAGES (INCLUDING, BUT NOT LIMITED TO, PROCUREMENT OF SUBS
  28:C:/Workspaces/DAVE-4.4.2-64Bit_WS/DeflectionAnalyzer/Libraries/XMCLib/inc\xmc_gpio.h ****  * SERVICES; LOSS OF USE, DATA, OR PROFITS; OR BUSINESS INTERRUPTION) HOWEVER CAUSED AND ON ANY THE
  29:C:/Workspaces/DAVE-4.4.2-64Bit_WS/DeflectionAnalyzer/Libraries/XMCLib/inc\xmc_gpio.h ****  * WHETHER IN CONTRACT, STRICT LIABILITY,OR TORT (INCLUDING NEGLIGENCE OR OTHERWISE) ARISING IN ANY
  30:C:/Workspaces/DAVE-4.4.2-64Bit_WS/DeflectionAnalyzer/Libraries/XMCLib/inc\xmc_gpio.h ****  * OF THIS SOFTWARE, EVEN IF ADVISED OF THE POSSIBILITY OF SUCH DAMAGE.                            
  31:C:/Workspaces/DAVE-4.4.2-64Bit_WS/DeflectionAnalyzer/Libraries/XMCLib/inc\xmc_gpio.h ****  *                                                                              
  32:C:/Workspaces/DAVE-4.4.2-64Bit_WS/DeflectionAnalyzer/Libraries/XMCLib/inc\xmc_gpio.h ****  * To improve the quality of the software, users are encouraged to share modifications, enhancement
  33:C:/Workspaces/DAVE-4.4.2-64Bit_WS/DeflectionAnalyzer/Libraries/XMCLib/inc\xmc_gpio.h ****  * Infineon Technologies AG dave@infineon.com).                                                    
  34:C:/Workspaces/DAVE-4.4.2-64Bit_WS/DeflectionAnalyzer/Libraries/XMCLib/inc\xmc_gpio.h ****  **************************************************************************************************
  35:C:/Workspaces/DAVE-4.4.2-64Bit_WS/DeflectionAnalyzer/Libraries/XMCLib/inc\xmc_gpio.h ****  *
  36:C:/Workspaces/DAVE-4.4.2-64Bit_WS/DeflectionAnalyzer/Libraries/XMCLib/inc\xmc_gpio.h ****  * Change History
  37:C:/Workspaces/DAVE-4.4.2-64Bit_WS/DeflectionAnalyzer/Libraries/XMCLib/inc\xmc_gpio.h ****  * --------------
  38:C:/Workspaces/DAVE-4.4.2-64Bit_WS/DeflectionAnalyzer/Libraries/XMCLib/inc\xmc_gpio.h ****  *
  39:C:/Workspaces/DAVE-4.4.2-64Bit_WS/DeflectionAnalyzer/Libraries/XMCLib/inc\xmc_gpio.h ****  * 2015-02-20:
  40:C:/Workspaces/DAVE-4.4.2-64Bit_WS/DeflectionAnalyzer/Libraries/XMCLib/inc\xmc_gpio.h ****  *     - Initial draft<br>
  41:C:/Workspaces/DAVE-4.4.2-64Bit_WS/DeflectionAnalyzer/Libraries/XMCLib/inc\xmc_gpio.h ****  *     - Documentation improved <br>
  42:C:/Workspaces/DAVE-4.4.2-64Bit_WS/DeflectionAnalyzer/Libraries/XMCLib/inc\xmc_gpio.h ****  *      
  43:C:/Workspaces/DAVE-4.4.2-64Bit_WS/DeflectionAnalyzer/Libraries/XMCLib/inc\xmc_gpio.h ****  * 2015-06-20:
  44:C:/Workspaces/DAVE-4.4.2-64Bit_WS/DeflectionAnalyzer/Libraries/XMCLib/inc\xmc_gpio.h ****  *     - Removed version macros and declaration of GetDriverVersion API
  45:C:/Workspaces/DAVE-4.4.2-64Bit_WS/DeflectionAnalyzer/Libraries/XMCLib/inc\xmc_gpio.h ****  *
  46:C:/Workspaces/DAVE-4.4.2-64Bit_WS/DeflectionAnalyzer/Libraries/XMCLib/inc\xmc_gpio.h ****  * @endcond
  47:C:/Workspaces/DAVE-4.4.2-64Bit_WS/DeflectionAnalyzer/Libraries/XMCLib/inc\xmc_gpio.h ****  *
  48:C:/Workspaces/DAVE-4.4.2-64Bit_WS/DeflectionAnalyzer/Libraries/XMCLib/inc\xmc_gpio.h ****  */
  49:C:/Workspaces/DAVE-4.4.2-64Bit_WS/DeflectionAnalyzer/Libraries/XMCLib/inc\xmc_gpio.h **** 
  50:C:/Workspaces/DAVE-4.4.2-64Bit_WS/DeflectionAnalyzer/Libraries/XMCLib/inc\xmc_gpio.h **** #ifndef XMC_GPIO_H
  51:C:/Workspaces/DAVE-4.4.2-64Bit_WS/DeflectionAnalyzer/Libraries/XMCLib/inc\xmc_gpio.h **** #define XMC_GPIO_H
  52:C:/Workspaces/DAVE-4.4.2-64Bit_WS/DeflectionAnalyzer/Libraries/XMCLib/inc\xmc_gpio.h **** 
  53:C:/Workspaces/DAVE-4.4.2-64Bit_WS/DeflectionAnalyzer/Libraries/XMCLib/inc\xmc_gpio.h **** /**************************************************************************************************
  54:C:/Workspaces/DAVE-4.4.2-64Bit_WS/DeflectionAnalyzer/Libraries/XMCLib/inc\xmc_gpio.h ****  * HEADER FILES
  55:C:/Workspaces/DAVE-4.4.2-64Bit_WS/DeflectionAnalyzer/Libraries/XMCLib/inc\xmc_gpio.h ****  **************************************************************************************************
  56:C:/Workspaces/DAVE-4.4.2-64Bit_WS/DeflectionAnalyzer/Libraries/XMCLib/inc\xmc_gpio.h **** 
  57:C:/Workspaces/DAVE-4.4.2-64Bit_WS/DeflectionAnalyzer/Libraries/XMCLib/inc\xmc_gpio.h **** #include "xmc_common.h"
  58:C:/Workspaces/DAVE-4.4.2-64Bit_WS/DeflectionAnalyzer/Libraries/XMCLib/inc\xmc_gpio.h **** 
  59:C:/Workspaces/DAVE-4.4.2-64Bit_WS/DeflectionAnalyzer/Libraries/XMCLib/inc\xmc_gpio.h **** /**
  60:C:/Workspaces/DAVE-4.4.2-64Bit_WS/DeflectionAnalyzer/Libraries/XMCLib/inc\xmc_gpio.h ****  * @addtogroup XMClib XMC Peripheral Library
  61:C:/Workspaces/DAVE-4.4.2-64Bit_WS/DeflectionAnalyzer/Libraries/XMCLib/inc\xmc_gpio.h ****  * @{
  62:C:/Workspaces/DAVE-4.4.2-64Bit_WS/DeflectionAnalyzer/Libraries/XMCLib/inc\xmc_gpio.h ****  */
  63:C:/Workspaces/DAVE-4.4.2-64Bit_WS/DeflectionAnalyzer/Libraries/XMCLib/inc\xmc_gpio.h **** 
  64:C:/Workspaces/DAVE-4.4.2-64Bit_WS/DeflectionAnalyzer/Libraries/XMCLib/inc\xmc_gpio.h **** /**
  65:C:/Workspaces/DAVE-4.4.2-64Bit_WS/DeflectionAnalyzer/Libraries/XMCLib/inc\xmc_gpio.h ****  * @addtogroup GPIO
  66:C:/Workspaces/DAVE-4.4.2-64Bit_WS/DeflectionAnalyzer/Libraries/XMCLib/inc\xmc_gpio.h ****  * @brief General Purpose Input Output (GPIO) driver for the XMC microcontroller family.
  67:C:/Workspaces/DAVE-4.4.2-64Bit_WS/DeflectionAnalyzer/Libraries/XMCLib/inc\xmc_gpio.h ****  *
  68:C:/Workspaces/DAVE-4.4.2-64Bit_WS/DeflectionAnalyzer/Libraries/XMCLib/inc\xmc_gpio.h ****  * GPIO driver provide a generic and very flexible software interface for all standard digital I/O 
  69:C:/Workspaces/DAVE-4.4.2-64Bit_WS/DeflectionAnalyzer/Libraries/XMCLib/inc\xmc_gpio.h ****  * Each port slice has individual interfaces for the operation as General Purpose I/O and it furthe
  70:C:/Workspaces/DAVE-4.4.2-64Bit_WS/DeflectionAnalyzer/Libraries/XMCLib/inc\xmc_gpio.h ****  * connectivity to the on-chip periphery and the control for the pad characteristics. 
  71:C:/Workspaces/DAVE-4.4.2-64Bit_WS/DeflectionAnalyzer/Libraries/XMCLib/inc\xmc_gpio.h ****  *
  72:C:/Workspaces/DAVE-4.4.2-64Bit_WS/DeflectionAnalyzer/Libraries/XMCLib/inc\xmc_gpio.h ****  * The driver is divided into Input and Output mode.
  73:C:/Workspaces/DAVE-4.4.2-64Bit_WS/DeflectionAnalyzer/Libraries/XMCLib/inc\xmc_gpio.h ****  *
  74:C:/Workspaces/DAVE-4.4.2-64Bit_WS/DeflectionAnalyzer/Libraries/XMCLib/inc\xmc_gpio.h ****  * Input mode features:
  75:C:/Workspaces/DAVE-4.4.2-64Bit_WS/DeflectionAnalyzer/Libraries/XMCLib/inc\xmc_gpio.h ****  * -# Configuration structure XMC_GPIO_CONFIG_t and initialization function XMC_GPIO_Init()
  76:C:/Workspaces/DAVE-4.4.2-64Bit_WS/DeflectionAnalyzer/Libraries/XMCLib/inc\xmc_gpio.h ****  * -# Allows the selection of weak pull-up or pull-down device. Configuration structure XMC_GPIO_MO
  77:C:/Workspaces/DAVE-4.4.2-64Bit_WS/DeflectionAnalyzer/Libraries/XMCLib/inc\xmc_gpio.h ****  * \if XMC1
  78:C:/Workspaces/DAVE-4.4.2-64Bit_WS/DeflectionAnalyzer/Libraries/XMCLib/inc\xmc_gpio.h ****  * -# Allows the selection of input hysteresis. XMC_GPIO_SetInputHysteresis()
  79:C:/Workspaces/DAVE-4.4.2-64Bit_WS/DeflectionAnalyzer/Libraries/XMCLib/inc\xmc_gpio.h ****  * \endif
  80:C:/Workspaces/DAVE-4.4.2-64Bit_WS/DeflectionAnalyzer/Libraries/XMCLib/inc\xmc_gpio.h ****  *
  81:C:/Workspaces/DAVE-4.4.2-64Bit_WS/DeflectionAnalyzer/Libraries/XMCLib/inc\xmc_gpio.h ****  * 
  82:C:/Workspaces/DAVE-4.4.2-64Bit_WS/DeflectionAnalyzer/Libraries/XMCLib/inc\xmc_gpio.h ****  * Output mode features:
  83:C:/Workspaces/DAVE-4.4.2-64Bit_WS/DeflectionAnalyzer/Libraries/XMCLib/inc\xmc_gpio.h ****  * -# Allows the selection of push pull/open drain and Alternate output. Configuration structure XM
  84:C:/Workspaces/DAVE-4.4.2-64Bit_WS/DeflectionAnalyzer/Libraries/XMCLib/inc\xmc_gpio.h ****  * \if XMC4
  85:C:/Workspaces/DAVE-4.4.2-64Bit_WS/DeflectionAnalyzer/Libraries/XMCLib/inc\xmc_gpio.h ****  * -# Allows the selection of pad driver strength. Configuration structure XMC_GPIO_OUTPUT_STRENGTH
  86:C:/Workspaces/DAVE-4.4.2-64Bit_WS/DeflectionAnalyzer/Libraries/XMCLib/inc\xmc_gpio.h ****  * \endif
  87:C:/Workspaces/DAVE-4.4.2-64Bit_WS/DeflectionAnalyzer/Libraries/XMCLib/inc\xmc_gpio.h ****  *
  88:C:/Workspaces/DAVE-4.4.2-64Bit_WS/DeflectionAnalyzer/Libraries/XMCLib/inc\xmc_gpio.h ****  * -# Allows the selection of initial output level. Configuration structure XMC_GPIO_OUTPUT_LEVEL_t
  89:C:/Workspaces/DAVE-4.4.2-64Bit_WS/DeflectionAnalyzer/Libraries/XMCLib/inc\xmc_gpio.h ****  *
  90:C:/Workspaces/DAVE-4.4.2-64Bit_WS/DeflectionAnalyzer/Libraries/XMCLib/inc\xmc_gpio.h ****  *@{
  91:C:/Workspaces/DAVE-4.4.2-64Bit_WS/DeflectionAnalyzer/Libraries/XMCLib/inc\xmc_gpio.h ****  */
  92:C:/Workspaces/DAVE-4.4.2-64Bit_WS/DeflectionAnalyzer/Libraries/XMCLib/inc\xmc_gpio.h ****  
  93:C:/Workspaces/DAVE-4.4.2-64Bit_WS/DeflectionAnalyzer/Libraries/XMCLib/inc\xmc_gpio.h **** /**************************************************************************************************
  94:C:/Workspaces/DAVE-4.4.2-64Bit_WS/DeflectionAnalyzer/Libraries/XMCLib/inc\xmc_gpio.h ****  * MACROS
  95:C:/Workspaces/DAVE-4.4.2-64Bit_WS/DeflectionAnalyzer/Libraries/XMCLib/inc\xmc_gpio.h ****  **************************************************************************************************
  96:C:/Workspaces/DAVE-4.4.2-64Bit_WS/DeflectionAnalyzer/Libraries/XMCLib/inc\xmc_gpio.h **** 
  97:C:/Workspaces/DAVE-4.4.2-64Bit_WS/DeflectionAnalyzer/Libraries/XMCLib/inc\xmc_gpio.h **** #define PORT_IOCR_PC_Pos PORT0_IOCR0_PC0_Pos
  98:C:/Workspaces/DAVE-4.4.2-64Bit_WS/DeflectionAnalyzer/Libraries/XMCLib/inc\xmc_gpio.h **** #define PORT_IOCR_PC_Msk PORT0_IOCR0_PC0_Msk
  99:C:/Workspaces/DAVE-4.4.2-64Bit_WS/DeflectionAnalyzer/Libraries/XMCLib/inc\xmc_gpio.h **** 
 100:C:/Workspaces/DAVE-4.4.2-64Bit_WS/DeflectionAnalyzer/Libraries/XMCLib/inc\xmc_gpio.h **** #define PORT_IOCR_PC_Size 				(8U)
 101:C:/Workspaces/DAVE-4.4.2-64Bit_WS/DeflectionAnalyzer/Libraries/XMCLib/inc\xmc_gpio.h **** 											
 102:C:/Workspaces/DAVE-4.4.2-64Bit_WS/DeflectionAnalyzer/Libraries/XMCLib/inc\xmc_gpio.h **** 
 103:C:/Workspaces/DAVE-4.4.2-64Bit_WS/DeflectionAnalyzer/Libraries/XMCLib/inc\xmc_gpio.h **** #define XMC_GPIO_CHECK_OUTPUT_LEVEL(level) ((level == XMC_GPIO_OUTPUT_LEVEL_LOW) || \
 104:C:/Workspaces/DAVE-4.4.2-64Bit_WS/DeflectionAnalyzer/Libraries/XMCLib/inc\xmc_gpio.h ****                                             (level == XMC_GPIO_OUTPUT_LEVEL_HIGH))
 105:C:/Workspaces/DAVE-4.4.2-64Bit_WS/DeflectionAnalyzer/Libraries/XMCLib/inc\xmc_gpio.h ****                                             
 106:C:/Workspaces/DAVE-4.4.2-64Bit_WS/DeflectionAnalyzer/Libraries/XMCLib/inc\xmc_gpio.h **** #define XMC_GPIO_CHECK_HWCTRL(hwctrl) ((hwctrl == XMC_GPIO_HWCTRL_DISABLED) || \
 107:C:/Workspaces/DAVE-4.4.2-64Bit_WS/DeflectionAnalyzer/Libraries/XMCLib/inc\xmc_gpio.h ****                                        (hwctrl == XMC_GPIO_HWCTRL_PERIPHERAL1) || \
 108:C:/Workspaces/DAVE-4.4.2-64Bit_WS/DeflectionAnalyzer/Libraries/XMCLib/inc\xmc_gpio.h ****                                        (hwctrl == XMC_GPIO_HWCTRL_PERIPHERAL2))                    
 109:C:/Workspaces/DAVE-4.4.2-64Bit_WS/DeflectionAnalyzer/Libraries/XMCLib/inc\xmc_gpio.h ****                                             
 110:C:/Workspaces/DAVE-4.4.2-64Bit_WS/DeflectionAnalyzer/Libraries/XMCLib/inc\xmc_gpio.h **** /**************************************************************************************************
 111:C:/Workspaces/DAVE-4.4.2-64Bit_WS/DeflectionAnalyzer/Libraries/XMCLib/inc\xmc_gpio.h ****  * ENUMS
 112:C:/Workspaces/DAVE-4.4.2-64Bit_WS/DeflectionAnalyzer/Libraries/XMCLib/inc\xmc_gpio.h ****  **************************************************************************************************
 113:C:/Workspaces/DAVE-4.4.2-64Bit_WS/DeflectionAnalyzer/Libraries/XMCLib/inc\xmc_gpio.h **** 
 114:C:/Workspaces/DAVE-4.4.2-64Bit_WS/DeflectionAnalyzer/Libraries/XMCLib/inc\xmc_gpio.h **** 
 115:C:/Workspaces/DAVE-4.4.2-64Bit_WS/DeflectionAnalyzer/Libraries/XMCLib/inc\xmc_gpio.h **** /**
 116:C:/Workspaces/DAVE-4.4.2-64Bit_WS/DeflectionAnalyzer/Libraries/XMCLib/inc\xmc_gpio.h ****  * Defines output level of a pin. Use type \a XMC_GPIO_OUTPUT_LEVEL_t for this enum.
 117:C:/Workspaces/DAVE-4.4.2-64Bit_WS/DeflectionAnalyzer/Libraries/XMCLib/inc\xmc_gpio.h ****  */
 118:C:/Workspaces/DAVE-4.4.2-64Bit_WS/DeflectionAnalyzer/Libraries/XMCLib/inc\xmc_gpio.h **** typedef enum XMC_GPIO_OUTPUT_LEVEL
 119:C:/Workspaces/DAVE-4.4.2-64Bit_WS/DeflectionAnalyzer/Libraries/XMCLib/inc\xmc_gpio.h **** {
 120:C:/Workspaces/DAVE-4.4.2-64Bit_WS/DeflectionAnalyzer/Libraries/XMCLib/inc\xmc_gpio.h ****   XMC_GPIO_OUTPUT_LEVEL_LOW  = 0x10000U, /**<  Reset bit */
 121:C:/Workspaces/DAVE-4.4.2-64Bit_WS/DeflectionAnalyzer/Libraries/XMCLib/inc\xmc_gpio.h ****   XMC_GPIO_OUTPUT_LEVEL_HIGH = 0x1U, 	/**< Set bit  */
 122:C:/Workspaces/DAVE-4.4.2-64Bit_WS/DeflectionAnalyzer/Libraries/XMCLib/inc\xmc_gpio.h **** } XMC_GPIO_OUTPUT_LEVEL_t;
 123:C:/Workspaces/DAVE-4.4.2-64Bit_WS/DeflectionAnalyzer/Libraries/XMCLib/inc\xmc_gpio.h **** 
 124:C:/Workspaces/DAVE-4.4.2-64Bit_WS/DeflectionAnalyzer/Libraries/XMCLib/inc\xmc_gpio.h **** /**
 125:C:/Workspaces/DAVE-4.4.2-64Bit_WS/DeflectionAnalyzer/Libraries/XMCLib/inc\xmc_gpio.h ****  * Defines direct hardware control characteristics of the pin . Use type \a XMC_GPIO_HWCTRL_t for t
 126:C:/Workspaces/DAVE-4.4.2-64Bit_WS/DeflectionAnalyzer/Libraries/XMCLib/inc\xmc_gpio.h ****  */
 127:C:/Workspaces/DAVE-4.4.2-64Bit_WS/DeflectionAnalyzer/Libraries/XMCLib/inc\xmc_gpio.h **** typedef enum XMC_GPIO_HWCTRL
 128:C:/Workspaces/DAVE-4.4.2-64Bit_WS/DeflectionAnalyzer/Libraries/XMCLib/inc\xmc_gpio.h **** {
 129:C:/Workspaces/DAVE-4.4.2-64Bit_WS/DeflectionAnalyzer/Libraries/XMCLib/inc\xmc_gpio.h ****   XMC_GPIO_HWCTRL_DISABLED     = 0x0U, /**<  Software control only */
 130:C:/Workspaces/DAVE-4.4.2-64Bit_WS/DeflectionAnalyzer/Libraries/XMCLib/inc\xmc_gpio.h ****   XMC_GPIO_HWCTRL_PERIPHERAL1  = 0x1U, /**<  HWI0/HWO0 control path can override the software confi
 131:C:/Workspaces/DAVE-4.4.2-64Bit_WS/DeflectionAnalyzer/Libraries/XMCLib/inc\xmc_gpio.h ****   XMC_GPIO_HWCTRL_PERIPHERAL2  = 0x2U  /**<  HWI1/HWO1 control path can override the software confi
 132:C:/Workspaces/DAVE-4.4.2-64Bit_WS/DeflectionAnalyzer/Libraries/XMCLib/inc\xmc_gpio.h **** } XMC_GPIO_HWCTRL_t;
 133:C:/Workspaces/DAVE-4.4.2-64Bit_WS/DeflectionAnalyzer/Libraries/XMCLib/inc\xmc_gpio.h **** 
 134:C:/Workspaces/DAVE-4.4.2-64Bit_WS/DeflectionAnalyzer/Libraries/XMCLib/inc\xmc_gpio.h **** /**************************************************************************************************
 135:C:/Workspaces/DAVE-4.4.2-64Bit_WS/DeflectionAnalyzer/Libraries/XMCLib/inc\xmc_gpio.h ****  * DEVICE FAMILY EXTENSIONS
 136:C:/Workspaces/DAVE-4.4.2-64Bit_WS/DeflectionAnalyzer/Libraries/XMCLib/inc\xmc_gpio.h ****  **************************************************************************************************
 137:C:/Workspaces/DAVE-4.4.2-64Bit_WS/DeflectionAnalyzer/Libraries/XMCLib/inc\xmc_gpio.h **** 
 138:C:/Workspaces/DAVE-4.4.2-64Bit_WS/DeflectionAnalyzer/Libraries/XMCLib/inc\xmc_gpio.h ****  #if UC_FAMILY == XMC1
 139:C:/Workspaces/DAVE-4.4.2-64Bit_WS/DeflectionAnalyzer/Libraries/XMCLib/inc\xmc_gpio.h **** #include "xmc1_gpio.h"
 140:C:/Workspaces/DAVE-4.4.2-64Bit_WS/DeflectionAnalyzer/Libraries/XMCLib/inc\xmc_gpio.h **** #elif UC_FAMILY == XMC4
 141:C:/Workspaces/DAVE-4.4.2-64Bit_WS/DeflectionAnalyzer/Libraries/XMCLib/inc\xmc_gpio.h **** #include "xmc4_gpio.h"
 142:C:/Workspaces/DAVE-4.4.2-64Bit_WS/DeflectionAnalyzer/Libraries/XMCLib/inc\xmc_gpio.h **** #else
 143:C:/Workspaces/DAVE-4.4.2-64Bit_WS/DeflectionAnalyzer/Libraries/XMCLib/inc\xmc_gpio.h **** #error "xmc_gpio.h: family device not supported"
 144:C:/Workspaces/DAVE-4.4.2-64Bit_WS/DeflectionAnalyzer/Libraries/XMCLib/inc\xmc_gpio.h **** #endif
 145:C:/Workspaces/DAVE-4.4.2-64Bit_WS/DeflectionAnalyzer/Libraries/XMCLib/inc\xmc_gpio.h **** 
 146:C:/Workspaces/DAVE-4.4.2-64Bit_WS/DeflectionAnalyzer/Libraries/XMCLib/inc\xmc_gpio.h **** /**************************************************************************************************
 147:C:/Workspaces/DAVE-4.4.2-64Bit_WS/DeflectionAnalyzer/Libraries/XMCLib/inc\xmc_gpio.h ****  * API PROTOTYPES
 148:C:/Workspaces/DAVE-4.4.2-64Bit_WS/DeflectionAnalyzer/Libraries/XMCLib/inc\xmc_gpio.h ****  **************************************************************************************************
 149:C:/Workspaces/DAVE-4.4.2-64Bit_WS/DeflectionAnalyzer/Libraries/XMCLib/inc\xmc_gpio.h **** 
 150:C:/Workspaces/DAVE-4.4.2-64Bit_WS/DeflectionAnalyzer/Libraries/XMCLib/inc\xmc_gpio.h **** #ifdef __cplusplus
 151:C:/Workspaces/DAVE-4.4.2-64Bit_WS/DeflectionAnalyzer/Libraries/XMCLib/inc\xmc_gpio.h **** extern "C" {
 152:C:/Workspaces/DAVE-4.4.2-64Bit_WS/DeflectionAnalyzer/Libraries/XMCLib/inc\xmc_gpio.h **** #endif
 153:C:/Workspaces/DAVE-4.4.2-64Bit_WS/DeflectionAnalyzer/Libraries/XMCLib/inc\xmc_gpio.h **** 
 154:C:/Workspaces/DAVE-4.4.2-64Bit_WS/DeflectionAnalyzer/Libraries/XMCLib/inc\xmc_gpio.h **** 
 155:C:/Workspaces/DAVE-4.4.2-64Bit_WS/DeflectionAnalyzer/Libraries/XMCLib/inc\xmc_gpio.h **** /**
 156:C:/Workspaces/DAVE-4.4.2-64Bit_WS/DeflectionAnalyzer/Libraries/XMCLib/inc\xmc_gpio.h ****  * @param  port	  Constant pointer pointing to GPIO port, to access port registers like Pn_OUT,Pn_O
 157:C:/Workspaces/DAVE-4.4.2-64Bit_WS/DeflectionAnalyzer/Libraries/XMCLib/inc\xmc_gpio.h ****  * @param  pin	  Port pin number.
 158:C:/Workspaces/DAVE-4.4.2-64Bit_WS/DeflectionAnalyzer/Libraries/XMCLib/inc\xmc_gpio.h ****  * @param  config GPIO configuration data structure. Refer data structure @ref XMC_GPIO_CONFIG_t fo
 159:C:/Workspaces/DAVE-4.4.2-64Bit_WS/DeflectionAnalyzer/Libraries/XMCLib/inc\xmc_gpio.h ****  *
 160:C:/Workspaces/DAVE-4.4.2-64Bit_WS/DeflectionAnalyzer/Libraries/XMCLib/inc\xmc_gpio.h ****  * @return None
 161:C:/Workspaces/DAVE-4.4.2-64Bit_WS/DeflectionAnalyzer/Libraries/XMCLib/inc\xmc_gpio.h ****  *
 162:C:/Workspaces/DAVE-4.4.2-64Bit_WS/DeflectionAnalyzer/Libraries/XMCLib/inc\xmc_gpio.h ****  * \par<b>Description:</b><br>
 163:C:/Workspaces/DAVE-4.4.2-64Bit_WS/DeflectionAnalyzer/Libraries/XMCLib/inc\xmc_gpio.h ****  * \if XMC1
 164:C:/Workspaces/DAVE-4.4.2-64Bit_WS/DeflectionAnalyzer/Libraries/XMCLib/inc\xmc_gpio.h ****  * Initializes input / output mode settings like, pull up / pull down devices,hysteresis, push pull
 165:C:/Workspaces/DAVE-4.4.2-64Bit_WS/DeflectionAnalyzer/Libraries/XMCLib/inc\xmc_gpio.h ****  * Also configures alternate function outputs and clears hardware port control for a selected \a po
 166:C:/Workspaces/DAVE-4.4.2-64Bit_WS/DeflectionAnalyzer/Libraries/XMCLib/inc\xmc_gpio.h ****  * \a config provides selected I/O settings. It configures hardware registers Pn_IOCR,Pn_OUT, Pn_OM
 167:C:/Workspaces/DAVE-4.4.2-64Bit_WS/DeflectionAnalyzer/Libraries/XMCLib/inc\xmc_gpio.h ****  * \endif
 168:C:/Workspaces/DAVE-4.4.2-64Bit_WS/DeflectionAnalyzer/Libraries/XMCLib/inc\xmc_gpio.h ****  * \if XMC4
 169:C:/Workspaces/DAVE-4.4.2-64Bit_WS/DeflectionAnalyzer/Libraries/XMCLib/inc\xmc_gpio.h ****  * Initializes input / output mode settings like, pull up / pull down devices,push pull /open drain
 170:C:/Workspaces/DAVE-4.4.2-64Bit_WS/DeflectionAnalyzer/Libraries/XMCLib/inc\xmc_gpio.h ****  * Also configures alternate function outputs and clears hardware port control for selected \a port
 171:C:/Workspaces/DAVE-4.4.2-64Bit_WS/DeflectionAnalyzer/Libraries/XMCLib/inc\xmc_gpio.h ****  * It configures hardware registers Pn_IOCR,Pn_OUT,Pn_OMR,Pn_PDISC and Pn_PDR.\n
 172:C:/Workspaces/DAVE-4.4.2-64Bit_WS/DeflectionAnalyzer/Libraries/XMCLib/inc\xmc_gpio.h ****  * \endif
 173:C:/Workspaces/DAVE-4.4.2-64Bit_WS/DeflectionAnalyzer/Libraries/XMCLib/inc\xmc_gpio.h ****  *
 174:C:/Workspaces/DAVE-4.4.2-64Bit_WS/DeflectionAnalyzer/Libraries/XMCLib/inc\xmc_gpio.h ****  * \par<b>Related APIs:</b><BR>
 175:C:/Workspaces/DAVE-4.4.2-64Bit_WS/DeflectionAnalyzer/Libraries/XMCLib/inc\xmc_gpio.h ****  *  None
 176:C:/Workspaces/DAVE-4.4.2-64Bit_WS/DeflectionAnalyzer/Libraries/XMCLib/inc\xmc_gpio.h ****  *
 177:C:/Workspaces/DAVE-4.4.2-64Bit_WS/DeflectionAnalyzer/Libraries/XMCLib/inc\xmc_gpio.h ****  * \par<b>Note:</b><br>
 178:C:/Workspaces/DAVE-4.4.2-64Bit_WS/DeflectionAnalyzer/Libraries/XMCLib/inc\xmc_gpio.h ****  * This API is called in definition of DAVE_init by code generation and therefore should not be exp
 179:C:/Workspaces/DAVE-4.4.2-64Bit_WS/DeflectionAnalyzer/Libraries/XMCLib/inc\xmc_gpio.h ****  * for the normal operation. Use other APIs only after DAVE_init is called successfully (returns DA
 180:C:/Workspaces/DAVE-4.4.2-64Bit_WS/DeflectionAnalyzer/Libraries/XMCLib/inc\xmc_gpio.h ****  *
 181:C:/Workspaces/DAVE-4.4.2-64Bit_WS/DeflectionAnalyzer/Libraries/XMCLib/inc\xmc_gpio.h ****  *
 182:C:/Workspaces/DAVE-4.4.2-64Bit_WS/DeflectionAnalyzer/Libraries/XMCLib/inc\xmc_gpio.h ****  */
 183:C:/Workspaces/DAVE-4.4.2-64Bit_WS/DeflectionAnalyzer/Libraries/XMCLib/inc\xmc_gpio.h **** 
 184:C:/Workspaces/DAVE-4.4.2-64Bit_WS/DeflectionAnalyzer/Libraries/XMCLib/inc\xmc_gpio.h ****  
 185:C:/Workspaces/DAVE-4.4.2-64Bit_WS/DeflectionAnalyzer/Libraries/XMCLib/inc\xmc_gpio.h **** void XMC_GPIO_Init(XMC_GPIO_PORT_t *const port, const uint8_t pin, const XMC_GPIO_CONFIG_t *const c
 186:C:/Workspaces/DAVE-4.4.2-64Bit_WS/DeflectionAnalyzer/Libraries/XMCLib/inc\xmc_gpio.h ****  
 187:C:/Workspaces/DAVE-4.4.2-64Bit_WS/DeflectionAnalyzer/Libraries/XMCLib/inc\xmc_gpio.h **** /**
 188:C:/Workspaces/DAVE-4.4.2-64Bit_WS/DeflectionAnalyzer/Libraries/XMCLib/inc\xmc_gpio.h ****  *
 189:C:/Workspaces/DAVE-4.4.2-64Bit_WS/DeflectionAnalyzer/Libraries/XMCLib/inc\xmc_gpio.h ****  * @param  port	Constant pointer pointing to GPIO port, to access hardware register Pn_IOCR.
 190:C:/Workspaces/DAVE-4.4.2-64Bit_WS/DeflectionAnalyzer/Libraries/XMCLib/inc\xmc_gpio.h ****  * @param  pin	Port pin number.
 191:C:/Workspaces/DAVE-4.4.2-64Bit_WS/DeflectionAnalyzer/Libraries/XMCLib/inc\xmc_gpio.h ****  * @param  mode input / output functionality selection. Refer @ref XMC_GPIO_MODE_t for valid values
 192:C:/Workspaces/DAVE-4.4.2-64Bit_WS/DeflectionAnalyzer/Libraries/XMCLib/inc\xmc_gpio.h ****  *
 193:C:/Workspaces/DAVE-4.4.2-64Bit_WS/DeflectionAnalyzer/Libraries/XMCLib/inc\xmc_gpio.h ****  * @return None
 194:C:/Workspaces/DAVE-4.4.2-64Bit_WS/DeflectionAnalyzer/Libraries/XMCLib/inc\xmc_gpio.h ****  *
 195:C:/Workspaces/DAVE-4.4.2-64Bit_WS/DeflectionAnalyzer/Libraries/XMCLib/inc\xmc_gpio.h ****  * \par<b>Description:</b><br>
 196:C:/Workspaces/DAVE-4.4.2-64Bit_WS/DeflectionAnalyzer/Libraries/XMCLib/inc\xmc_gpio.h ****  * Sets digital input and output driver functionality and characteristics of a GPIO port pin. It co
 197:C:/Workspaces/DAVE-4.4.2-64Bit_WS/DeflectionAnalyzer/Libraries/XMCLib/inc\xmc_gpio.h ****  * registers Pn_IOCR. \a mode is initially configured during initialization in XMC_GPIO_Init(). Cal
 198:C:/Workspaces/DAVE-4.4.2-64Bit_WS/DeflectionAnalyzer/Libraries/XMCLib/inc\xmc_gpio.h ****  * the port direction functionality as needed later in the program.
 199:C:/Workspaces/DAVE-4.4.2-64Bit_WS/DeflectionAnalyzer/Libraries/XMCLib/inc\xmc_gpio.h ****  *
 200:C:/Workspaces/DAVE-4.4.2-64Bit_WS/DeflectionAnalyzer/Libraries/XMCLib/inc\xmc_gpio.h ****  * \par<b>Related APIs:</b><BR>
 201:C:/Workspaces/DAVE-4.4.2-64Bit_WS/DeflectionAnalyzer/Libraries/XMCLib/inc\xmc_gpio.h ****  *  None
 202:C:/Workspaces/DAVE-4.4.2-64Bit_WS/DeflectionAnalyzer/Libraries/XMCLib/inc\xmc_gpio.h ****  *
 203:C:/Workspaces/DAVE-4.4.2-64Bit_WS/DeflectionAnalyzer/Libraries/XMCLib/inc\xmc_gpio.h ****  */
 204:C:/Workspaces/DAVE-4.4.2-64Bit_WS/DeflectionAnalyzer/Libraries/XMCLib/inc\xmc_gpio.h **** 
 205:C:/Workspaces/DAVE-4.4.2-64Bit_WS/DeflectionAnalyzer/Libraries/XMCLib/inc\xmc_gpio.h **** void XMC_GPIO_SetMode(XMC_GPIO_PORT_t *const port, const uint8_t pin, const XMC_GPIO_MODE_t mode);
 206:C:/Workspaces/DAVE-4.4.2-64Bit_WS/DeflectionAnalyzer/Libraries/XMCLib/inc\xmc_gpio.h **** 
 207:C:/Workspaces/DAVE-4.4.2-64Bit_WS/DeflectionAnalyzer/Libraries/XMCLib/inc\xmc_gpio.h **** 
 208:C:/Workspaces/DAVE-4.4.2-64Bit_WS/DeflectionAnalyzer/Libraries/XMCLib/inc\xmc_gpio.h **** /**
 209:C:/Workspaces/DAVE-4.4.2-64Bit_WS/DeflectionAnalyzer/Libraries/XMCLib/inc\xmc_gpio.h ****  *
 210:C:/Workspaces/DAVE-4.4.2-64Bit_WS/DeflectionAnalyzer/Libraries/XMCLib/inc\xmc_gpio.h ****  * @param  port	 Constant pointer pointing to GPIO port, to access hardware register Pn_OMR.
 211:C:/Workspaces/DAVE-4.4.2-64Bit_WS/DeflectionAnalyzer/Libraries/XMCLib/inc\xmc_gpio.h ****  * @param  pin	 Port pin number.
 212:C:/Workspaces/DAVE-4.4.2-64Bit_WS/DeflectionAnalyzer/Libraries/XMCLib/inc\xmc_gpio.h ****  * @param  level output level selection. Refer @ref XMC_GPIO_OUTPUT_LEVEL_t for valid values.
 213:C:/Workspaces/DAVE-4.4.2-64Bit_WS/DeflectionAnalyzer/Libraries/XMCLib/inc\xmc_gpio.h ****  *
 214:C:/Workspaces/DAVE-4.4.2-64Bit_WS/DeflectionAnalyzer/Libraries/XMCLib/inc\xmc_gpio.h ****  * @return None
 215:C:/Workspaces/DAVE-4.4.2-64Bit_WS/DeflectionAnalyzer/Libraries/XMCLib/inc\xmc_gpio.h ****  *
 216:C:/Workspaces/DAVE-4.4.2-64Bit_WS/DeflectionAnalyzer/Libraries/XMCLib/inc\xmc_gpio.h ****  * \par<b>Description:</b><br>
 217:C:/Workspaces/DAVE-4.4.2-64Bit_WS/DeflectionAnalyzer/Libraries/XMCLib/inc\xmc_gpio.h ****  * Set port pin output level to high or low.It configures hardware registers Pn_OMR.\a level is ini
 218:C:/Workspaces/DAVE-4.4.2-64Bit_WS/DeflectionAnalyzer/Libraries/XMCLib/inc\xmc_gpio.h ****  * configured during initialization in XMC_GPIO_Init(). Call this API to alter output level as need
 219:C:/Workspaces/DAVE-4.4.2-64Bit_WS/DeflectionAnalyzer/Libraries/XMCLib/inc\xmc_gpio.h ****  *
 220:C:/Workspaces/DAVE-4.4.2-64Bit_WS/DeflectionAnalyzer/Libraries/XMCLib/inc\xmc_gpio.h ****  * \par<b>Related APIs:</b><BR>
 221:C:/Workspaces/DAVE-4.4.2-64Bit_WS/DeflectionAnalyzer/Libraries/XMCLib/inc\xmc_gpio.h ****  *  XMC_GPIO_SetOutputHigh(), XMC_GPIO_SetOutputLow().
 222:C:/Workspaces/DAVE-4.4.2-64Bit_WS/DeflectionAnalyzer/Libraries/XMCLib/inc\xmc_gpio.h ****  *
 223:C:/Workspaces/DAVE-4.4.2-64Bit_WS/DeflectionAnalyzer/Libraries/XMCLib/inc\xmc_gpio.h ****  * \par<b>Note:</b><br>
 224:C:/Workspaces/DAVE-4.4.2-64Bit_WS/DeflectionAnalyzer/Libraries/XMCLib/inc\xmc_gpio.h ****  * Prior to this api, user has to configure port pin to output mode using XMC_GPIO_SetMode().
 225:C:/Workspaces/DAVE-4.4.2-64Bit_WS/DeflectionAnalyzer/Libraries/XMCLib/inc\xmc_gpio.h ****  *
 226:C:/Workspaces/DAVE-4.4.2-64Bit_WS/DeflectionAnalyzer/Libraries/XMCLib/inc\xmc_gpio.h ****  */
 227:C:/Workspaces/DAVE-4.4.2-64Bit_WS/DeflectionAnalyzer/Libraries/XMCLib/inc\xmc_gpio.h **** 
 228:C:/Workspaces/DAVE-4.4.2-64Bit_WS/DeflectionAnalyzer/Libraries/XMCLib/inc\xmc_gpio.h **** 
 229:C:/Workspaces/DAVE-4.4.2-64Bit_WS/DeflectionAnalyzer/Libraries/XMCLib/inc\xmc_gpio.h **** __STATIC_INLINE void XMC_GPIO_SetOutputLevel(XMC_GPIO_PORT_t *const port, const uint8_t pin, const 
 230:C:/Workspaces/DAVE-4.4.2-64Bit_WS/DeflectionAnalyzer/Libraries/XMCLib/inc\xmc_gpio.h **** {
 231:C:/Workspaces/DAVE-4.4.2-64Bit_WS/DeflectionAnalyzer/Libraries/XMCLib/inc\xmc_gpio.h ****   XMC_ASSERT("XMC_GPIO_SetOutputLevel: Invalid port", XMC_GPIO_CHECK_OUTPUT_PORT(port));
 232:C:/Workspaces/DAVE-4.4.2-64Bit_WS/DeflectionAnalyzer/Libraries/XMCLib/inc\xmc_gpio.h ****   XMC_ASSERT("XMC_GPIO_SetOutputLevel: Invalid output level", XMC_GPIO_CHECK_OUTPUT_LEVEL(level));
 233:C:/Workspaces/DAVE-4.4.2-64Bit_WS/DeflectionAnalyzer/Libraries/XMCLib/inc\xmc_gpio.h ****   
 234:C:/Workspaces/DAVE-4.4.2-64Bit_WS/DeflectionAnalyzer/Libraries/XMCLib/inc\xmc_gpio.h ****   port->OMR = (uint32_t)level << pin;
 235:C:/Workspaces/DAVE-4.4.2-64Bit_WS/DeflectionAnalyzer/Libraries/XMCLib/inc\xmc_gpio.h **** }
 236:C:/Workspaces/DAVE-4.4.2-64Bit_WS/DeflectionAnalyzer/Libraries/XMCLib/inc\xmc_gpio.h **** 
 237:C:/Workspaces/DAVE-4.4.2-64Bit_WS/DeflectionAnalyzer/Libraries/XMCLib/inc\xmc_gpio.h **** 
 238:C:/Workspaces/DAVE-4.4.2-64Bit_WS/DeflectionAnalyzer/Libraries/XMCLib/inc\xmc_gpio.h **** /**
 239:C:/Workspaces/DAVE-4.4.2-64Bit_WS/DeflectionAnalyzer/Libraries/XMCLib/inc\xmc_gpio.h ****  * @param  port constant pointer pointing to GPIO port, to access hardware register Pn_OMR.
 240:C:/Workspaces/DAVE-4.4.2-64Bit_WS/DeflectionAnalyzer/Libraries/XMCLib/inc\xmc_gpio.h ****  * @param  pin	Port pin number.
 241:C:/Workspaces/DAVE-4.4.2-64Bit_WS/DeflectionAnalyzer/Libraries/XMCLib/inc\xmc_gpio.h ****  *
 242:C:/Workspaces/DAVE-4.4.2-64Bit_WS/DeflectionAnalyzer/Libraries/XMCLib/inc\xmc_gpio.h ****  * @return None
 243:C:/Workspaces/DAVE-4.4.2-64Bit_WS/DeflectionAnalyzer/Libraries/XMCLib/inc\xmc_gpio.h ****  *
 244:C:/Workspaces/DAVE-4.4.2-64Bit_WS/DeflectionAnalyzer/Libraries/XMCLib/inc\xmc_gpio.h ****  * \par<b>Description:</b><br>
 245:C:/Workspaces/DAVE-4.4.2-64Bit_WS/DeflectionAnalyzer/Libraries/XMCLib/inc\xmc_gpio.h ****  *  Sets port pin output to high. It configures hardware registers Pn_OMR.
 246:C:/Workspaces/DAVE-4.4.2-64Bit_WS/DeflectionAnalyzer/Libraries/XMCLib/inc\xmc_gpio.h ****  *
 247:C:/Workspaces/DAVE-4.4.2-64Bit_WS/DeflectionAnalyzer/Libraries/XMCLib/inc\xmc_gpio.h ****  *  \par<b>Related APIs:</b><BR>
 248:C:/Workspaces/DAVE-4.4.2-64Bit_WS/DeflectionAnalyzer/Libraries/XMCLib/inc\xmc_gpio.h ****  *  XMC_GPIO_SetOutputLow()
 249:C:/Workspaces/DAVE-4.4.2-64Bit_WS/DeflectionAnalyzer/Libraries/XMCLib/inc\xmc_gpio.h ****  *
 250:C:/Workspaces/DAVE-4.4.2-64Bit_WS/DeflectionAnalyzer/Libraries/XMCLib/inc\xmc_gpio.h ****  * \par<b>Note:</b><br>
 251:C:/Workspaces/DAVE-4.4.2-64Bit_WS/DeflectionAnalyzer/Libraries/XMCLib/inc\xmc_gpio.h ****  * Prior to this api, user has to configure port pin to output mode using XMC_GPIO_SetMode().\n
 252:C:/Workspaces/DAVE-4.4.2-64Bit_WS/DeflectionAnalyzer/Libraries/XMCLib/inc\xmc_gpio.h ****  * Register Pn_OMR is virtual and does not contain any flip-flop. A read action delivers the value 
 253:C:/Workspaces/DAVE-4.4.2-64Bit_WS/DeflectionAnalyzer/Libraries/XMCLib/inc\xmc_gpio.h ****  *
 254:C:/Workspaces/DAVE-4.4.2-64Bit_WS/DeflectionAnalyzer/Libraries/XMCLib/inc\xmc_gpio.h ****  */
 255:C:/Workspaces/DAVE-4.4.2-64Bit_WS/DeflectionAnalyzer/Libraries/XMCLib/inc\xmc_gpio.h **** 
 256:C:/Workspaces/DAVE-4.4.2-64Bit_WS/DeflectionAnalyzer/Libraries/XMCLib/inc\xmc_gpio.h **** __STATIC_INLINE void XMC_GPIO_SetOutputHigh(XMC_GPIO_PORT_t *const port, const uint8_t pin)
 257:C:/Workspaces/DAVE-4.4.2-64Bit_WS/DeflectionAnalyzer/Libraries/XMCLib/inc\xmc_gpio.h **** {
  27              	 .loc 1 257 0
  28              	 .cfi_startproc
  29              	 
  30              	 
  31              	 
  32 0000 80B4     	 push {r7}
  33              	.LCFI0:
  34              	 .cfi_def_cfa_offset 4
  35              	 .cfi_offset 7,-4
  36 0002 83B0     	 sub sp,sp,#12
  37              	.LCFI1:
  38              	 .cfi_def_cfa_offset 16
  39 0004 00AF     	 add r7,sp,#0
  40              	.LCFI2:
  41              	 .cfi_def_cfa_register 7
  42 0006 7860     	 str r0,[r7,#4]
  43 0008 0B46     	 mov r3,r1
  44 000a FB70     	 strb r3,[r7,#3]
 258:C:/Workspaces/DAVE-4.4.2-64Bit_WS/DeflectionAnalyzer/Libraries/XMCLib/inc\xmc_gpio.h ****   XMC_ASSERT("XMC_GPIO_SetOutputHigh: Invalid port", XMC_GPIO_CHECK_OUTPUT_PORT(port));
 259:C:/Workspaces/DAVE-4.4.2-64Bit_WS/DeflectionAnalyzer/Libraries/XMCLib/inc\xmc_gpio.h **** 
 260:C:/Workspaces/DAVE-4.4.2-64Bit_WS/DeflectionAnalyzer/Libraries/XMCLib/inc\xmc_gpio.h ****   port->OMR = (uint32_t)0x1U << pin;
  45              	 .loc 1 260 0
  46 000c FB78     	 ldrb r3,[r7,#3]
  47 000e 0122     	 movs r2,#1
  48 0010 9A40     	 lsls r2,r2,r3
  49 0012 7B68     	 ldr r3,[r7,#4]
  50 0014 5A60     	 str r2,[r3,#4]
 261:C:/Workspaces/DAVE-4.4.2-64Bit_WS/DeflectionAnalyzer/Libraries/XMCLib/inc\xmc_gpio.h **** }
  51              	 .loc 1 261 0
  52 0016 0C37     	 adds r7,r7,#12
  53              	.LCFI3:
  54              	 .cfi_def_cfa_offset 4
  55 0018 BD46     	 mov sp,r7
  56              	.LCFI4:
  57              	 .cfi_def_cfa_register 13
  58              	 
  59 001a 5DF8047B 	 ldr r7,[sp],#4
  60              	.LCFI5:
  61              	 .cfi_restore 7
  62              	 .cfi_def_cfa_offset 0
  63 001e 7047     	 bx lr
  64              	 .cfi_endproc
  65              	.LFE177:
  67              	 .section .text.DIGITAL_IO_SetOutputHigh,"ax",%progbits
  68              	 .align 2
  69              	 .thumb
  70              	 .thumb_func
  72              	DIGITAL_IO_SetOutputHigh:
  73              	.LFB306:
  74              	 .file 2 "C:/Workspaces/DAVE-4.4.2-64Bit_WS/DeflectionAnalyzer/Dave/Generated/DIGITAL_IO/digital_io.h"
   1:C:/Workspaces/DAVE-4.4.2-64Bit_WS/DeflectionAnalyzer/Dave/Generated/DIGITAL_IO\digital_io.h **** /*
   2:C:/Workspaces/DAVE-4.4.2-64Bit_WS/DeflectionAnalyzer/Dave/Generated/DIGITAL_IO\digital_io.h ****  *
   3:C:/Workspaces/DAVE-4.4.2-64Bit_WS/DeflectionAnalyzer/Dave/Generated/DIGITAL_IO\digital_io.h ****  * @file digital_io.h
   4:C:/Workspaces/DAVE-4.4.2-64Bit_WS/DeflectionAnalyzer/Dave/Generated/DIGITAL_IO\digital_io.h ****  * @date 2016-07-08
   5:C:/Workspaces/DAVE-4.4.2-64Bit_WS/DeflectionAnalyzer/Dave/Generated/DIGITAL_IO\digital_io.h ****  *
   6:C:/Workspaces/DAVE-4.4.2-64Bit_WS/DeflectionAnalyzer/Dave/Generated/DIGITAL_IO\digital_io.h ****  * NOTE:
   7:C:/Workspaces/DAVE-4.4.2-64Bit_WS/DeflectionAnalyzer/Dave/Generated/DIGITAL_IO\digital_io.h ****  * This file is generated by DAVE. Any manual modification done to this file will be lost when the 
   8:C:/Workspaces/DAVE-4.4.2-64Bit_WS/DeflectionAnalyzer/Dave/Generated/DIGITAL_IO\digital_io.h ****  *
   9:C:/Workspaces/DAVE-4.4.2-64Bit_WS/DeflectionAnalyzer/Dave/Generated/DIGITAL_IO\digital_io.h ****  * @cond
  10:C:/Workspaces/DAVE-4.4.2-64Bit_WS/DeflectionAnalyzer/Dave/Generated/DIGITAL_IO\digital_io.h ****  **************************************************************************************************
  11:C:/Workspaces/DAVE-4.4.2-64Bit_WS/DeflectionAnalyzer/Dave/Generated/DIGITAL_IO\digital_io.h ****  * DIGITAL_IO v4.0.16 - The DIGITAL_IO APP is used to configure a port pin as digital Input/Output.
  12:C:/Workspaces/DAVE-4.4.2-64Bit_WS/DeflectionAnalyzer/Dave/Generated/DIGITAL_IO\digital_io.h ****  *
  13:C:/Workspaces/DAVE-4.4.2-64Bit_WS/DeflectionAnalyzer/Dave/Generated/DIGITAL_IO\digital_io.h ****  * Copyright (c) 2015-2016, Infineon Technologies AG
  14:C:/Workspaces/DAVE-4.4.2-64Bit_WS/DeflectionAnalyzer/Dave/Generated/DIGITAL_IO\digital_io.h ****  * All rights reserved.
  15:C:/Workspaces/DAVE-4.4.2-64Bit_WS/DeflectionAnalyzer/Dave/Generated/DIGITAL_IO\digital_io.h ****  *
  16:C:/Workspaces/DAVE-4.4.2-64Bit_WS/DeflectionAnalyzer/Dave/Generated/DIGITAL_IO\digital_io.h ****  * Redistribution and use in source and binary forms, with or without modification,are permitted pr
  17:C:/Workspaces/DAVE-4.4.2-64Bit_WS/DeflectionAnalyzer/Dave/Generated/DIGITAL_IO\digital_io.h ****  * following conditions are met:
  18:C:/Workspaces/DAVE-4.4.2-64Bit_WS/DeflectionAnalyzer/Dave/Generated/DIGITAL_IO\digital_io.h ****  *
  19:C:/Workspaces/DAVE-4.4.2-64Bit_WS/DeflectionAnalyzer/Dave/Generated/DIGITAL_IO\digital_io.h ****  *   Redistributions of source code must retain the above copyright notice, this list of conditions
  20:C:/Workspaces/DAVE-4.4.2-64Bit_WS/DeflectionAnalyzer/Dave/Generated/DIGITAL_IO\digital_io.h ****  *   disclaimer.
  21:C:/Workspaces/DAVE-4.4.2-64Bit_WS/DeflectionAnalyzer/Dave/Generated/DIGITAL_IO\digital_io.h ****  *
  22:C:/Workspaces/DAVE-4.4.2-64Bit_WS/DeflectionAnalyzer/Dave/Generated/DIGITAL_IO\digital_io.h ****  *   Redistributions in binary form must reproduce the above copyright notice, this list of conditi
  23:C:/Workspaces/DAVE-4.4.2-64Bit_WS/DeflectionAnalyzer/Dave/Generated/DIGITAL_IO\digital_io.h ****  *   following disclaimer in the documentation and/or other materials provided with the distributio
  24:C:/Workspaces/DAVE-4.4.2-64Bit_WS/DeflectionAnalyzer/Dave/Generated/DIGITAL_IO\digital_io.h ****  *
  25:C:/Workspaces/DAVE-4.4.2-64Bit_WS/DeflectionAnalyzer/Dave/Generated/DIGITAL_IO\digital_io.h ****  *   Neither the name of the copyright holders nor the names of its contributors may be used to end
  26:C:/Workspaces/DAVE-4.4.2-64Bit_WS/DeflectionAnalyzer/Dave/Generated/DIGITAL_IO\digital_io.h ****  *   products derived from this software without specific prior written permission.
  27:C:/Workspaces/DAVE-4.4.2-64Bit_WS/DeflectionAnalyzer/Dave/Generated/DIGITAL_IO\digital_io.h ****  *
  28:C:/Workspaces/DAVE-4.4.2-64Bit_WS/DeflectionAnalyzer/Dave/Generated/DIGITAL_IO\digital_io.h ****  * THIS SOFTWARE IS PROVIDED BY THE COPYRIGHT HOLDERS AND CONTRIBUTORS "AS IS" AND ANY EXPRESS OR I
  29:C:/Workspaces/DAVE-4.4.2-64Bit_WS/DeflectionAnalyzer/Dave/Generated/DIGITAL_IO\digital_io.h ****  * INCLUDING, BUT NOT LIMITED TO, THE IMPLIED WARRANTIES OF MERCHANTABILITY AND FITNESS FOR A PARTI
  30:C:/Workspaces/DAVE-4.4.2-64Bit_WS/DeflectionAnalyzer/Dave/Generated/DIGITAL_IO\digital_io.h ****  * DISCLAIMED. IN NO EVENT SHALL THE COPYRIGHT HOLDER OR CONTRIBUTORS BE LIABLE  FOR ANY DIRECT, IN
  31:C:/Workspaces/DAVE-4.4.2-64Bit_WS/DeflectionAnalyzer/Dave/Generated/DIGITAL_IO\digital_io.h ****  * SPECIAL, EXEMPLARY, OR CONSEQUENTIAL DAMAGES (INCLUDING, BUT NOT LIMITED TO, PROCUREMENT OF SUBS
  32:C:/Workspaces/DAVE-4.4.2-64Bit_WS/DeflectionAnalyzer/Dave/Generated/DIGITAL_IO\digital_io.h ****  * SERVICES; LOSS OF USE, DATA, OR PROFITS; OR BUSINESS INTERRUPTION) HOWEVER CAUSED AND ON ANY THE
  33:C:/Workspaces/DAVE-4.4.2-64Bit_WS/DeflectionAnalyzer/Dave/Generated/DIGITAL_IO\digital_io.h ****  * WHETHER IN CONTRACT, STRICT LIABILITY,OR TORT (INCLUDING NEGLIGENCE OR OTHERWISE) ARISING IN ANY
  34:C:/Workspaces/DAVE-4.4.2-64Bit_WS/DeflectionAnalyzer/Dave/Generated/DIGITAL_IO\digital_io.h ****  * USE OF THIS SOFTWARE, EVEN IF ADVISED OF THE POSSIBILITY OF SUCH DAMAGE.
  35:C:/Workspaces/DAVE-4.4.2-64Bit_WS/DeflectionAnalyzer/Dave/Generated/DIGITAL_IO\digital_io.h ****  *
  36:C:/Workspaces/DAVE-4.4.2-64Bit_WS/DeflectionAnalyzer/Dave/Generated/DIGITAL_IO\digital_io.h ****  * To improve the quality of the software, users are encouraged to share modifications, enhancement
  37:C:/Workspaces/DAVE-4.4.2-64Bit_WS/DeflectionAnalyzer/Dave/Generated/DIGITAL_IO\digital_io.h ****  * with Infineon Technologies AG (dave@infineon.com).
  38:C:/Workspaces/DAVE-4.4.2-64Bit_WS/DeflectionAnalyzer/Dave/Generated/DIGITAL_IO\digital_io.h ****  **************************************************************************************************
  39:C:/Workspaces/DAVE-4.4.2-64Bit_WS/DeflectionAnalyzer/Dave/Generated/DIGITAL_IO\digital_io.h ****  *
  40:C:/Workspaces/DAVE-4.4.2-64Bit_WS/DeflectionAnalyzer/Dave/Generated/DIGITAL_IO\digital_io.h ****  * Change History
  41:C:/Workspaces/DAVE-4.4.2-64Bit_WS/DeflectionAnalyzer/Dave/Generated/DIGITAL_IO\digital_io.h ****  * --------------
  42:C:/Workspaces/DAVE-4.4.2-64Bit_WS/DeflectionAnalyzer/Dave/Generated/DIGITAL_IO\digital_io.h ****  *
  43:C:/Workspaces/DAVE-4.4.2-64Bit_WS/DeflectionAnalyzer/Dave/Generated/DIGITAL_IO\digital_io.h ****  * 2015-02-16
  44:C:/Workspaces/DAVE-4.4.2-64Bit_WS/DeflectionAnalyzer/Dave/Generated/DIGITAL_IO\digital_io.h ****  *     - Initial version
  45:C:/Workspaces/DAVE-4.4.2-64Bit_WS/DeflectionAnalyzer/Dave/Generated/DIGITAL_IO\digital_io.h ****  *
  46:C:/Workspaces/DAVE-4.4.2-64Bit_WS/DeflectionAnalyzer/Dave/Generated/DIGITAL_IO\digital_io.h ****  * 2015-04-22
  47:C:/Workspaces/DAVE-4.4.2-64Bit_WS/DeflectionAnalyzer/Dave/Generated/DIGITAL_IO\digital_io.h ****  *     - XMC_ASSERT is added in static inline functions.<br>
  48:C:/Workspaces/DAVE-4.4.2-64Bit_WS/DeflectionAnalyzer/Dave/Generated/DIGITAL_IO\digital_io.h ****  *
  49:C:/Workspaces/DAVE-4.4.2-64Bit_WS/DeflectionAnalyzer/Dave/Generated/DIGITAL_IO\digital_io.h ****  * 2015-06-20
  50:C:/Workspaces/DAVE-4.4.2-64Bit_WS/DeflectionAnalyzer/Dave/Generated/DIGITAL_IO\digital_io.h ****  *     - Version check added for XMCLib dependency.<br>
  51:C:/Workspaces/DAVE-4.4.2-64Bit_WS/DeflectionAnalyzer/Dave/Generated/DIGITAL_IO\digital_io.h ****  *
  52:C:/Workspaces/DAVE-4.4.2-64Bit_WS/DeflectionAnalyzer/Dave/Generated/DIGITAL_IO\digital_io.h ****  * 2015-12-22
  53:C:/Workspaces/DAVE-4.4.2-64Bit_WS/DeflectionAnalyzer/Dave/Generated/DIGITAL_IO\digital_io.h ****  *     - Added hardware controlled IO feature.
  54:C:/Workspaces/DAVE-4.4.2-64Bit_WS/DeflectionAnalyzer/Dave/Generated/DIGITAL_IO\digital_io.h ****  * 2016-07-08:
  55:C:/Workspaces/DAVE-4.4.2-64Bit_WS/DeflectionAnalyzer/Dave/Generated/DIGITAL_IO\digital_io.h ****  *     - Fixed incorrect case for an included header.<br>
  56:C:/Workspaces/DAVE-4.4.2-64Bit_WS/DeflectionAnalyzer/Dave/Generated/DIGITAL_IO\digital_io.h ****  *
  57:C:/Workspaces/DAVE-4.4.2-64Bit_WS/DeflectionAnalyzer/Dave/Generated/DIGITAL_IO\digital_io.h ****  * @endcond
  58:C:/Workspaces/DAVE-4.4.2-64Bit_WS/DeflectionAnalyzer/Dave/Generated/DIGITAL_IO\digital_io.h ****  *
  59:C:/Workspaces/DAVE-4.4.2-64Bit_WS/DeflectionAnalyzer/Dave/Generated/DIGITAL_IO\digital_io.h ****  */
  60:C:/Workspaces/DAVE-4.4.2-64Bit_WS/DeflectionAnalyzer/Dave/Generated/DIGITAL_IO\digital_io.h **** 
  61:C:/Workspaces/DAVE-4.4.2-64Bit_WS/DeflectionAnalyzer/Dave/Generated/DIGITAL_IO\digital_io.h **** /**************************************************************************************************
  62:C:/Workspaces/DAVE-4.4.2-64Bit_WS/DeflectionAnalyzer/Dave/Generated/DIGITAL_IO\digital_io.h ****  * HEADER FILES
  63:C:/Workspaces/DAVE-4.4.2-64Bit_WS/DeflectionAnalyzer/Dave/Generated/DIGITAL_IO\digital_io.h ****  **************************************************************************************************
  64:C:/Workspaces/DAVE-4.4.2-64Bit_WS/DeflectionAnalyzer/Dave/Generated/DIGITAL_IO\digital_io.h **** 
  65:C:/Workspaces/DAVE-4.4.2-64Bit_WS/DeflectionAnalyzer/Dave/Generated/DIGITAL_IO\digital_io.h **** #ifndef DIGITAL_IO_H
  66:C:/Workspaces/DAVE-4.4.2-64Bit_WS/DeflectionAnalyzer/Dave/Generated/DIGITAL_IO\digital_io.h **** #define DIGITAL_IO_H
  67:C:/Workspaces/DAVE-4.4.2-64Bit_WS/DeflectionAnalyzer/Dave/Generated/DIGITAL_IO\digital_io.h **** 
  68:C:/Workspaces/DAVE-4.4.2-64Bit_WS/DeflectionAnalyzer/Dave/Generated/DIGITAL_IO\digital_io.h **** #include <xmc_gpio.h>
  69:C:/Workspaces/DAVE-4.4.2-64Bit_WS/DeflectionAnalyzer/Dave/Generated/DIGITAL_IO\digital_io.h **** #include <DAVE_Common.h>
  70:C:/Workspaces/DAVE-4.4.2-64Bit_WS/DeflectionAnalyzer/Dave/Generated/DIGITAL_IO\digital_io.h **** #include "digital_io_conf.h"
  71:C:/Workspaces/DAVE-4.4.2-64Bit_WS/DeflectionAnalyzer/Dave/Generated/DIGITAL_IO\digital_io.h **** 
  72:C:/Workspaces/DAVE-4.4.2-64Bit_WS/DeflectionAnalyzer/Dave/Generated/DIGITAL_IO\digital_io.h **** /**************************************************************************************************
  73:C:/Workspaces/DAVE-4.4.2-64Bit_WS/DeflectionAnalyzer/Dave/Generated/DIGITAL_IO\digital_io.h ****  * MACROS
  74:C:/Workspaces/DAVE-4.4.2-64Bit_WS/DeflectionAnalyzer/Dave/Generated/DIGITAL_IO\digital_io.h ****  **************************************************************************************************
  75:C:/Workspaces/DAVE-4.4.2-64Bit_WS/DeflectionAnalyzer/Dave/Generated/DIGITAL_IO\digital_io.h **** #if (!((XMC_LIB_MAJOR_VERSION == 2U) && \
  76:C:/Workspaces/DAVE-4.4.2-64Bit_WS/DeflectionAnalyzer/Dave/Generated/DIGITAL_IO\digital_io.h ****        (XMC_LIB_MINOR_VERSION >= 0U) && \
  77:C:/Workspaces/DAVE-4.4.2-64Bit_WS/DeflectionAnalyzer/Dave/Generated/DIGITAL_IO\digital_io.h ****        (XMC_LIB_PATCH_VERSION >= 0U)))
  78:C:/Workspaces/DAVE-4.4.2-64Bit_WS/DeflectionAnalyzer/Dave/Generated/DIGITAL_IO\digital_io.h **** #error "DIGITAL_IO requires XMC Peripheral Library v2.0.0 or higher"
  79:C:/Workspaces/DAVE-4.4.2-64Bit_WS/DeflectionAnalyzer/Dave/Generated/DIGITAL_IO\digital_io.h **** #endif
  80:C:/Workspaces/DAVE-4.4.2-64Bit_WS/DeflectionAnalyzer/Dave/Generated/DIGITAL_IO\digital_io.h **** 
  81:C:/Workspaces/DAVE-4.4.2-64Bit_WS/DeflectionAnalyzer/Dave/Generated/DIGITAL_IO\digital_io.h ****  /*************************************************************************************************
  82:C:/Workspaces/DAVE-4.4.2-64Bit_WS/DeflectionAnalyzer/Dave/Generated/DIGITAL_IO\digital_io.h ****  * ENUMS
  83:C:/Workspaces/DAVE-4.4.2-64Bit_WS/DeflectionAnalyzer/Dave/Generated/DIGITAL_IO\digital_io.h ****  **************************************************************************************************
  84:C:/Workspaces/DAVE-4.4.2-64Bit_WS/DeflectionAnalyzer/Dave/Generated/DIGITAL_IO\digital_io.h **** 
  85:C:/Workspaces/DAVE-4.4.2-64Bit_WS/DeflectionAnalyzer/Dave/Generated/DIGITAL_IO\digital_io.h **** /**
  86:C:/Workspaces/DAVE-4.4.2-64Bit_WS/DeflectionAnalyzer/Dave/Generated/DIGITAL_IO\digital_io.h **** * @ingroup DIGITAL_IO_enumerations
  87:C:/Workspaces/DAVE-4.4.2-64Bit_WS/DeflectionAnalyzer/Dave/Generated/DIGITAL_IO\digital_io.h **** * @{
  88:C:/Workspaces/DAVE-4.4.2-64Bit_WS/DeflectionAnalyzer/Dave/Generated/DIGITAL_IO\digital_io.h **** */
  89:C:/Workspaces/DAVE-4.4.2-64Bit_WS/DeflectionAnalyzer/Dave/Generated/DIGITAL_IO\digital_io.h **** 
  90:C:/Workspaces/DAVE-4.4.2-64Bit_WS/DeflectionAnalyzer/Dave/Generated/DIGITAL_IO\digital_io.h **** /**
  91:C:/Workspaces/DAVE-4.4.2-64Bit_WS/DeflectionAnalyzer/Dave/Generated/DIGITAL_IO\digital_io.h **** * @brief Initialization status of DIGITAL_IO APP.
  92:C:/Workspaces/DAVE-4.4.2-64Bit_WS/DeflectionAnalyzer/Dave/Generated/DIGITAL_IO\digital_io.h **** */
  93:C:/Workspaces/DAVE-4.4.2-64Bit_WS/DeflectionAnalyzer/Dave/Generated/DIGITAL_IO\digital_io.h **** typedef enum DIGITAL_IO_STATUS
  94:C:/Workspaces/DAVE-4.4.2-64Bit_WS/DeflectionAnalyzer/Dave/Generated/DIGITAL_IO\digital_io.h **** {
  95:C:/Workspaces/DAVE-4.4.2-64Bit_WS/DeflectionAnalyzer/Dave/Generated/DIGITAL_IO\digital_io.h ****   DIGITAL_IO_STATUS_OK = 0U,/**< 0=Status OK */
  96:C:/Workspaces/DAVE-4.4.2-64Bit_WS/DeflectionAnalyzer/Dave/Generated/DIGITAL_IO\digital_io.h ****   DIGITAL_IO_STATUS_FAILURE = 1U/**< 1=Status Failed */
  97:C:/Workspaces/DAVE-4.4.2-64Bit_WS/DeflectionAnalyzer/Dave/Generated/DIGITAL_IO\digital_io.h **** } DIGITAL_IO_STATUS_t;
  98:C:/Workspaces/DAVE-4.4.2-64Bit_WS/DeflectionAnalyzer/Dave/Generated/DIGITAL_IO\digital_io.h **** 
  99:C:/Workspaces/DAVE-4.4.2-64Bit_WS/DeflectionAnalyzer/Dave/Generated/DIGITAL_IO\digital_io.h **** /**
 100:C:/Workspaces/DAVE-4.4.2-64Bit_WS/DeflectionAnalyzer/Dave/Generated/DIGITAL_IO\digital_io.h **** * @}
 101:C:/Workspaces/DAVE-4.4.2-64Bit_WS/DeflectionAnalyzer/Dave/Generated/DIGITAL_IO\digital_io.h **** */
 102:C:/Workspaces/DAVE-4.4.2-64Bit_WS/DeflectionAnalyzer/Dave/Generated/DIGITAL_IO\digital_io.h **** 
 103:C:/Workspaces/DAVE-4.4.2-64Bit_WS/DeflectionAnalyzer/Dave/Generated/DIGITAL_IO\digital_io.h **** /**************************************************************************************************
 104:C:/Workspaces/DAVE-4.4.2-64Bit_WS/DeflectionAnalyzer/Dave/Generated/DIGITAL_IO\digital_io.h ****  * DATA STRUCTURES
 105:C:/Workspaces/DAVE-4.4.2-64Bit_WS/DeflectionAnalyzer/Dave/Generated/DIGITAL_IO\digital_io.h ****  **************************************************************************************************
 106:C:/Workspaces/DAVE-4.4.2-64Bit_WS/DeflectionAnalyzer/Dave/Generated/DIGITAL_IO\digital_io.h **** /**
 107:C:/Workspaces/DAVE-4.4.2-64Bit_WS/DeflectionAnalyzer/Dave/Generated/DIGITAL_IO\digital_io.h **** * @ingroup DIGITAL_IO_datastructures
 108:C:/Workspaces/DAVE-4.4.2-64Bit_WS/DeflectionAnalyzer/Dave/Generated/DIGITAL_IO\digital_io.h **** * @{
 109:C:/Workspaces/DAVE-4.4.2-64Bit_WS/DeflectionAnalyzer/Dave/Generated/DIGITAL_IO\digital_io.h **** */
 110:C:/Workspaces/DAVE-4.4.2-64Bit_WS/DeflectionAnalyzer/Dave/Generated/DIGITAL_IO\digital_io.h **** 
 111:C:/Workspaces/DAVE-4.4.2-64Bit_WS/DeflectionAnalyzer/Dave/Generated/DIGITAL_IO\digital_io.h **** /**
 112:C:/Workspaces/DAVE-4.4.2-64Bit_WS/DeflectionAnalyzer/Dave/Generated/DIGITAL_IO\digital_io.h **** * @brief Initialization data structure of DIGITAL_IO APP
 113:C:/Workspaces/DAVE-4.4.2-64Bit_WS/DeflectionAnalyzer/Dave/Generated/DIGITAL_IO\digital_io.h **** */
 114:C:/Workspaces/DAVE-4.4.2-64Bit_WS/DeflectionAnalyzer/Dave/Generated/DIGITAL_IO\digital_io.h **** typedef struct DIGITAL_IO
 115:C:/Workspaces/DAVE-4.4.2-64Bit_WS/DeflectionAnalyzer/Dave/Generated/DIGITAL_IO\digital_io.h **** {
 116:C:/Workspaces/DAVE-4.4.2-64Bit_WS/DeflectionAnalyzer/Dave/Generated/DIGITAL_IO\digital_io.h ****   XMC_GPIO_PORT_t *const gpio_port;             /**< port number */
 117:C:/Workspaces/DAVE-4.4.2-64Bit_WS/DeflectionAnalyzer/Dave/Generated/DIGITAL_IO\digital_io.h ****   const XMC_GPIO_CONFIG_t gpio_config;          /**< mode, initial output level and pad driver stre
 118:C:/Workspaces/DAVE-4.4.2-64Bit_WS/DeflectionAnalyzer/Dave/Generated/DIGITAL_IO\digital_io.h ****   const uint8_t gpio_pin;                       /**< pin number */
 119:C:/Workspaces/DAVE-4.4.2-64Bit_WS/DeflectionAnalyzer/Dave/Generated/DIGITAL_IO\digital_io.h ****   const XMC_GPIO_HWCTRL_t hwctrl;               /**< Hardware port control */
 120:C:/Workspaces/DAVE-4.4.2-64Bit_WS/DeflectionAnalyzer/Dave/Generated/DIGITAL_IO\digital_io.h **** } DIGITAL_IO_t;
 121:C:/Workspaces/DAVE-4.4.2-64Bit_WS/DeflectionAnalyzer/Dave/Generated/DIGITAL_IO\digital_io.h **** 
 122:C:/Workspaces/DAVE-4.4.2-64Bit_WS/DeflectionAnalyzer/Dave/Generated/DIGITAL_IO\digital_io.h **** 
 123:C:/Workspaces/DAVE-4.4.2-64Bit_WS/DeflectionAnalyzer/Dave/Generated/DIGITAL_IO\digital_io.h **** /**
 124:C:/Workspaces/DAVE-4.4.2-64Bit_WS/DeflectionAnalyzer/Dave/Generated/DIGITAL_IO\digital_io.h **** * @}
 125:C:/Workspaces/DAVE-4.4.2-64Bit_WS/DeflectionAnalyzer/Dave/Generated/DIGITAL_IO\digital_io.h **** */
 126:C:/Workspaces/DAVE-4.4.2-64Bit_WS/DeflectionAnalyzer/Dave/Generated/DIGITAL_IO\digital_io.h **** 
 127:C:/Workspaces/DAVE-4.4.2-64Bit_WS/DeflectionAnalyzer/Dave/Generated/DIGITAL_IO\digital_io.h **** 
 128:C:/Workspaces/DAVE-4.4.2-64Bit_WS/DeflectionAnalyzer/Dave/Generated/DIGITAL_IO\digital_io.h **** /**************************************************************************************************
 129:C:/Workspaces/DAVE-4.4.2-64Bit_WS/DeflectionAnalyzer/Dave/Generated/DIGITAL_IO\digital_io.h ****  * API Prototypes
 130:C:/Workspaces/DAVE-4.4.2-64Bit_WS/DeflectionAnalyzer/Dave/Generated/DIGITAL_IO\digital_io.h ****  **************************************************************************************************
 131:C:/Workspaces/DAVE-4.4.2-64Bit_WS/DeflectionAnalyzer/Dave/Generated/DIGITAL_IO\digital_io.h **** 
 132:C:/Workspaces/DAVE-4.4.2-64Bit_WS/DeflectionAnalyzer/Dave/Generated/DIGITAL_IO\digital_io.h **** 
 133:C:/Workspaces/DAVE-4.4.2-64Bit_WS/DeflectionAnalyzer/Dave/Generated/DIGITAL_IO\digital_io.h **** #ifdef __cplusplus
 134:C:/Workspaces/DAVE-4.4.2-64Bit_WS/DeflectionAnalyzer/Dave/Generated/DIGITAL_IO\digital_io.h **** extern "C" {
 135:C:/Workspaces/DAVE-4.4.2-64Bit_WS/DeflectionAnalyzer/Dave/Generated/DIGITAL_IO\digital_io.h **** #endif
 136:C:/Workspaces/DAVE-4.4.2-64Bit_WS/DeflectionAnalyzer/Dave/Generated/DIGITAL_IO\digital_io.h **** 
 137:C:/Workspaces/DAVE-4.4.2-64Bit_WS/DeflectionAnalyzer/Dave/Generated/DIGITAL_IO\digital_io.h **** /**
 138:C:/Workspaces/DAVE-4.4.2-64Bit_WS/DeflectionAnalyzer/Dave/Generated/DIGITAL_IO\digital_io.h **** * @ingroup DIGITAL_IO_apidoc
 139:C:/Workspaces/DAVE-4.4.2-64Bit_WS/DeflectionAnalyzer/Dave/Generated/DIGITAL_IO\digital_io.h **** * @{
 140:C:/Workspaces/DAVE-4.4.2-64Bit_WS/DeflectionAnalyzer/Dave/Generated/DIGITAL_IO\digital_io.h **** */
 141:C:/Workspaces/DAVE-4.4.2-64Bit_WS/DeflectionAnalyzer/Dave/Generated/DIGITAL_IO\digital_io.h **** 
 142:C:/Workspaces/DAVE-4.4.2-64Bit_WS/DeflectionAnalyzer/Dave/Generated/DIGITAL_IO\digital_io.h **** 
 143:C:/Workspaces/DAVE-4.4.2-64Bit_WS/DeflectionAnalyzer/Dave/Generated/DIGITAL_IO\digital_io.h **** 
 144:C:/Workspaces/DAVE-4.4.2-64Bit_WS/DeflectionAnalyzer/Dave/Generated/DIGITAL_IO\digital_io.h **** /**
 145:C:/Workspaces/DAVE-4.4.2-64Bit_WS/DeflectionAnalyzer/Dave/Generated/DIGITAL_IO\digital_io.h **** * @brief Get DIGITAL_IO APP version
 146:C:/Workspaces/DAVE-4.4.2-64Bit_WS/DeflectionAnalyzer/Dave/Generated/DIGITAL_IO\digital_io.h **** * @return DAVE_APP_VERSION_t APP version information (major, minor and patch number)
 147:C:/Workspaces/DAVE-4.4.2-64Bit_WS/DeflectionAnalyzer/Dave/Generated/DIGITAL_IO\digital_io.h **** *
 148:C:/Workspaces/DAVE-4.4.2-64Bit_WS/DeflectionAnalyzer/Dave/Generated/DIGITAL_IO\digital_io.h **** * \par<b>Description: </b><br>
 149:C:/Workspaces/DAVE-4.4.2-64Bit_WS/DeflectionAnalyzer/Dave/Generated/DIGITAL_IO\digital_io.h **** * The function can be used to check application software compatibility with a
 150:C:/Workspaces/DAVE-4.4.2-64Bit_WS/DeflectionAnalyzer/Dave/Generated/DIGITAL_IO\digital_io.h **** * specific version of the APP.
 151:C:/Workspaces/DAVE-4.4.2-64Bit_WS/DeflectionAnalyzer/Dave/Generated/DIGITAL_IO\digital_io.h **** *
 152:C:/Workspaces/DAVE-4.4.2-64Bit_WS/DeflectionAnalyzer/Dave/Generated/DIGITAL_IO\digital_io.h **** * Example Usage:
 153:C:/Workspaces/DAVE-4.4.2-64Bit_WS/DeflectionAnalyzer/Dave/Generated/DIGITAL_IO\digital_io.h **** *
 154:C:/Workspaces/DAVE-4.4.2-64Bit_WS/DeflectionAnalyzer/Dave/Generated/DIGITAL_IO\digital_io.h **** * @code
 155:C:/Workspaces/DAVE-4.4.2-64Bit_WS/DeflectionAnalyzer/Dave/Generated/DIGITAL_IO\digital_io.h **** * #include <DAVE.h>
 156:C:/Workspaces/DAVE-4.4.2-64Bit_WS/DeflectionAnalyzer/Dave/Generated/DIGITAL_IO\digital_io.h **** *
 157:C:/Workspaces/DAVE-4.4.2-64Bit_WS/DeflectionAnalyzer/Dave/Generated/DIGITAL_IO\digital_io.h **** * int main(void)
 158:C:/Workspaces/DAVE-4.4.2-64Bit_WS/DeflectionAnalyzer/Dave/Generated/DIGITAL_IO\digital_io.h **** * {
 159:C:/Workspaces/DAVE-4.4.2-64Bit_WS/DeflectionAnalyzer/Dave/Generated/DIGITAL_IO\digital_io.h **** *   DAVE_STATUS_t init_status;
 160:C:/Workspaces/DAVE-4.4.2-64Bit_WS/DeflectionAnalyzer/Dave/Generated/DIGITAL_IO\digital_io.h **** *   DAVE_APP_VERSION_t version;
 161:C:/Workspaces/DAVE-4.4.2-64Bit_WS/DeflectionAnalyzer/Dave/Generated/DIGITAL_IO\digital_io.h **** *
 162:C:/Workspaces/DAVE-4.4.2-64Bit_WS/DeflectionAnalyzer/Dave/Generated/DIGITAL_IO\digital_io.h **** *   // Initialize DIGITAL_IO APP:
 163:C:/Workspaces/DAVE-4.4.2-64Bit_WS/DeflectionAnalyzer/Dave/Generated/DIGITAL_IO\digital_io.h **** *   // DIGITAL_IO_Init() is called from within DAVE_Init().
 164:C:/Workspaces/DAVE-4.4.2-64Bit_WS/DeflectionAnalyzer/Dave/Generated/DIGITAL_IO\digital_io.h **** *   init_status = DAVE_Init();
 165:C:/Workspaces/DAVE-4.4.2-64Bit_WS/DeflectionAnalyzer/Dave/Generated/DIGITAL_IO\digital_io.h **** *   if(init_status == DAVE_STATUS_SUCCESS)
 166:C:/Workspaces/DAVE-4.4.2-64Bit_WS/DeflectionAnalyzer/Dave/Generated/DIGITAL_IO\digital_io.h **** *   {
 167:C:/Workspaces/DAVE-4.4.2-64Bit_WS/DeflectionAnalyzer/Dave/Generated/DIGITAL_IO\digital_io.h **** *     version = DIGITAL_IO_GetAppVersion();
 168:C:/Workspaces/DAVE-4.4.2-64Bit_WS/DeflectionAnalyzer/Dave/Generated/DIGITAL_IO\digital_io.h **** *     if (version.major != 4U) {
 169:C:/Workspaces/DAVE-4.4.2-64Bit_WS/DeflectionAnalyzer/Dave/Generated/DIGITAL_IO\digital_io.h **** *     // Probably, not the right version.
 170:C:/Workspaces/DAVE-4.4.2-64Bit_WS/DeflectionAnalyzer/Dave/Generated/DIGITAL_IO\digital_io.h **** *     }
 171:C:/Workspaces/DAVE-4.4.2-64Bit_WS/DeflectionAnalyzer/Dave/Generated/DIGITAL_IO\digital_io.h **** *   }
 172:C:/Workspaces/DAVE-4.4.2-64Bit_WS/DeflectionAnalyzer/Dave/Generated/DIGITAL_IO\digital_io.h **** *
 173:C:/Workspaces/DAVE-4.4.2-64Bit_WS/DeflectionAnalyzer/Dave/Generated/DIGITAL_IO\digital_io.h **** *     // More code here
 174:C:/Workspaces/DAVE-4.4.2-64Bit_WS/DeflectionAnalyzer/Dave/Generated/DIGITAL_IO\digital_io.h **** *     while(1) {
 175:C:/Workspaces/DAVE-4.4.2-64Bit_WS/DeflectionAnalyzer/Dave/Generated/DIGITAL_IO\digital_io.h **** *
 176:C:/Workspaces/DAVE-4.4.2-64Bit_WS/DeflectionAnalyzer/Dave/Generated/DIGITAL_IO\digital_io.h **** *     }
 177:C:/Workspaces/DAVE-4.4.2-64Bit_WS/DeflectionAnalyzer/Dave/Generated/DIGITAL_IO\digital_io.h **** *     return (1);
 178:C:/Workspaces/DAVE-4.4.2-64Bit_WS/DeflectionAnalyzer/Dave/Generated/DIGITAL_IO\digital_io.h **** *  }
 179:C:/Workspaces/DAVE-4.4.2-64Bit_WS/DeflectionAnalyzer/Dave/Generated/DIGITAL_IO\digital_io.h **** * @endcode<BR>
 180:C:/Workspaces/DAVE-4.4.2-64Bit_WS/DeflectionAnalyzer/Dave/Generated/DIGITAL_IO\digital_io.h **** */
 181:C:/Workspaces/DAVE-4.4.2-64Bit_WS/DeflectionAnalyzer/Dave/Generated/DIGITAL_IO\digital_io.h **** 
 182:C:/Workspaces/DAVE-4.4.2-64Bit_WS/DeflectionAnalyzer/Dave/Generated/DIGITAL_IO\digital_io.h **** DAVE_APP_VERSION_t DIGITAL_IO_GetAppVersion(void);
 183:C:/Workspaces/DAVE-4.4.2-64Bit_WS/DeflectionAnalyzer/Dave/Generated/DIGITAL_IO\digital_io.h **** 
 184:C:/Workspaces/DAVE-4.4.2-64Bit_WS/DeflectionAnalyzer/Dave/Generated/DIGITAL_IO\digital_io.h **** /**
 185:C:/Workspaces/DAVE-4.4.2-64Bit_WS/DeflectionAnalyzer/Dave/Generated/DIGITAL_IO\digital_io.h **** *
 186:C:/Workspaces/DAVE-4.4.2-64Bit_WS/DeflectionAnalyzer/Dave/Generated/DIGITAL_IO\digital_io.h **** * @brief Function to initialize the port pin as per UI settings.
 187:C:/Workspaces/DAVE-4.4.2-64Bit_WS/DeflectionAnalyzer/Dave/Generated/DIGITAL_IO\digital_io.h **** * @param handler Pointer pointing to APP data structure. Refer @ref DIGITAL_IO_t for details.
 188:C:/Workspaces/DAVE-4.4.2-64Bit_WS/DeflectionAnalyzer/Dave/Generated/DIGITAL_IO\digital_io.h **** * @return DIGITAL_IO_STATUS_t DIGITAL_IO APP status. Refer @ref DIGITAL_IO_STATUS_t structure for d
 189:C:/Workspaces/DAVE-4.4.2-64Bit_WS/DeflectionAnalyzer/Dave/Generated/DIGITAL_IO\digital_io.h **** *
 190:C:/Workspaces/DAVE-4.4.2-64Bit_WS/DeflectionAnalyzer/Dave/Generated/DIGITAL_IO\digital_io.h **** * \par<b>Description:</b><br>
 191:C:/Workspaces/DAVE-4.4.2-64Bit_WS/DeflectionAnalyzer/Dave/Generated/DIGITAL_IO\digital_io.h **** * This function initializes GPIO port registers IOCR,PDISC,OMR,PDR/PHCR to configure pin direction,
 192:C:/Workspaces/DAVE-4.4.2-64Bit_WS/DeflectionAnalyzer/Dave/Generated/DIGITAL_IO\digital_io.h **** * and pad driver strength/hysteresis.
 193:C:/Workspaces/DAVE-4.4.2-64Bit_WS/DeflectionAnalyzer/Dave/Generated/DIGITAL_IO\digital_io.h **** *
 194:C:/Workspaces/DAVE-4.4.2-64Bit_WS/DeflectionAnalyzer/Dave/Generated/DIGITAL_IO\digital_io.h **** * \par<b>Related APIs:</b><BR>
 195:C:/Workspaces/DAVE-4.4.2-64Bit_WS/DeflectionAnalyzer/Dave/Generated/DIGITAL_IO\digital_io.h **** * None
 196:C:/Workspaces/DAVE-4.4.2-64Bit_WS/DeflectionAnalyzer/Dave/Generated/DIGITAL_IO\digital_io.h **** *
 197:C:/Workspaces/DAVE-4.4.2-64Bit_WS/DeflectionAnalyzer/Dave/Generated/DIGITAL_IO\digital_io.h **** * Example Usage:
 198:C:/Workspaces/DAVE-4.4.2-64Bit_WS/DeflectionAnalyzer/Dave/Generated/DIGITAL_IO\digital_io.h **** * @code
 199:C:/Workspaces/DAVE-4.4.2-64Bit_WS/DeflectionAnalyzer/Dave/Generated/DIGITAL_IO\digital_io.h **** * #include <DAVE.h>//Declarations from DAVE Code Generation (includes SFR declaration)
 200:C:/Workspaces/DAVE-4.4.2-64Bit_WS/DeflectionAnalyzer/Dave/Generated/DIGITAL_IO\digital_io.h **** * int main(void)
 201:C:/Workspaces/DAVE-4.4.2-64Bit_WS/DeflectionAnalyzer/Dave/Generated/DIGITAL_IO\digital_io.h **** * {
 202:C:/Workspaces/DAVE-4.4.2-64Bit_WS/DeflectionAnalyzer/Dave/Generated/DIGITAL_IO\digital_io.h **** *   DAVE_STATUS_t status;
 203:C:/Workspaces/DAVE-4.4.2-64Bit_WS/DeflectionAnalyzer/Dave/Generated/DIGITAL_IO\digital_io.h **** *   status = DAVE_Init();  //(DAVE_STATUS_t)DIGITAL_IO_Init(&DIGITAL_IO_0) is called within DAVE_In
 204:C:/Workspaces/DAVE-4.4.2-64Bit_WS/DeflectionAnalyzer/Dave/Generated/DIGITAL_IO\digital_io.h **** *   if(status == DAVE_STATUS_SUCCESS)
 205:C:/Workspaces/DAVE-4.4.2-64Bit_WS/DeflectionAnalyzer/Dave/Generated/DIGITAL_IO\digital_io.h **** *   {
 206:C:/Workspaces/DAVE-4.4.2-64Bit_WS/DeflectionAnalyzer/Dave/Generated/DIGITAL_IO\digital_io.h **** *     XMC_DEBUG("DAVE Apps initialization success\n");
 207:C:/Workspaces/DAVE-4.4.2-64Bit_WS/DeflectionAnalyzer/Dave/Generated/DIGITAL_IO\digital_io.h **** *   }
 208:C:/Workspaces/DAVE-4.4.2-64Bit_WS/DeflectionAnalyzer/Dave/Generated/DIGITAL_IO\digital_io.h **** *   else
 209:C:/Workspaces/DAVE-4.4.2-64Bit_WS/DeflectionAnalyzer/Dave/Generated/DIGITAL_IO\digital_io.h **** *   {
 210:C:/Workspaces/DAVE-4.4.2-64Bit_WS/DeflectionAnalyzer/Dave/Generated/DIGITAL_IO\digital_io.h **** *     XMC_DEBUG(("DAVE Apps initialization failed with status %d\n", status));
 211:C:/Workspaces/DAVE-4.4.2-64Bit_WS/DeflectionAnalyzer/Dave/Generated/DIGITAL_IO\digital_io.h **** *     while(1U)
 212:C:/Workspaces/DAVE-4.4.2-64Bit_WS/DeflectionAnalyzer/Dave/Generated/DIGITAL_IO\digital_io.h **** *     {
 213:C:/Workspaces/DAVE-4.4.2-64Bit_WS/DeflectionAnalyzer/Dave/Generated/DIGITAL_IO\digital_io.h **** *     }
 214:C:/Workspaces/DAVE-4.4.2-64Bit_WS/DeflectionAnalyzer/Dave/Generated/DIGITAL_IO\digital_io.h **** *   }
 215:C:/Workspaces/DAVE-4.4.2-64Bit_WS/DeflectionAnalyzer/Dave/Generated/DIGITAL_IO\digital_io.h **** *   //Placeholder for user application code. The while loop below can be replaced with user applica
 216:C:/Workspaces/DAVE-4.4.2-64Bit_WS/DeflectionAnalyzer/Dave/Generated/DIGITAL_IO\digital_io.h **** *   while(1U)
 217:C:/Workspaces/DAVE-4.4.2-64Bit_WS/DeflectionAnalyzer/Dave/Generated/DIGITAL_IO\digital_io.h **** *   {
 218:C:/Workspaces/DAVE-4.4.2-64Bit_WS/DeflectionAnalyzer/Dave/Generated/DIGITAL_IO\digital_io.h **** *   }
 219:C:/Workspaces/DAVE-4.4.2-64Bit_WS/DeflectionAnalyzer/Dave/Generated/DIGITAL_IO\digital_io.h **** *   return 1U;
 220:C:/Workspaces/DAVE-4.4.2-64Bit_WS/DeflectionAnalyzer/Dave/Generated/DIGITAL_IO\digital_io.h **** *  }
 221:C:/Workspaces/DAVE-4.4.2-64Bit_WS/DeflectionAnalyzer/Dave/Generated/DIGITAL_IO\digital_io.h **** *  @endcode
 222:C:/Workspaces/DAVE-4.4.2-64Bit_WS/DeflectionAnalyzer/Dave/Generated/DIGITAL_IO\digital_io.h **** */
 223:C:/Workspaces/DAVE-4.4.2-64Bit_WS/DeflectionAnalyzer/Dave/Generated/DIGITAL_IO\digital_io.h **** 
 224:C:/Workspaces/DAVE-4.4.2-64Bit_WS/DeflectionAnalyzer/Dave/Generated/DIGITAL_IO\digital_io.h **** DIGITAL_IO_STATUS_t DIGITAL_IO_Init(const DIGITAL_IO_t *const handler);
 225:C:/Workspaces/DAVE-4.4.2-64Bit_WS/DeflectionAnalyzer/Dave/Generated/DIGITAL_IO\digital_io.h **** 
 226:C:/Workspaces/DAVE-4.4.2-64Bit_WS/DeflectionAnalyzer/Dave/Generated/DIGITAL_IO\digital_io.h **** /**
 227:C:/Workspaces/DAVE-4.4.2-64Bit_WS/DeflectionAnalyzer/Dave/Generated/DIGITAL_IO\digital_io.h **** *
 228:C:/Workspaces/DAVE-4.4.2-64Bit_WS/DeflectionAnalyzer/Dave/Generated/DIGITAL_IO\digital_io.h **** * @brief Function to set port pin high.
 229:C:/Workspaces/DAVE-4.4.2-64Bit_WS/DeflectionAnalyzer/Dave/Generated/DIGITAL_IO\digital_io.h **** * @param handler Pointer pointing to APP data structure. Refer @ref DIGITAL_IO_t for details.
 230:C:/Workspaces/DAVE-4.4.2-64Bit_WS/DeflectionAnalyzer/Dave/Generated/DIGITAL_IO\digital_io.h **** * @return None
 231:C:/Workspaces/DAVE-4.4.2-64Bit_WS/DeflectionAnalyzer/Dave/Generated/DIGITAL_IO\digital_io.h **** *
 232:C:/Workspaces/DAVE-4.4.2-64Bit_WS/DeflectionAnalyzer/Dave/Generated/DIGITAL_IO\digital_io.h **** * \par<b>Description:</b><br>
 233:C:/Workspaces/DAVE-4.4.2-64Bit_WS/DeflectionAnalyzer/Dave/Generated/DIGITAL_IO\digital_io.h **** * This function configures port output modification register Pn_OMR, to make port pin to high level
 234:C:/Workspaces/DAVE-4.4.2-64Bit_WS/DeflectionAnalyzer/Dave/Generated/DIGITAL_IO\digital_io.h **** *
 235:C:/Workspaces/DAVE-4.4.2-64Bit_WS/DeflectionAnalyzer/Dave/Generated/DIGITAL_IO\digital_io.h **** * \par<b>Related APIs:</b><BR>
 236:C:/Workspaces/DAVE-4.4.2-64Bit_WS/DeflectionAnalyzer/Dave/Generated/DIGITAL_IO\digital_io.h **** *  DIGITAL_IO_SetOutputLow()
 237:C:/Workspaces/DAVE-4.4.2-64Bit_WS/DeflectionAnalyzer/Dave/Generated/DIGITAL_IO\digital_io.h **** *
 238:C:/Workspaces/DAVE-4.4.2-64Bit_WS/DeflectionAnalyzer/Dave/Generated/DIGITAL_IO\digital_io.h **** * Example Usage:
 239:C:/Workspaces/DAVE-4.4.2-64Bit_WS/DeflectionAnalyzer/Dave/Generated/DIGITAL_IO\digital_io.h **** * @code
 240:C:/Workspaces/DAVE-4.4.2-64Bit_WS/DeflectionAnalyzer/Dave/Generated/DIGITAL_IO\digital_io.h **** * #include <DAVE.h>//Declarations from DAVE Code Generation (includes SFR declaration)
 241:C:/Workspaces/DAVE-4.4.2-64Bit_WS/DeflectionAnalyzer/Dave/Generated/DIGITAL_IO\digital_io.h **** * int main(void)
 242:C:/Workspaces/DAVE-4.4.2-64Bit_WS/DeflectionAnalyzer/Dave/Generated/DIGITAL_IO\digital_io.h **** * {
 243:C:/Workspaces/DAVE-4.4.2-64Bit_WS/DeflectionAnalyzer/Dave/Generated/DIGITAL_IO\digital_io.h **** *   DAVE_STATUS_t status;
 244:C:/Workspaces/DAVE-4.4.2-64Bit_WS/DeflectionAnalyzer/Dave/Generated/DIGITAL_IO\digital_io.h **** *   status = DAVE_Init();  //(DAVE_STATUS_t)DIGITAL_IO_Init(&DIGITAL_IO_0) is called within DAVE_In
 245:C:/Workspaces/DAVE-4.4.2-64Bit_WS/DeflectionAnalyzer/Dave/Generated/DIGITAL_IO\digital_io.h **** *   if(status == DAVE_STATUS_SUCCESS)
 246:C:/Workspaces/DAVE-4.4.2-64Bit_WS/DeflectionAnalyzer/Dave/Generated/DIGITAL_IO\digital_io.h **** *   {
 247:C:/Workspaces/DAVE-4.4.2-64Bit_WS/DeflectionAnalyzer/Dave/Generated/DIGITAL_IO\digital_io.h **** *     XMC_DEBUG("DAVE Apps initialization success\n");
 248:C:/Workspaces/DAVE-4.4.2-64Bit_WS/DeflectionAnalyzer/Dave/Generated/DIGITAL_IO\digital_io.h **** *   }
 249:C:/Workspaces/DAVE-4.4.2-64Bit_WS/DeflectionAnalyzer/Dave/Generated/DIGITAL_IO\digital_io.h **** *   else
 250:C:/Workspaces/DAVE-4.4.2-64Bit_WS/DeflectionAnalyzer/Dave/Generated/DIGITAL_IO\digital_io.h **** *   {
 251:C:/Workspaces/DAVE-4.4.2-64Bit_WS/DeflectionAnalyzer/Dave/Generated/DIGITAL_IO\digital_io.h **** *     XMC_DEBUG(("DAVE Apps initialization failed with status %d\n", status));
 252:C:/Workspaces/DAVE-4.4.2-64Bit_WS/DeflectionAnalyzer/Dave/Generated/DIGITAL_IO\digital_io.h **** *     while(1U)
 253:C:/Workspaces/DAVE-4.4.2-64Bit_WS/DeflectionAnalyzer/Dave/Generated/DIGITAL_IO\digital_io.h **** *     {
 254:C:/Workspaces/DAVE-4.4.2-64Bit_WS/DeflectionAnalyzer/Dave/Generated/DIGITAL_IO\digital_io.h **** *     }
 255:C:/Workspaces/DAVE-4.4.2-64Bit_WS/DeflectionAnalyzer/Dave/Generated/DIGITAL_IO\digital_io.h **** *   }
 256:C:/Workspaces/DAVE-4.4.2-64Bit_WS/DeflectionAnalyzer/Dave/Generated/DIGITAL_IO\digital_io.h **** *   //Placeholder for user application code. The while loop below can be replaced with user applica
 257:C:/Workspaces/DAVE-4.4.2-64Bit_WS/DeflectionAnalyzer/Dave/Generated/DIGITAL_IO\digital_io.h **** *   DIGITAL_IO_SetOutputHigh(&DIGITAL_IO_0);
 258:C:/Workspaces/DAVE-4.4.2-64Bit_WS/DeflectionAnalyzer/Dave/Generated/DIGITAL_IO\digital_io.h **** *   while(1U)
 259:C:/Workspaces/DAVE-4.4.2-64Bit_WS/DeflectionAnalyzer/Dave/Generated/DIGITAL_IO\digital_io.h **** *   {
 260:C:/Workspaces/DAVE-4.4.2-64Bit_WS/DeflectionAnalyzer/Dave/Generated/DIGITAL_IO\digital_io.h **** *     // Add application code here
 261:C:/Workspaces/DAVE-4.4.2-64Bit_WS/DeflectionAnalyzer/Dave/Generated/DIGITAL_IO\digital_io.h **** *   }
 262:C:/Workspaces/DAVE-4.4.2-64Bit_WS/DeflectionAnalyzer/Dave/Generated/DIGITAL_IO\digital_io.h **** *
 263:C:/Workspaces/DAVE-4.4.2-64Bit_WS/DeflectionAnalyzer/Dave/Generated/DIGITAL_IO\digital_io.h **** *   return (1);
 264:C:/Workspaces/DAVE-4.4.2-64Bit_WS/DeflectionAnalyzer/Dave/Generated/DIGITAL_IO\digital_io.h **** * }
 265:C:/Workspaces/DAVE-4.4.2-64Bit_WS/DeflectionAnalyzer/Dave/Generated/DIGITAL_IO\digital_io.h **** *  @endcode
 266:C:/Workspaces/DAVE-4.4.2-64Bit_WS/DeflectionAnalyzer/Dave/Generated/DIGITAL_IO\digital_io.h **** */
 267:C:/Workspaces/DAVE-4.4.2-64Bit_WS/DeflectionAnalyzer/Dave/Generated/DIGITAL_IO\digital_io.h **** 
 268:C:/Workspaces/DAVE-4.4.2-64Bit_WS/DeflectionAnalyzer/Dave/Generated/DIGITAL_IO\digital_io.h **** __STATIC_INLINE void DIGITAL_IO_SetOutputHigh(const DIGITAL_IO_t *const handler)
 269:C:/Workspaces/DAVE-4.4.2-64Bit_WS/DeflectionAnalyzer/Dave/Generated/DIGITAL_IO\digital_io.h **** {
  75              	 .loc 2 269 0
  76              	 .cfi_startproc
  77              	 
  78              	 
  79 0000 80B5     	 push {r7,lr}
  80              	.LCFI6:
  81              	 .cfi_def_cfa_offset 8
  82              	 .cfi_offset 7,-8
  83              	 .cfi_offset 14,-4
  84 0002 82B0     	 sub sp,sp,#8
  85              	.LCFI7:
  86              	 .cfi_def_cfa_offset 16
  87 0004 00AF     	 add r7,sp,#0
  88              	.LCFI8:
  89              	 .cfi_def_cfa_register 7
  90 0006 7860     	 str r0,[r7,#4]
 270:C:/Workspaces/DAVE-4.4.2-64Bit_WS/DeflectionAnalyzer/Dave/Generated/DIGITAL_IO\digital_io.h ****   XMC_ASSERT("DIGITAL_IO_SetOutputHigh: handler null pointer", handler != NULL);
 271:C:/Workspaces/DAVE-4.4.2-64Bit_WS/DeflectionAnalyzer/Dave/Generated/DIGITAL_IO\digital_io.h ****   XMC_GPIO_SetOutputHigh(handler->gpio_port, handler->gpio_pin);
  91              	 .loc 2 271 0
  92 0008 7B68     	 ldr r3,[r7,#4]
  93 000a 1A68     	 ldr r2,[r3]
  94 000c 7B68     	 ldr r3,[r7,#4]
  95 000e 1B7C     	 ldrb r3,[r3,#16]
  96 0010 1046     	 mov r0,r2
  97 0012 1946     	 mov r1,r3
  98 0014 FFF7FEFF 	 bl XMC_GPIO_SetOutputHigh
 272:C:/Workspaces/DAVE-4.4.2-64Bit_WS/DeflectionAnalyzer/Dave/Generated/DIGITAL_IO\digital_io.h **** }
  99              	 .loc 2 272 0
 100 0018 0837     	 adds r7,r7,#8
 101              	.LCFI9:
 102              	 .cfi_def_cfa_offset 8
 103 001a BD46     	 mov sp,r7
 104              	.LCFI10:
 105              	 .cfi_def_cfa_register 13
 106              	 
 107 001c 80BD     	 pop {r7,pc}
 108              	 .cfi_endproc
 109              	.LFE306:
 111              	 .comm _msCounter,4,4
 112              	 .comm tft_tick,1,1
 113              	 .comm MeasurementCounter,4,4
 114              	 .comm InputBuffer1_idx,2,2
 115              	 .comm InputType,1,1
 116              	 .comm frameover,1,1
 117              	 .comm swipeDistance_X,4,4
 118              	 .comm swipeDistance_Y,4,4
 119              	 .comm keypadActive,1,1
 120              	 .comm keypadCurrentKey,1,1
 121              	 .comm keypadEvokedBy,1,1
 122 001e 00BF     	 .section .rodata
 123              	 .align 2
 124              	.LC0:
 125 0000 44415645 	 .ascii "DAVE APPs initialization failed\000"
 125      20415050 
 125      7320696E 
 125      69746961 
 125      6C697A61 
 126              	 .align 2
 127              	.LC1:
 128 0020 44415645 	 .ascii "DAVE APPs initialization successful\000"
 128      20415050 
 128      7320696E 
 128      69746961 
 128      6C697A61 
 129              	 .align 2
 130              	.LC2:
 131 0044 54465420 	 .ascii "TFT init done 1\000"
 131      696E6974 
 131      20646F6E 
 131      65203100 
 132              	 .align 2
 133              	.LC3:
 134 0054 54465420 	 .ascii "TFT init failed 0\000"
 134      696E6974 
 134      20666169 
 134      6C656420 
 134      3000
 135 0066 0000     	 .align 2
 136              	.LC4:
 137 0068 53746172 	 .ascii "Start Main Loop -----------------------------------"
 137      74204D61 
 137      696E204C 
 137      6F6F7020 
 137      2D2D2D2D 
 138 009b 2D2D00   	 .ascii "--\000"
 139 009e 0000     	 .section .text.main,"ax",%progbits
 140              	 .align 2
 141              	 .global main
 142              	 .thumb
 143              	 .thumb_func
 145              	main:
 146              	.LFB485:
 147              	 .file 3 "../main.c"
   1:../main.c     **** /*
   2:../main.c     ****  * main.c
   3:../main.c     ****  *  Created on: 2021 Feb 19 20:41:21
   4:../main.c     ****  *  Author: Rene Santeler @ MCI 2020/21
   5:../main.c     ****  *  Version: V0.2
   6:../main.c     ****  *  Comment:
   7:../main.c     ****  *  Parts are taken from DataAcquisitionAnalyzerPlatform_XMC4700_V1.6 MCI Project done with Stefan 
   8:../main.c     ****  */
   9:../main.c     **** 
  10:../main.c     **** #include <DAVE.h>                 // Declarations from DAVE Code Generation (includes SFR declarati
  11:../main.c     **** #include <stdio.h>
  12:../main.c     **** #include <stdint.h>
  13:../main.c     **** #include <math.h>
  14:../main.c     **** #include <globals.h>
  15:../main.c     **** #include <FT800-FT813-5.x/tft.h> // Implementation of display communication using the EVE Library o
  16:../main.c     **** #include <measure.h>
  17:../main.c     **** 
  18:../main.c     **** // This file is kept as clean as possible. All variables and functions used by more than one compon
  19:../main.c     **** // See "globals" for details on how everything works together
  20:../main.c     **** 
  21:../main.c     **** ///*  INTERRUPT HANDLER */
  22:../main.c     **** // SysTick_Handler in "globals"
  23:../main.c     **** // Adc_Measurement_Handler in "measure"
  24:../main.c     **** 
  25:../main.c     **** 
  26:../main.c     **** int main(void)
  27:../main.c     **** {
 148              	 .loc 3 27 0
 149              	 .cfi_startproc
 150              	 
 151              	 
 152 0000 80B5     	 push {r7,lr}
 153              	.LCFI11:
 154              	 .cfi_def_cfa_offset 8
 155              	 .cfi_offset 7,-8
 156              	 .cfi_offset 14,-4
 157 0002 82B0     	 sub sp,sp,#8
 158              	.LCFI12:
 159              	 .cfi_def_cfa_offset 16
 160 0004 00AF     	 add r7,sp,#0
 161              	.LCFI13:
 162              	 .cfi_def_cfa_register 7
  28:../main.c     **** 	// Make semihosting and printf back to DAVE possible if debug is enabled
  29:../main.c     **** 	#if defined (DEBUG_ENABLE)
  30:../main.c     **** 	initialise_monitor_handles();
 163              	 .loc 3 30 0
 164 0006 FFF7FEFF 	 bl initialise_monitor_handles
  31:../main.c     **** 	#endif
  32:../main.c     **** 
  33:../main.c     **** 	// Initialize environment
  34:../main.c     **** 	DAVE_STATUS_t status;
  35:../main.c     **** 	status = DAVE_Init();           /* Initialization of DAVE APPs  */
 165              	 .loc 3 35 0
 166 000a FFF7FEFF 	 bl DAVE_Init
 167 000e 0346     	 mov r3,r0
 168 0010 BB71     	 strb r3,[r7,#6]
  36:../main.c     **** 	if(status != DAVE_STATUS_SUCCESS) {
 169              	 .loc 3 36 0
 170 0012 BB79     	 ldrb r3,[r7,#6]
 171 0014 002B     	 cmp r3,#0
 172 0016 03D0     	 beq .L4
  37:../main.c     **** 		/* Placeholder for error handler code. The while loop below can be replaced with an user error ha
  38:../main.c     **** 		printf("DAVE APPs initialization failed\n");
 173              	 .loc 3 38 0
 174 0018 2148     	 ldr r0,.L12
 175 001a FFF7FEFF 	 bl puts
 176              	.L5:
  39:../main.c     **** 		while(1U){ }
 177              	 .loc 3 39 0 discriminator 1
 178 001e FEE7     	 b .L5
 179              	.L4:
  40:../main.c     **** 	}
  41:../main.c     **** 	else{ printf("DAVE APPs initialization successful\n"); }
 180              	 .loc 3 41 0
 181 0020 2048     	 ldr r0,.L12+4
 182 0022 FFF7FEFF 	 bl puts
  42:../main.c     **** 
  43:../main.c     **** 	// Arm-M internal interrupt init
  44:../main.c     **** 	//SysTick_Config(SystemCoreClock / 144);
  45:../main.c     **** 
  46:../main.c     **** 	// Counter for TFT_display init
  47:../main.c     **** 	uint8_t display_delay = 0;
 183              	 .loc 3 47 0
 184 0026 0023     	 movs r3,#0
 185 0028 FB71     	 strb r3,[r7,#7]
  48:../main.c     **** 
  49:../main.c     **** 	// Initial disable of CS pin
  50:../main.c     **** 	DIGITAL_IO_SetOutputHigh(&IO_DIO_DIGOUT_CS_TFT);
 186              	 .loc 3 50 0
 187 002a 1F48     	 ldr r0,.L12+8
 188 002c FFF7FEFF 	 bl DIGITAL_IO_SetOutputHigh
  51:../main.c     **** 
  52:../main.c     **** 	// Initialize Display
  53:../main.c     **** 	if( TFT_init() ){ printf("TFT init done 1\n"); }
 189              	 .loc 3 53 0
 190 0030 FFF7FEFF 	 bl TFT_init
 191 0034 0346     	 mov r3,r0
 192 0036 002B     	 cmp r3,#0
 193 0038 03D0     	 beq .L6
 194              	 .loc 3 53 0 is_stmt 0 discriminator 1
 195 003a 1C48     	 ldr r0,.L12+12
 196 003c FFF7FEFF 	 bl puts
 197 0040 02E0     	 b .L7
 198              	.L6:
  54:../main.c     **** 	else{ printf("TFT init failed 0\n"); }
 199              	 .loc 3 54 0 is_stmt 1
 200 0042 1B48     	 ldr r0,.L12+16
 201 0044 FFF7FEFF 	 bl puts
 202              	.L7:
  55:../main.c     **** 
  56:../main.c     **** 	// Show initial logo
  57:../main.c     **** 	TFT_display_init_screen();
 203              	 .loc 3 57 0
 204 0048 FFF7FEFF 	 bl TFT_display_init_screen
  58:../main.c     **** 	uint32_t now = SYSTIMER_GetTime();
 205              	 .loc 3 58 0
 206 004c FFF7FEFF 	 bl SYSTIMER_GetTime
 207 0050 3860     	 str r0,[r7]
  59:../main.c     **** 	while (SYSTIMER_GetTime() < now + (100*1000)) __NOP();
 208              	 .loc 3 59 0
 209 0052 00E0     	 b .L8
 210              	.L9:
 211              	 .loc 3 59 0 is_stmt 0 discriminator 2
 212              	
 213 0054 00BF     	 nop
 214              	
 215              	 .thumb
 216              	.L8:
 217              	 .loc 3 59 0 discriminator 1
 218 0056 FFF7FEFF 	 bl SYSTIMER_GetTime
 219 005a 0246     	 mov r2,r0
 220 005c 3B68     	 ldr r3,[r7]
 221 005e 03F5C333 	 add r3,r3,#99840
 222 0062 A033     	 adds r3,r3,#160
 223 0064 9A42     	 cmp r2,r3
 224 0066 F5D3     	 bcc .L9
  60:../main.c     **** 
  61:../main.c     **** 	// Main loop
  62:../main.c     **** 	printf("Start Main Loop -------------------------------------\n");
 225              	 .loc 3 62 0 is_stmt 1
 226 0068 1248     	 ldr r0,.L12+20
 227 006a FFF7FEFF 	 bl puts
 228              	.L11:
  63:../main.c     **** 	while(1U) {
  64:../main.c     **** 		if(tft_tick) { // Is set by Adc_Measurement_Handler at every interrupt of it
 229              	 .loc 3 64 0
 230 006e 124B     	 ldr r3,.L12+24
 231 0070 1B78     	 ldrb r3,[r3]
 232 0072 DBB2     	 uxtb r3,r3
 233 0074 002B     	 cmp r3,#0
 234 0076 11D0     	 beq .L10
  65:../main.c     **** 			// reset tick
  66:../main.c     **** 			tft_tick = 0;
 235              	 .loc 3 66 0
 236 0078 0F4B     	 ldr r3,.L12+24
 237 007a 0022     	 movs r2,#0
 238 007c 1A70     	 strb r2,[r3]
  67:../main.c     **** 
  68:../main.c     **** 			// Evaluate touches
  69:../main.c     **** 			TFT_touch();
 239              	 .loc 3 69 0
 240 007e FFF7FEFF 	 bl TFT_touch
  70:../main.c     **** 
  71:../main.c     **** 			// Evaluate and rewrite display list
  72:../main.c     **** 			display_delay++;
 241              	 .loc 3 72 0
 242 0082 FB79     	 ldrb r3,[r7,#7]
 243 0084 0133     	 adds r3,r3,#1
 244 0086 FB71     	 strb r3,[r7,#7]
  73:../main.c     **** 			if(MeasurementCounter % 4 == 0) { // 4*5ms=20ms,  1/20ms=50Hz refresh rate
 245              	 .loc 3 73 0
 246 0088 0C4B     	 ldr r3,.L12+28
 247 008a 1B68     	 ldr r3,[r3]
 248 008c 03F00303 	 and r3,r3,#3
 249 0090 002B     	 cmp r3,#0
 250 0092 03D1     	 bne .L10
  74:../main.c     **** 				display_delay = 0;
 251              	 .loc 3 74 0
 252 0094 0023     	 movs r3,#0
 253 0096 FB71     	 strb r3,[r7,#7]
  75:../main.c     **** 				TFT_display();
 254              	 .loc 3 75 0
 255 0098 FFF7FEFF 	 bl TFT_display
 256              	.L10:
  76:../main.c     **** 			}
  77:../main.c     **** 
  78:../main.c     **** 		}
  79:../main.c     **** 	}
 257              	 .loc 3 79 0
 258 009c E7E7     	 b .L11
 259              	.L13:
 260 009e 00BF     	 .align 2
 261              	.L12:
 262 00a0 00000000 	 .word .LC0
 263 00a4 20000000 	 .word .LC1
 264 00a8 00000000 	 .word IO_DIO_DIGOUT_CS_TFT
 265 00ac 44000000 	 .word .LC2
 266 00b0 54000000 	 .word .LC3
 267 00b4 68000000 	 .word .LC4
 268 00b8 00000000 	 .word tft_tick
 269 00bc 00000000 	 .word MeasurementCounter
 270              	 .cfi_endproc
 271              	.LFE485:
 273              	 .text
 274              	.Letext0:
 275              	 .file 4 "c:\\workspaces\\dave_4-4-2_64bit_2018-02-23\\dave-ide-4.4.2-64bit\\eclipse\\arm-gcc-49\\arm-none-eabi\\include\\machine\\_default_types.h"
 276              	 .file 5 "c:\\workspaces\\dave_4-4-2_64bit_2018-02-23\\dave-ide-4.4.2-64bit\\eclipse\\arm-gcc-49\\arm-none-eabi\\include\\stdint.h"
 277              	 .file 6 "C:/Workspaces/DAVE-4.4.2-64Bit_WS/DeflectionAnalyzer/Libraries/XMCLib/inc/xmc4_gpio.h"
 278              	 .file 7 "C:/Workspaces/DAVE-4.4.2-64Bit_WS/DeflectionAnalyzer/Libraries/XMCLib/inc/xmc_usic.h"
 279              	 .file 8 "C:/Workspaces/DAVE-4.4.2-64Bit_WS/DeflectionAnalyzer/Dave/Generated/DAVE.h"
 280              	 .file 9 "C:/Workspaces/DAVE-4.4.2-64Bit_WS/DeflectionAnalyzer/Libraries/CMSIS/Include/cmsis_gcc.h"
 281              	 .file 10 "C:/Workspaces/DAVE-4.4.2-64Bit_WS/DeflectionAnalyzer/Libraries/CMSIS/Include/core_cm4.h"
 282              	 .file 11 "C:/Workspaces/DAVE-4.4.2-64Bit_WS/DeflectionAnalyzer/Libraries/CMSIS/Infineon/XMC4700_series/Include/system_XMC4700.h"
 283              	 .file 12 "C:/Workspaces/DAVE-4.4.2-64Bit_WS/DeflectionAnalyzer/Dave/Generated/DIGITAL_IO/digital_io_extern.h"
 284              	 .file 13 "C:/Workspaces/DAVE-4.4.2-64Bit_WS/DeflectionAnalyzer/globals.h"
 285              	 .file 14 "C:/Workspaces/DAVE-4.4.2-64Bit_WS/DeflectionAnalyzer/Libraries/FT800-FT813-5.x/tft.h"