   1              	 .syntax unified
   2              	 .cpu cortex-m4
   3              	 .eabi_attribute 27,3
   4              	 .fpu fpv4-sp-d16
   5              	 .eabi_attribute 20,1
   6              	 .eabi_attribute 21,1
   7              	 .eabi_attribute 23,3
   8              	 .eabi_attribute 24,1
   9              	 .eabi_attribute 25,1
  10              	 .eabi_attribute 26,1
  11              	 .eabi_attribute 30,4
  12              	 .eabi_attribute 34,1
  13              	 .eabi_attribute 18,4
  14              	 .thumb
  15              	 .file "ff.c"
  16              	 .section .text.ld_dword,"ax",%progbits
  17              	 .align 1
  18              	 .thumb
  19              	 .thumb_func
  21              	ld_dword:
  22              	 
  23              	 
  24              	 
  25 0000 8378     	 ldrb r3,[r0,#2]
  26 0002 C278     	 ldrb r2,[r0,#3]
  27 0004 43EA0222 	 orr r2,r3,r2,lsl#8
  28 0008 4378     	 ldrb r3,[r0,#1]
  29 000a 0078     	 ldrb r0,[r0]
  30 000c 43EA0223 	 orr r3,r3,r2,lsl#8
  31 0010 40EA0320 	 orr r0,r0,r3,lsl#8
  32 0014 7047     	 bx lr
  34              	 .section .text.st_dword,"ax",%progbits
  35              	 .align 1
  36              	 .thumb
  37              	 .thumb_func
  39              	st_dword:
  40              	 
  41              	 
  42              	 
  43 0000 0B0A     	 lsrs r3,r1,#8
  44 0002 0170     	 strb r1,[r0]
  45 0004 4370     	 strb r3,[r0,#1]
  46 0006 0B0C     	 lsrs r3,r1,#16
  47 0008 090E     	 lsrs r1,r1,#24
  48 000a 8370     	 strb r3,[r0,#2]
  49 000c C170     	 strb r1,[r0,#3]
  50 000e 7047     	 bx lr
  52              	 .section .text.mem_cmp,"ax",%progbits
  53              	 .align 1
  54              	 .thumb
  55              	 .thumb_func
  57              	mem_cmp:
  58              	 
  59              	 
  60 0000 30B5     	 push {r4,r5,lr}
  61 0002 0446     	 mov r4,r0
  62              	.L5:
  63 0004 14F8013B 	 ldrb r3,[r4],#1
  64 0008 11F8015B 	 ldrb r5,[r1],#1
  65 000c 5B1B     	 subs r3,r3,r5
  66 000e 151B     	 subs r5,r2,r4
  67 0010 E842     	 cmn r0,r5
  68 0012 01D0     	 beq .L9
  69 0014 002B     	 cmp r3,#0
  70 0016 F5D0     	 beq .L5
  71              	.L9:
  72 0018 1846     	 mov r0,r3
  73 001a 30BD     	 pop {r4,r5,pc}
  75              	 .section .text.chk_lock,"ax",%progbits
  76              	 .align 1
  77              	 .thumb
  78              	 .thumb_func
  80              	chk_lock:
  81              	 
  82              	 
  83 0000 0022     	 movs r2,#0
  84 0002 164B     	 ldr r3,.L29
  85 0004 70B5     	 push {r4,r5,r6,lr}
  86 0006 1446     	 mov r4,r2
  87              	.L14:
  88 0008 53F8045C 	 ldr r5,[r3,#-4]
  89 000c 5DB1     	 cbz r5,.L19
  90 000e 0668     	 ldr r6,[r0]
  91 0010 B542     	 cmp r5,r6
  92 0012 09D1     	 bne .L12
  93 0014 1E68     	 ldr r6,[r3]
  94 0016 8568     	 ldr r5,[r0,#8]
  95 0018 AE42     	 cmp r6,r5
  96 001a 05D1     	 bne .L12
  97 001c 5E68     	 ldr r6,[r3,#4]
  98 001e 4569     	 ldr r5,[r0,#20]
  99 0020 AE42     	 cmp r6,r5
 100 0022 01D1     	 bne .L12
 101 0024 04E0     	 b .L27
 102              	.L19:
 103 0026 0122     	 movs r2,#1
 104              	.L12:
 105 0028 1033     	 adds r3,r3,#16
 106 002a 74B9     	 cbnz r4,.L24
 107 002c 0124     	 movs r4,#1
 108 002e EBE7     	 b .L14
 109              	.L27:
 110 0030 49B9     	 cbnz r1,.L23
 111 0032 0B4B     	 ldr r3,.L29+4
 112 0034 03EB0414 	 add r4,r3,r4,lsl#4
 113 0038 A389     	 ldrh r3,[r4,#12]
 114 003a B3F5807F 	 cmp r3,#256
 115 003e 14BF     	 ite ne
 116 0040 0020     	 movne r0,#0
 117 0042 1020     	 moveq r0,#16
 118 0044 70BD     	 pop {r4,r5,r6,pc}
 119              	.L23:
 120 0046 1020     	 movs r0,#16
 121 0048 70BD     	 pop {r4,r5,r6,pc}
 122              	.L24:
 123 004a 22B9     	 cbnz r2,.L28
 124 004c 0229     	 cmp r1,#2
 125 004e 0CBF     	 ite eq
 126 0050 0020     	 moveq r0,#0
 127 0052 1220     	 movne r0,#18
 128 0054 70BD     	 pop {r4,r5,r6,pc}
 129              	.L28:
 130 0056 0020     	 movs r0,#0
 131 0058 70BD     	 pop {r4,r5,r6,pc}
 132              	.L30:
 133 005a 00BF     	 .align 2
 134              	.L29:
 135 005c 04000000 	 .word .LANCHOR0+4
 136 0060 00000000 	 .word .LANCHOR0
 138              	 .section .text.inc_lock,"ax",%progbits
 139              	 .align 1
 140              	 .thumb
 141              	 .thumb_func
 143              	inc_lock:
 144              	 
 145              	 
 146 0000 70B5     	 push {r4,r5,r6,lr}
 147 0002 224A     	 ldr r2,.L49
 148 0004 0668     	 ldr r6,[r0]
 149 0006 0023     	 movs r3,#0
 150              	.L34:
 151 0008 52F8044C 	 ldr r4,[r2,#-4]
 152 000c B442     	 cmp r4,r6
 153 000e 07D1     	 bne .L32
 154 0010 1568     	 ldr r5,[r2]
 155 0012 8468     	 ldr r4,[r0,#8]
 156 0014 A542     	 cmp r5,r4
 157 0016 03D1     	 bne .L32
 158 0018 5568     	 ldr r5,[r2,#4]
 159 001a 4469     	 ldr r4,[r0,#20]
 160 001c A542     	 cmp r5,r4
 161 001e 05D0     	 beq .L33
 162              	.L32:
 163 0020 012B     	 cmp r3,#1
 164 0022 02F11002 	 add r2,r2,#16
 165 0026 09D0     	 beq .L46
 166 0028 0123     	 movs r3,#1
 167 002a EDE7     	 b .L34
 168              	.L33:
 169 002c 0029     	 cmp r1,#0
 170 002e 18DD     	 ble .L38
 171 0030 174A     	 ldr r2,.L49+4
 172 0032 02EB0312 	 add r2,r2,r3,lsl#4
 173 0036 9289     	 ldrh r2,[r2,#12]
 174 0038 DAB1     	 cbz r2,.L45
 175 003a 22E0     	 b .L43
 176              	.L46:
 177 003c 144A     	 ldr r2,.L49+4
 178 003e 1468     	 ldr r4,[r2]
 179 0040 1546     	 mov r5,r2
 180 0042 04B3     	 cbz r4,.L48
 181 0044 1269     	 ldr r2,[r2,#16]
 182 0046 E2B9     	 cbnz r2,.L43
 183              	.L37:
 184 0048 1C01     	 lsls r4,r3,#4
 185 004a 2A19     	 adds r2,r5,r4
 186 004c 2E51     	 str r6,[r5,r4]
 187 004e 8468     	 ldr r4,[r0,#8]
 188 0050 4069     	 ldr r0,[r0,#20]
 189 0052 5460     	 str r4,[r2,#4]
 190 0054 9060     	 str r0,[r2,#8]
 191 0056 02F10804 	 add r4,r2,#8
 192 005a 0022     	 movs r2,#0
 193 005c 9142     	 cmp r1,r2
 194 005e A280     	 strh r2,[r4,#4]
 195 0060 07DC     	 bgt .L45
 196              	.L38:
 197 0062 31B9     	 cbnz r1,.L45
 198 0064 0A4A     	 ldr r2,.L49+4
 199 0066 02EB0312 	 add r2,r2,r3,lsl#4
 200 006a 9289     	 ldrh r2,[r2,#12]
 201 006c 0132     	 adds r2,r2,#1
 202 006e 92B2     	 uxth r2,r2
 203 0070 01E0     	 b .L39
 204              	.L45:
 205 0072 4FF48072 	 mov r2,#256
 206              	.L39:
 207 0076 0649     	 ldr r1,.L49+4
 208 0078 01EB0311 	 add r1,r1,r3,lsl#4
 209 007c 581C     	 adds r0,r3,#1
 210 007e 8A81     	 strh r2,[r1,#12]
 211 0080 70BD     	 pop {r4,r5,r6,pc}
 212              	.L43:
 213 0082 0020     	 movs r0,#0
 214 0084 70BD     	 pop {r4,r5,r6,pc}
 215              	.L48:
 216 0086 2346     	 mov r3,r4
 217 0088 DEE7     	 b .L37
 218              	.L50:
 219 008a 00BF     	 .align 2
 220              	.L49:
 221 008c 04000000 	 .word .LANCHOR0+4
 222 0090 00000000 	 .word .LANCHOR0
 224              	 .section .text.dec_lock,"ax",%progbits
 225              	 .align 1
 226              	 .thumb
 227              	 .thumb_func
 229              	dec_lock:
 230              	 
 231              	 
 232              	 
 233 0000 0138     	 subs r0,r0,#1
 234 0002 0128     	 cmp r0,#1
 235 0004 0FD8     	 bhi .L54
 236 0006 0A4A     	 ldr r2,.L57
 237 0008 0301     	 lsls r3,r0,#4
 238 000a D118     	 adds r1,r2,r3
 239 000c 8989     	 ldrh r1,[r1,#12]
 240 000e 21F48070 	 bic r0,r1,#256
 241 0012 80B2     	 uxth r0,r0
 242 0014 08B1     	 cbz r0,.L53
 243 0016 481E     	 subs r0,r1,#1
 244 0018 80B2     	 uxth r0,r0
 245              	.L53:
 246 001a 1A44     	 add r2,r2,r3
 247 001c 9081     	 strh r0,[r2,#12]
 248 001e 20B9     	 cbnz r0,.L56
 249 0020 034A     	 ldr r2,.L57
 250 0022 D050     	 str r0,[r2,r3]
 251 0024 7047     	 bx lr
 252              	.L54:
 253 0026 0220     	 movs r0,#2
 254 0028 7047     	 bx lr
 255              	.L56:
 256 002a 0020     	 movs r0,#0
 257 002c 7047     	 bx lr
 258              	.L58:
 259 002e 00BF     	 .align 2
 260              	.L57:
 261 0030 00000000 	 .word .LANCHOR0
 263              	 .section .text.clst2sect,"ax",%progbits
 264              	 .align 1
 265              	 .thumb
 266              	 .thumb_func
 268              	clst2sect:
 269              	 
 270              	 
 271              	 
 272 0000 8369     	 ldr r3,[r0,#24]
 273 0002 0239     	 subs r1,r1,#2
 274 0004 023B     	 subs r3,r3,#2
 275 0006 9942     	 cmp r1,r3
 276 0008 3DBF     	 ittte cc
 277 000a 4289     	 ldrhcc r2,[r0,#10]
 278 000c C36A     	 ldrcc r3,[r0,#44]
 279 000e 02FB0130 	 mlacc r0,r2,r1,r3
 280 0012 0020     	 movcs r0,#0
 281 0014 7047     	 bx lr
 283              	 .section .text.get_ldnumber,"ax",%progbits
 284              	 .align 1
 285              	 .thumb
 286              	 .thumb_func
 288              	get_ldnumber:
 289              	 
 290              	 
 291 0000 0368     	 ldr r3,[r0]
 292 0002 10B5     	 push {r4,lr}
 293 0004 BBB1     	 cbz r3,.L74
 294 0006 1A46     	 mov r2,r3
 295              	.L65:
 296 0008 12F8011B 	 ldrb r1,[r2],#1
 297 000c 2029     	 cmp r1,#32
 298 000e 02D9     	 bls .L64
 299 0010 3A29     	 cmp r1,#58
 300 0012 F9D1     	 bne .L65
 301 0014 02E0     	 b .L75
 302              	.L64:
 303 0016 094B     	 ldr r3,.L76
 304 0018 1878     	 ldrb r0,[r3]
 305 001a 10BD     	 pop {r4,pc}
 306              	.L75:
 307 001c 1978     	 ldrb r1,[r3]
 308 001e A1F13004 	 sub r4,r1,#48
 309 0022 092C     	 cmp r4,#9
 310 0024 07D8     	 bhi .L74
 311 0026 0233     	 adds r3,r3,#2
 312 0028 9342     	 cmp r3,r2
 313 002a 04D1     	 bne .L74
 314 002c 3029     	 cmp r1,#48
 315 002e 02D1     	 bne .L74
 316 0030 0260     	 str r2,[r0]
 317 0032 0020     	 movs r0,#0
 318 0034 10BD     	 pop {r4,pc}
 319              	.L74:
 320 0036 4FF0FF30 	 mov r0,#-1
 321 003a 10BD     	 pop {r4,pc}
 322              	.L77:
 323              	 .align 2
 324              	.L76:
 325 003c 00000000 	 .word .LANCHOR1
 327              	 .section .text.validate,"ax",%progbits
 328              	 .align 1
 329              	 .thumb
 330              	 .thumb_func
 332              	validate:
 333              	 
 334              	 
 335 0000 38B5     	 push {r3,r4,r5,lr}
 336 0002 0D46     	 mov r5,r1
 337 0004 0446     	 mov r4,r0
 338 0006 78B1     	 cbz r0,.L79
 339 0008 0368     	 ldr r3,[r0]
 340 000a 6BB1     	 cbz r3,.L79
 341 000c 1A78     	 ldrb r2,[r3]
 342 000e 5AB1     	 cbz r2,.L79
 343 0010 8188     	 ldrh r1,[r0,#4]
 344 0012 DA88     	 ldrh r2,[r3,#6]
 345 0014 9142     	 cmp r1,r2
 346 0016 07D1     	 bne .L79
 347 0018 5878     	 ldrb r0,[r3,#1]
 348 001a FFF7FEFF 	 bl disk_status
 349 001e 10F00100 	 ands r0,r0,#1
 350 0022 01D1     	 bne .L79
 351 0024 2368     	 ldr r3,[r4]
 352 0026 01E0     	 b .L81
 353              	.L79:
 354 0028 0920     	 movs r0,#9
 355 002a 0023     	 movs r3,#0
 356              	.L81:
 357 002c 2B60     	 str r3,[r5]
 358 002e 38BD     	 pop {r3,r4,r5,pc}
 360              	 .section .text.mem_cpy.part.0,"ax",%progbits
 361              	 .align 1
 362              	 .thumb
 363              	 .thumb_func
 365              	mem_cpy.part.0:
 366              	 
 367              	 
 368              	 
 369 0000 0138     	 subs r0,r0,#1
 370 0002 0A44     	 add r2,r2,r1
 371              	.L93:
 372 0004 11F8013B 	 ldrb r3,[r1],#1
 373 0008 00F8013F 	 strb r3,[r0,#1]!
 374 000c 9142     	 cmp r1,r2
 375 000e F9D1     	 bne .L93
 376 0010 7047     	 bx lr
 378              	 .section .text.ld_clust.isra.3,"ax",%progbits
 379              	 .align 1
 380              	 .thumb
 381              	 .thumb_func
 383              	ld_clust.isra.3:
 384              	 
 385              	 
 386              	 
 387 0000 CA7E     	 ldrb r2,[r1,#27]
 388 0002 8B7E     	 ldrb r3,[r1,#26]
 389 0004 0328     	 cmp r0,#3
 390 0006 43EA0223 	 orr r3,r3,r2,lsl#8
 391 000a 01BF     	 itttt eq
 392 000c 487D     	 ldrbeq r0,[r1,#21]
 393 000e 0A7D     	 ldrbeq r2,[r1,#20]
 394 0010 42EA0022 	 orreq r2,r2,r0,lsl#8
 395 0014 43EA0243 	 orreq r3,r3,r2,lsl#16
 396 0018 1846     	 mov r0,r3
 397 001a 7047     	 bx lr
 399              	 .section .text.st_clust.isra.4,"ax",%progbits
 400              	 .align 1
 401              	 .thumb
 402              	 .thumb_func
 404              	st_clust.isra.4:
 405              	 
 406              	 
 407              	 
 408 0000 C2F30723 	 ubfx r3,r2,#8,#8
 409 0004 8A76     	 strb r2,[r1,#26]
 410 0006 CB76     	 strb r3,[r1,#27]
 411 0008 0378     	 ldrb r3,[r0]
 412 000a 032B     	 cmp r3,#3
 413 000c 01BF     	 itttt eq
 414 000e 120C     	 lsreq r2,r2,#16
 415 0010 0A75     	 strbeq r2,[r1,#20]
 416 0012 120A     	 lsreq r2,r2,#8
 417 0014 4A75     	 strbeq r2,[r1,#21]
 418 0016 7047     	 bx lr
 420              	 .section .text.get_fileinfo.part.5,"ax",%progbits
 421              	 .align 1
 422              	 .thumb
 423              	 .thumb_func
 425              	get_fileinfo.part.5:
 426              	 
 427              	 
 428 0000 0023     	 movs r3,#0
 429 0002 70B5     	 push {r4,r5,r6,lr}
 430 0004 1A46     	 mov r2,r3
 431 0006 0C46     	 mov r4,r1
 432              	.L103:
 433 0008 056A     	 ldr r5,[r0,#32]
 434 000a 511C     	 adds r1,r2,#1
 435 000c AA5C     	 ldrb r2,[r5,r2]
 436 000e 202A     	 cmp r2,#32
 437 0010 0BD0     	 beq .L100
 438 0012 052A     	 cmp r2,#5
 439 0014 08BF     	 it eq
 440 0016 E522     	 moveq r2,#229
 441 0018 0929     	 cmp r1,#9
 442 001a 01BF     	 itttt eq
 443 001c E518     	 addeq r5,r4,r3
 444 001e 2E26     	 moveq r6,#46
 445 0020 0133     	 addeq r3,r3,#1
 446 0022 6E72     	 strbeq r6,[r5,#9]
 447 0024 E518     	 adds r5,r4,r3
 448 0026 0133     	 adds r3,r3,#1
 449 0028 6A72     	 strb r2,[r5,#9]
 450              	.L100:
 451 002a 0B29     	 cmp r1,#11
 452 002c 0A46     	 mov r2,r1
 453 002e EBD1     	 bne .L103
 454 0030 2344     	 add r3,r3,r4
 455 0032 0022     	 movs r2,#0
 456 0034 5A72     	 strb r2,[r3,#9]
 457 0036 036A     	 ldr r3,[r0,#32]
 458 0038 DB7A     	 ldrb r3,[r3,#11]
 459 003a 2372     	 strb r3,[r4,#8]
 460 003c 056A     	 ldr r5,[r0,#32]
 461 003e 05F11C00 	 add r0,r5,#28
 462 0042 FFF7FEFF 	 bl ld_dword
 463 0046 2060     	 str r0,[r4]
 464 0048 EA7D     	 ldrb r2,[r5,#23]
 465 004a AB7D     	 ldrb r3,[r5,#22]
 466 004c 43EA0223 	 orr r3,r3,r2,lsl#8
 467 0050 E380     	 strh r3,[r4,#6]
 468 0052 6A7E     	 ldrb r2,[r5,#25]
 469 0054 2B7E     	 ldrb r3,[r5,#24]
 470 0056 43EA0223 	 orr r3,r3,r2,lsl#8
 471 005a A380     	 strh r3,[r4,#4]
 472 005c 70BD     	 pop {r4,r5,r6,pc}
 474              	 .section .text.sync_window.part.6,"ax",%progbits
 475              	 .align 1
 476              	 .thumb
 477              	 .thumb_func
 479              	sync_window.part.6:
 480              	 
 481              	 
 482 0000 F8B5     	 push {r3,r4,r5,r6,r7,lr}
 483 0002 0546     	 mov r5,r0
 484 0004 00F13407 	 add r7,r0,#52
 485 0008 3946     	 mov r1,r7
 486 000a 4078     	 ldrb r0,[r0,#1]
 487 000c 2A6B     	 ldr r2,[r5,#48]
 488 000e 0123     	 movs r3,#1
 489 0010 FFF7FEFF 	 bl disk_write
 490 0014 0446     	 mov r4,r0
 491 0016 80B9     	 cbnz r0,.L110
 492 0018 2A6B     	 ldr r2,[r5,#48]
 493 001a 6B6A     	 ldr r3,[r5,#36]
 494 001c EE69     	 ldr r6,[r5,#28]
 495 001e E870     	 strb r0,[r5,#3]
 496 0020 D31A     	 subs r3,r2,r3
 497 0022 B342     	 cmp r3,r6
 498 0024 0BD2     	 bcs .L112
 499 0026 AB78     	 ldrb r3,[r5,#2]
 500 0028 022B     	 cmp r3,#2
 501 002a 08D1     	 bne .L112
 502 002c 6878     	 ldrb r0,[r5,#1]
 503 002e 3946     	 mov r1,r7
 504 0030 3244     	 add r2,r2,r6
 505 0032 0123     	 movs r3,#1
 506 0034 FFF7FEFF 	 bl disk_write
 507 0038 01E0     	 b .L112
 508              	.L110:
 509 003a 0120     	 movs r0,#1
 510 003c F8BD     	 pop {r3,r4,r5,r6,r7,pc}
 511              	.L112:
 512 003e 2046     	 mov r0,r4
 513 0040 F8BD     	 pop {r3,r4,r5,r6,r7,pc}
 515              	 .section .text.move_window,"ax",%progbits
 516              	 .align 1
 517              	 .thumb
 518              	 .thumb_func
 520              	move_window:
 521              	 
 522              	 
 523 0000 38B5     	 push {r3,r4,r5,lr}
 524 0002 036B     	 ldr r3,[r0,#48]
 525 0004 9942     	 cmp r1,r3
 526 0006 0446     	 mov r4,r0
 527 0008 0D46     	 mov r5,r1
 528 000a 14D0     	 beq .L118
 529 000c C378     	 ldrb r3,[r0,#3]
 530 000e 73B9     	 cbnz r3,.L115
 531              	.L117:
 532 0010 2A46     	 mov r2,r5
 533 0012 6078     	 ldrb r0,[r4,#1]
 534 0014 04F13401 	 add r1,r4,#52
 535 0018 0123     	 movs r3,#1
 536 001a FFF7FEFF 	 bl disk_read
 537 001e 0028     	 cmp r0,#0
 538 0020 16BF     	 itet ne
 539 0022 4FF0FF35 	 movne r5,#-1
 540 0026 0020     	 moveq r0,#0
 541 0028 0120     	 movne r0,#1
 542 002a 2563     	 str r5,[r4,#48]
 543 002c 38BD     	 pop {r3,r4,r5,pc}
 544              	.L115:
 545 002e FFF7FEFF 	 bl sync_window.part.6
 546 0032 08B9     	 cbnz r0,.L114
 547 0034 ECE7     	 b .L117
 548              	.L118:
 549 0036 0020     	 movs r0,#0
 550              	.L114:
 551 0038 38BD     	 pop {r3,r4,r5,pc}
 553              	 .section .text.check_fs,"ax",%progbits
 554              	 .align 1
 555              	 .thumb
 556              	 .thumb_func
 558              	check_fs:
 559              	 
 560              	 
 561 0000 0023     	 movs r3,#0
 562 0002 10B5     	 push {r4,lr}
 563 0004 C370     	 strb r3,[r0,#3]
 564 0006 4FF0FF33 	 mov r3,#-1
 565 000a 0363     	 str r3,[r0,#48]
 566 000c 0446     	 mov r4,r0
 567 000e FFF7FEFF 	 bl move_window
 568 0012 18BB     	 cbnz r0,.L126
 569 0014 94F83322 	 ldrb r2,[r4,#563]
 570 0018 94F83232 	 ldrb r3,[r4,#562]
 571 001c 43EA0223 	 orr r3,r3,r2,lsl#8
 572 0020 4AF65522 	 movw r2,#43605
 573 0024 9342     	 cmp r3,r2
 574 0026 1BD1     	 bne .L127
 575 0028 94F83430 	 ldrb r3,[r4,#52]
 576 002c EB2B     	 cmp r3,#235
 577 002e 03D0     	 beq .L125
 578 0030 1833     	 adds r3,r3,#24
 579 0032 DBB2     	 uxtb r3,r3
 580 0034 012B     	 cmp r3,#1
 581 0036 15D8     	 bhi .L128
 582              	.L125:
 583 0038 04F16A00 	 add r0,r4,#106
 584 003c 0A49     	 ldr r1,.L134
 585 003e 0322     	 movs r2,#3
 586 0040 FFF7FEFF 	 bl mem_cmp
 587 0044 78B1     	 cbz r0,.L124
 588 0046 04F18600 	 add r0,r4,#134
 589 004a 0849     	 ldr r1,.L134+4
 590 004c 0522     	 movs r2,#5
 591 004e FFF7FEFF 	 bl mem_cmp
 592 0052 0028     	 cmp r0,#0
 593 0054 14BF     	 ite ne
 594 0056 0220     	 movne r0,#2
 595 0058 0020     	 moveq r0,#0
 596 005a 10BD     	 pop {r4,pc}
 597              	.L126:
 598 005c 0420     	 movs r0,#4
 599 005e 10BD     	 pop {r4,pc}
 600              	.L127:
 601 0060 0320     	 movs r0,#3
 602 0062 10BD     	 pop {r4,pc}
 603              	.L128:
 604 0064 0220     	 movs r0,#2
 605              	.L124:
 606 0066 10BD     	 pop {r4,pc}
 607              	.L135:
 608              	 .align 2
 609              	.L134:
 610 0068 00000000 	 .word .LC0
 611 006c 04000000 	 .word .LC1
 613              	 .section .text.find_volume,"ax",%progbits
 614              	 .align 1
 615              	 .thumb
 616              	 .thumb_func
 618              	find_volume:
 619              	 
 620              	 
 621 0000 2DE9F043 	 push {r4,r5,r6,r7,r8,r9,lr}
 622 0004 0023     	 movs r3,#0
 623 0006 85B0     	 sub sp,sp,#20
 624 0008 0B60     	 str r3,[r1]
 625 000a 0F46     	 mov r7,r1
 626 000c 1546     	 mov r5,r2
 627 000e FFF7FEFF 	 bl get_ldnumber
 628 0012 061E     	 subs r6,r0,#0
 629 0014 C0F23081 	 blt .L160
 630 0018 9F4B     	 ldr r3,.L195
 631 001a 53F82640 	 ldr r4,[r3,r6,lsl#2]
 632 001e 002C     	 cmp r4,#0
 633 0020 00F02C81 	 beq .L161
 634 0024 3C60     	 str r4,[r7]
 635 0026 2378     	 ldrb r3,[r4]
 636 0028 05F0FE05 	 and r5,r5,#254
 637 002c 83B1     	 cbz r3,.L138
 638 002e 6078     	 ldrb r0,[r4,#1]
 639 0030 FFF7FEFF 	 bl disk_status
 640 0034 C107     	 lsls r1,r0,#31
 641 0036 0BD4     	 bmi .L138
 642 0038 002D     	 cmp r5,#0
 643 003a 00F02181 	 beq .L162
 644 003e 00F00403 	 and r3,r0,#4
 645 0042 03F0FF00 	 and r0,r3,#255
 646 0046 002B     	 cmp r3,#0
 647 0048 00F02281 	 beq .L192
 648              	.L140:
 649 004c 0A20     	 movs r0,#10
 650 004e 1FE1     	 b .L192
 651              	.L138:
 652 0050 0023     	 movs r3,#0
 653 0052 F0B2     	 uxtb r0,r6
 654 0054 2370     	 strb r3,[r4]
 655 0056 6070     	 strb r0,[r4,#1]
 656 0058 FFF7FEFF 	 bl disk_initialize
 657 005c C207     	 lsls r2,r0,#31
 658 005e 00F11181 	 bmi .L164
 659 0062 0DB1     	 cbz r5,.L139
 660 0064 4307     	 lsls r3,r0,#29
 661 0066 F1D4     	 bmi .L140
 662              	.L139:
 663 0068 2046     	 mov r0,r4
 664 006a 0021     	 movs r1,#0
 665 006c FFF7FEFF 	 bl check_fs
 666 0070 0228     	 cmp r0,#2
 667 0072 1FD1     	 bne .L141
 668 0074 04F5FD76 	 add r6,r4,#506
 669 0078 0025     	 movs r5,#0
 670              	.L143:
 671 007a 16F8040C 	 ldrb r0,[r6,#-4]
 672 007e 10B1     	 cbz r0,.L142
 673 0080 3046     	 mov r0,r6
 674 0082 FFF7FEFF 	 bl ld_dword
 675              	.L142:
 676 0086 4DF82500 	 str r0,[sp,r5,lsl#2]
 677 008a 0135     	 adds r5,r5,#1
 678 008c 042D     	 cmp r5,#4
 679 008e 06F11006 	 add r6,r6,#16
 680 0092 F2D1     	 bne .L143
 681 0094 0025     	 movs r5,#0
 682              	.L146:
 683 0096 5DF82560 	 ldr r6,[sp,r5,lsl#2]
 684 009a 36B1     	 cbz r6,.L166
 685 009c 2046     	 mov r0,r4
 686 009e 3146     	 mov r1,r6
 687 00a0 FFF7FEFF 	 bl check_fs
 688 00a4 0128     	 cmp r0,#1
 689 00a6 01D8     	 bhi .L144
 690 00a8 0DE0     	 b .L145
 691              	.L166:
 692 00aa 0320     	 movs r0,#3
 693              	.L144:
 694 00ac 0135     	 adds r5,r5,#1
 695 00ae 042D     	 cmp r5,#4
 696 00b0 F1D1     	 bne .L146
 697 00b2 E9E0     	 b .L194
 698              	.L141:
 699 00b4 0428     	 cmp r0,#4
 700 00b6 4FF00006 	 mov r6,#0
 701 00ba 00F0E880 	 beq .L171
 702 00be 0128     	 cmp r0,#1
 703 00c0 01D9     	 bls .L145
 704              	.L148:
 705 00c2 0D20     	 movs r0,#13
 706 00c4 E4E0     	 b .L192
 707              	.L145:
 708 00c6 94F84020 	 ldrb r2,[r4,#64]
 709 00ca 94F83F30 	 ldrb r3,[r4,#63]
 710 00ce 43EA0223 	 orr r3,r3,r2,lsl#8
 711 00d2 B3F5007F 	 cmp r3,#512
 712 00d6 F4D1     	 bne .L148
 713 00d8 94F84B80 	 ldrb r8,[r4,#75]
 714 00dc 94F84A30 	 ldrb r3,[r4,#74]
 715 00e0 53EA0828 	 orrs r8,r3,r8,lsl#8
 716 00e4 04D1     	 bne .L150
 717 00e6 04F15800 	 add r0,r4,#88
 718 00ea FFF7FEFF 	 bl ld_dword
 719 00ee 8046     	 mov r8,r0
 720              	.L150:
 721 00f0 94F84470 	 ldrb r7,[r4,#68]
 722 00f4 C4F81C80 	 str r8,[r4,#28]
 723 00f8 7B1E     	 subs r3,r7,#1
 724 00fa 012B     	 cmp r3,#1
 725 00fc A770     	 strb r7,[r4,#2]
 726 00fe E0D8     	 bhi .L148
 727 0100 94F84150 	 ldrb r5,[r4,#65]
 728 0104 ABB2     	 uxth r3,r5
 729 0106 6381     	 strh r3,[r4,#10]
 730 0108 002B     	 cmp r3,#0
 731 010a DAD0     	 beq .L148
 732 010c 6B1E     	 subs r3,r5,#1
 733 010e 2B42     	 tst r3,r5
 734 0110 D7D1     	 bne .L148
 735 0112 94F84690 	 ldrb r9,[r4,#70]
 736 0116 94F84530 	 ldrb r3,[r4,#69]
 737 011a 43EA0929 	 orr r9,r3,r9,lsl#8
 738 011e 19F00F0F 	 tst r9,#15
 739 0122 A4F80890 	 strh r9,[r4,#8]
 740 0126 CCD1     	 bne .L148
 741 0128 94F84800 	 ldrb r0,[r4,#72]
 742 012c 94F84730 	 ldrb r3,[r4,#71]
 743 0130 53EA0020 	 orrs r0,r3,r0,lsl#8
 744 0134 03D1     	 bne .L151
 745 0136 04F15400 	 add r0,r4,#84
 746 013a FFF7FEFF 	 bl ld_dword
 747              	.L151:
 748 013e 94F84330 	 ldrb r3,[r4,#67]
 749 0142 94F84220 	 ldrb r2,[r4,#66]
 750 0146 52EA0323 	 orrs r3,r2,r3,lsl#8
 751 014a BAD0     	 beq .L148
 752 014c 07FB08F1 	 mul r1,r7,r8
 753 0150 03EB1912 	 add r2,r3,r9,lsr#4
 754 0154 0A44     	 add r2,r2,r1
 755 0156 9042     	 cmp r0,r2
 756 0158 B3D3     	 bcc .L148
 757 015a 801A     	 subs r0,r0,r2
 758 015c B0FBF5F5 	 udiv r5,r0,r5
 759 0160 002D     	 cmp r5,#0
 760 0162 AED0     	 beq .L148
 761 0164 4D48     	 ldr r0,.L195+4
 762 0166 8542     	 cmp r5,r0
 763 0168 ABD8     	 bhi .L148
 764 016a 4FF6F570 	 movw r0,#65525
 765 016e 8542     	 cmp r5,r0
 766 0170 06D8     	 bhi .L168
 767 0172 40F6F577 	 movw r7,#4085
 768 0176 BD42     	 cmp r5,r7
 769 0178 8CBF     	 ite hi
 770 017a 0227     	 movhi r7,#2
 771 017c 0127     	 movls r7,#1
 772 017e 00E0     	 b .L152
 773              	.L168:
 774 0180 0327     	 movs r7,#3
 775              	.L152:
 776 0182 0235     	 adds r5,r5,#2
 777 0184 3344     	 add r3,r3,r6
 778 0186 3244     	 add r2,r2,r6
 779 0188 032F     	 cmp r7,#3
 780 018a A561     	 str r5,[r4,#24]
 781 018c 2662     	 str r6,[r4,#32]
 782 018e 6362     	 str r3,[r4,#36]
 783 0190 E262     	 str r2,[r4,#44]
 784 0192 10D1     	 bne .L153
 785 0194 94F85F20 	 ldrb r2,[r4,#95]
 786 0198 94F85E30 	 ldrb r3,[r4,#94]
 787 019c 53EA0223 	 orrs r3,r3,r2,lsl#8
 788 01a0 8FD1     	 bne .L148
 789 01a2 B9F1000F 	 cmp r9,#0
 790 01a6 8CD1     	 bne .L148
 791 01a8 04F16000 	 add r0,r4,#96
 792 01ac FFF7FEFF 	 bl ld_dword
 793 01b0 AD00     	 lsls r5,r5,#2
 794 01b2 A062     	 str r0,[r4,#40]
 795 01b4 10E0     	 b .L154
 796              	.L153:
 797 01b6 B9F1000F 	 cmp r9,#0
 798 01ba 82D0     	 beq .L148
 799 01bc 022F     	 cmp r7,#2
 800 01be 4FEA4500 	 lsl r0,r5,#1
 801 01c2 18BF     	 it ne
 802 01c4 4019     	 addne r0,r0,r5
 803 01c6 0B44     	 add r3,r3,r1
 804 01c8 18BF     	 it ne
 805 01ca 05F00105 	 andne r5,r5,#1
 806 01ce A362     	 str r3,[r4,#40]
 807 01d0 0CBF     	 ite eq
 808 01d2 0546     	 moveq r5,r0
 809 01d4 05EB5005 	 addne r5,r5,r0,lsr#1
 810              	.L154:
 811 01d8 05F2FF15 	 addw r5,r5,#511
 812 01dc B8EB552F 	 cmp r8,r5,lsr#9
 813 01e0 FFF46FAF 	 bcc .L148
 814 01e4 4FF0FF33 	 mov r3,#-1
 815 01e8 2361     	 str r3,[r4,#16]
 816 01ea E360     	 str r3,[r4,#12]
 817 01ec 032F     	 cmp r7,#3
 818 01ee 4FF08003 	 mov r3,#128
 819 01f2 2371     	 strb r3,[r4,#4]
 820 01f4 2AD1     	 bne .L157
 821 01f6 94F86520 	 ldrb r2,[r4,#101]
 822 01fa 94F86430 	 ldrb r3,[r4,#100]
 823 01fe 43EA0223 	 orr r3,r3,r2,lsl#8
 824 0202 012B     	 cmp r3,#1
 825 0204 22D1     	 bne .L157
 826 0206 2046     	 mov r0,r4
 827 0208 711C     	 adds r1,r6,#1
 828 020a FFF7FEFF 	 bl move_window
 829 020e E8B9     	 cbnz r0,.L157
 830 0210 94F83322 	 ldrb r2,[r4,#563]
 831 0214 94F83232 	 ldrb r3,[r4,#562]
 832 0218 2071     	 strb r0,[r4,#4]
 833 021a 43EA0223 	 orr r3,r3,r2,lsl#8
 834 021e 4AF65522 	 movw r2,#43605
 835 0222 9342     	 cmp r3,r2
 836 0224 12D1     	 bne .L157
 837 0226 04F13400 	 add r0,r4,#52
 838 022a FFF7FEFF 	 bl ld_dword
 839 022e 1C4B     	 ldr r3,.L195+8
 840 0230 9842     	 cmp r0,r3
 841 0232 0BD1     	 bne .L157
 842 0234 04F50670 	 add r0,r4,#536
 843 0238 FFF7FEFF 	 bl ld_dword
 844 023c 194B     	 ldr r3,.L195+12
 845 023e 9842     	 cmp r0,r3
 846 0240 04D1     	 bne .L157
 847 0242 04F50770 	 add r0,r4,#540
 848 0246 FFF7FEFF 	 bl ld_dword
 849 024a 2061     	 str r0,[r4,#16]
 850              	.L157:
 851 024c 164A     	 ldr r2,.L195+16
 852 024e 2770     	 strb r7,[r4]
 853 0250 1388     	 ldrh r3,[r2]
 854 0252 0133     	 adds r3,r3,#1
 855 0254 9BB2     	 uxth r3,r3
 856 0256 1380     	 strh r3,[r2]
 857 0258 E380     	 strh r3,[r4,#6]
 858 025a 144B     	 ldr r3,.L195+20
 859 025c 1968     	 ldr r1,[r3]
 860 025e 0022     	 movs r2,#0
 861 0260 A142     	 cmp r1,r4
 862 0262 08BF     	 it eq
 863 0264 1A60     	 streq r2,[r3]
 864 0266 1B69     	 ldr r3,[r3,#16]
 865 0268 6261     	 str r2,[r4,#20]
 866 026a A342     	 cmp r3,r4
 867 026c 4FF00000 	 mov r0,#0
 868 0270 0ED1     	 bne .L192
 869 0272 0E4B     	 ldr r3,.L195+20
 870 0274 1861     	 str r0,[r3,#16]
 871 0276 0BE0     	 b .L192
 872              	.L160:
 873 0278 0B20     	 movs r0,#11
 874 027a 09E0     	 b .L192
 875              	.L161:
 876 027c 0C20     	 movs r0,#12
 877 027e 07E0     	 b .L192
 878              	.L162:
 879 0280 2846     	 mov r0,r5
 880 0282 05E0     	 b .L192
 881              	.L164:
 882 0284 0320     	 movs r0,#3
 883 0286 03E0     	 b .L192
 884              	.L194:
 885 0288 0428     	 cmp r0,#4
 886 028a 7FF41AAF 	 bne .L148
 887              	.L171:
 888 028e 0120     	 movs r0,#1
 889              	.L192:
 890 0290 05B0     	 add sp,sp,#20
 891              	 
 892 0292 BDE8F083 	 pop {r4,r5,r6,r7,r8,r9,pc}
 893              	.L196:
 894 0296 00BF     	 .align 2
 895              	.L195:
 896 0298 00000000 	 .word .LANCHOR2
 897 029c F5FFFF0F 	 .word 268435445
 898 02a0 52526141 	 .word 1096897106
 899 02a4 72724161 	 .word 1631679090
 900 02a8 00000000 	 .word .LANCHOR3
 901 02ac 00000000 	 .word .LANCHOR0
 903              	 .section .text.put_fat,"ax",%progbits
 904              	 .align 1
 905              	 .thumb
 906              	 .thumb_func
 908              	put_fat:
 909              	 
 910              	 
 911 0000 0129     	 cmp r1,#1
 912 0002 2DE9F843 	 push {r3,r4,r5,r6,r7,r8,r9,lr}
 913 0006 0546     	 mov r5,r0
 914 0008 0C46     	 mov r4,r1
 915 000a 1646     	 mov r6,r2
 916 000c 6DD9     	 bls .L209
 917 000e 8369     	 ldr r3,[r0,#24]
 918 0010 9942     	 cmp r1,r3
 919 0012 6AD2     	 bcs .L209
 920 0014 0378     	 ldrb r3,[r0]
 921 0016 022B     	 cmp r3,#2
 922 0018 3BD0     	 beq .L199
 923 001a 032B     	 cmp r3,#3
 924 001c 4BD0     	 beq .L200
 925 001e 012B     	 cmp r3,#1
 926 0020 63D1     	 bne .L209
 927 0022 01EB5108 	 add r8,r1,r1,lsr#1
 928 0026 416A     	 ldr r1,[r0,#36]
 929 0028 01EB5821 	 add r1,r1,r8,lsr#9
 930 002c FFF7FEFF 	 bl move_window
 931 0030 0746     	 mov r7,r0
 932 0032 0028     	 cmp r0,#0
 933 0034 5AD1     	 bne .L198
 934 0036 08F10109 	 add r9,r8,#1
 935 003a C8F30808 	 ubfx r8,r8,#0,#9
 936 003e A844     	 add r8,r8,r5
 937 0040 14F00104 	 ands r4,r4,#1
 938 0044 18BF     	 it ne
 939 0046 98F83420 	 ldrbne r2,[r8,#52]
 940 004a 696A     	 ldr r1,[r5,#36]
 941 004c F3B2     	 uxtb r3,r6
 942 004e 1EBF     	 ittt ne
 943 0050 02F00F02 	 andne r2,r2,#15
 944 0054 42EA0313 	 orrne r3,r2,r3,lsl#4
 945 0058 DBB2     	 uxtbne r3,r3
 946 005a 88F83430 	 strb r3,[r8,#52]
 947 005e 0123     	 movs r3,#1
 948 0060 EB70     	 strb r3,[r5,#3]
 949 0062 2846     	 mov r0,r5
 950 0064 01EB5921 	 add r1,r1,r9,lsr#9
 951 0068 FFF7FEFF 	 bl move_window
 952 006c 0746     	 mov r7,r0
 953 006e E8BB     	 cbnz r0,.L198
 954 0070 C9F30803 	 ubfx r3,r9,#0,#9
 955 0074 2B44     	 add r3,r3,r5
 956 0076 14B1     	 cbz r4,.L204
 957 0078 C6F30716 	 ubfx r6,r6,#4,#8
 958 007c 06E0     	 b .L205
 959              	.L204:
 960 007e 93F83410 	 ldrb r1,[r3,#52]
 961 0082 C6F30326 	 ubfx r6,r6,#8,#4
 962 0086 21F00F01 	 bic r1,r1,#15
 963 008a 0E43     	 orrs r6,r6,r1
 964              	.L205:
 965 008c 83F83460 	 strb r6,[r3,#52]
 966 0090 28E0     	 b .L210
 967              	.L199:
 968 0092 416A     	 ldr r1,[r0,#36]
 969 0094 01EB1421 	 add r1,r1,r4,lsr#8
 970 0098 FFF7FEFF 	 bl move_window
 971 009c 0746     	 mov r7,r0
 972 009e 28BB     	 cbnz r0,.L198
 973 00a0 6400     	 lsls r4,r4,#1
 974 00a2 04F4FF74 	 and r4,r4,#510
 975 00a6 2B19     	 adds r3,r5,r4
 976 00a8 83F83460 	 strb r6,[r3,#52]
 977 00ac C6F30726 	 ubfx r6,r6,#8,#8
 978 00b0 83F83560 	 strb r6,[r3,#53]
 979 00b4 16E0     	 b .L210
 980              	.L200:
 981 00b6 416A     	 ldr r1,[r0,#36]
 982 00b8 01EBD411 	 add r1,r1,r4,lsr#7
 983 00bc FFF7FEFF 	 bl move_window
 984 00c0 0746     	 mov r7,r0
 985 00c2 98B9     	 cbnz r0,.L198
 986 00c4 A400     	 lsls r4,r4,#2
 987 00c6 04F4FE74 	 and r4,r4,#508
 988 00ca 2C44     	 add r4,r4,r5
 989 00cc 3434     	 adds r4,r4,#52
 990 00ce 2046     	 mov r0,r4
 991 00d0 FFF7FEFF 	 bl ld_dword
 992 00d4 26F07046 	 bic r6,r6,#-268435456
 993 00d8 00F07041 	 and r1,r0,#-268435456
 994 00dc 3143     	 orrs r1,r1,r6
 995 00de 2046     	 mov r0,r4
 996 00e0 FFF7FEFF 	 bl st_dword
 997              	.L210:
 998 00e4 0123     	 movs r3,#1
 999 00e6 EB70     	 strb r3,[r5,#3]
 1000 00e8 00E0     	 b .L198
 1001              	.L209:
 1002 00ea 0227     	 movs r7,#2
 1003              	.L198:
 1004 00ec 3846     	 mov r0,r7
 1005 00ee BDE8F883 	 pop {r3,r4,r5,r6,r7,r8,r9,pc}
 1007              	 .section .text.get_fat.isra.10,"ax",%progbits
 1008              	 .align 1
 1009              	 .thumb
 1010              	 .thumb_func
 1012              	get_fat.isra.10:
 1013              	 
 1014              	 
 1015 0000 0129     	 cmp r1,#1
 1016 0002 F8B5     	 push {r3,r4,r5,r6,r7,lr}
 1017 0004 0646     	 mov r6,r0
 1018 0006 0C46     	 mov r4,r1
 1019 0008 53D9     	 bls .L222
 1020 000a 8369     	 ldr r3,[r0,#24]
 1021 000c 9942     	 cmp r1,r3
 1022 000e 50D2     	 bcs .L222
 1023 0010 0378     	 ldrb r3,[r0]
 1024 0012 022B     	 cmp r3,#2
 1025 0014 29D0     	 beq .L213
 1026 0016 032B     	 cmp r3,#3
 1027 0018 3AD0     	 beq .L214
 1028 001a 012B     	 cmp r3,#1
 1029 001c 49D1     	 bne .L222
 1030 001e 01EB5105 	 add r5,r1,r1,lsr#1
 1031 0022 416A     	 ldr r1,[r0,#36]
 1032 0024 01EB5521 	 add r1,r1,r5,lsr#9
 1033 0028 FFF7FEFF 	 bl move_window
 1034 002c 10B1     	 cbz r0,.L216
 1035              	.L217:
 1036 002e 4FF0FF30 	 mov r0,#-1
 1037 0032 F8BD     	 pop {r3,r4,r5,r6,r7,pc}
 1038              	.L216:
 1039 0034 6F1C     	 adds r7,r5,#1
 1040 0036 716A     	 ldr r1,[r6,#36]
 1041 0038 C5F30805 	 ubfx r5,r5,#0,#9
 1042 003c 3544     	 add r5,r5,r6
 1043 003e 3046     	 mov r0,r6
 1044 0040 01EB5721 	 add r1,r1,r7,lsr#9
 1045 0044 95F83450 	 ldrb r5,[r5,#52]
 1046 0048 FFF7FEFF 	 bl move_window
 1047 004c 0028     	 cmp r0,#0
 1048 004e EED1     	 bne .L217
 1049 0050 C7F30800 	 ubfx r0,r7,#0,#9
 1050 0054 3044     	 add r0,r0,r6
 1051 0056 E307     	 lsls r3,r4,#31
 1052 0058 90F83400 	 ldrb r0,[r0,#52]
 1053 005c 45EA0020 	 orr r0,r5,r0,lsl#8
 1054 0060 4CBF     	 ite mi
 1055 0062 0009     	 lsrmi r0,r0,#4
 1056 0064 C0F30B00 	 ubfxpl r0,r0,#0,#12
 1057 0068 F8BD     	 pop {r3,r4,r5,r6,r7,pc}
 1058              	.L213:
 1059 006a 416A     	 ldr r1,[r0,#36]
 1060 006c 01EB1421 	 add r1,r1,r4,lsr#8
 1061 0070 FFF7FEFF 	 bl move_window
 1062 0074 0028     	 cmp r0,#0
 1063 0076 DAD1     	 bne .L217
 1064 0078 6000     	 lsls r0,r4,#1
 1065 007a 00F4FF74 	 and r4,r0,#510
 1066 007e 3319     	 adds r3,r6,r4
 1067 0080 3444     	 add r4,r4,r6
 1068 0082 93F83430 	 ldrb r3,[r3,#52]
 1069 0086 94F83500 	 ldrb r0,[r4,#53]
 1070 008a 43EA0020 	 orr r0,r3,r0,lsl#8
 1071 008e F8BD     	 pop {r3,r4,r5,r6,r7,pc}
 1072              	.L214:
 1073 0090 416A     	 ldr r1,[r0,#36]
 1074 0092 01EBD411 	 add r1,r1,r4,lsr#7
 1075 0096 FFF7FEFF 	 bl move_window
 1076 009a 0028     	 cmp r0,#0
 1077 009c C7D1     	 bne .L217
 1078 009e A000     	 lsls r0,r4,#2
 1079 00a0 00F4FE70 	 and r0,r0,#508
 1080 00a4 3044     	 add r0,r0,r6
 1081 00a6 3430     	 adds r0,r0,#52
 1082 00a8 FFF7FEFF 	 bl ld_dword
 1083 00ac 20F07040 	 bic r0,r0,#-268435456
 1084 00b0 F8BD     	 pop {r3,r4,r5,r6,r7,pc}
 1085              	.L222:
 1086 00b2 0120     	 movs r0,#1
 1087 00b4 F8BD     	 pop {r3,r4,r5,r6,r7,pc}
 1089              	 .section .text.dir_sdi,"ax",%progbits
 1090              	 .align 1
 1091              	 .thumb
 1092              	 .thumb_func
 1094              	dir_sdi:
 1095              	 
 1096              	 
 1097 0000 B1F5001F 	 cmp r1,#2097152
 1098 0004 2DE9F041 	 push {r4,r5,r6,r7,r8,lr}
 1099 0008 0646     	 mov r6,r0
 1100 000a 0C46     	 mov r4,r1
 1101 000c 0768     	 ldr r7,[r0]
 1102 000e 02D3     	 bcc .L224
 1103              	.L226:
 1104 0010 0220     	 movs r0,#2
 1105 0012 BDE8F081 	 pop {r4,r5,r6,r7,r8,pc}
 1106              	.L224:
 1107 0016 CA06     	 lsls r2,r1,#27
 1108 0018 FAD1     	 bne .L226
 1109 001a 8568     	 ldr r5,[r0,#8]
 1110 001c 7161     	 str r1,[r6,#20]
 1111 001e 65B9     	 cbnz r5,.L227
 1112 0020 3B78     	 ldrb r3,[r7]
 1113 0022 022B     	 cmp r3,#2
 1114 0024 01D9     	 bls .L228
 1115 0026 BB6A     	 ldr r3,[r7,#40]
 1116 0028 33B9     	 cbnz r3,.L232
 1117              	.L228:
 1118 002a 3B89     	 ldrh r3,[r7,#8]
 1119 002c B3EB541F 	 cmp r3,r4,lsr#5
 1120 0030 EED9     	 bls .L226
 1121 0032 BB6A     	 ldr r3,[r7,#40]
 1122 0034 F361     	 str r3,[r6,#28]
 1123 0036 1AE0     	 b .L229
 1124              	.L232:
 1125 0038 1D46     	 mov r5,r3
 1126              	.L227:
 1127 003a B7F80A80 	 ldrh r8,[r7,#10]
 1128 003e 2946     	 mov r1,r5
 1129 0040 4FEA4828 	 lsl r8,r8,#9
 1130              	.L230:
 1131 0044 4445     	 cmp r4,r8
 1132 0046 0DD3     	 bcc .L237
 1133 0048 3068     	 ldr r0,[r6]
 1134 004a FFF7FEFF 	 bl get_fat.isra.10
 1135 004e 431C     	 adds r3,r0,#1
 1136 0050 0146     	 mov r1,r0
 1137 0052 1BD0     	 beq .L233
 1138 0054 0128     	 cmp r0,#1
 1139 0056 DBD9     	 bls .L226
 1140 0058 BB69     	 ldr r3,[r7,#24]
 1141 005a 9842     	 cmp r0,r3
 1142 005c D8D2     	 bcs .L226
 1143 005e C8EB0404 	 rsb r4,r8,r4
 1144 0062 EFE7     	 b .L230
 1145              	.L237:
 1146 0064 3846     	 mov r0,r7
 1147 0066 0D46     	 mov r5,r1
 1148 0068 FFF7FEFF 	 bl clst2sect
 1149 006c F061     	 str r0,[r6,#28]
 1150              	.L229:
 1151 006e F369     	 ldr r3,[r6,#28]
 1152 0070 B561     	 str r5,[r6,#24]
 1153 0072 002B     	 cmp r3,#0
 1154 0074 CCD0     	 beq .L226
 1155 0076 03EB5423 	 add r3,r3,r4,lsr#9
 1156 007a C4F30804 	 ubfx r4,r4,#0,#9
 1157 007e 3C44     	 add r4,r4,r7
 1158 0080 3434     	 adds r4,r4,#52
 1159 0082 F361     	 str r3,[r6,#28]
 1160 0084 3462     	 str r4,[r6,#32]
 1161 0086 0020     	 movs r0,#0
 1162 0088 BDE8F081 	 pop {r4,r5,r6,r7,r8,pc}
 1163              	.L233:
 1164 008c 0120     	 movs r0,#1
 1165 008e BDE8F081 	 pop {r4,r5,r6,r7,r8,pc}
 1167              	 .section .text.create_chain,"ax",%progbits
 1168              	 .align 1
 1169              	 .thumb
 1170              	 .thumb_func
 1172              	create_chain:
 1173              	 
 1174              	 
 1175 0000 2DE9F041 	 push {r4,r5,r6,r7,r8,lr}
 1176 0004 8046     	 mov r8,r0
 1177 0006 0568     	 ldr r5,[r0]
 1178 0008 0F46     	 mov r7,r1
 1179 000a 31B9     	 cbnz r1,.L239
 1180 000c EE68     	 ldr r6,[r5,#12]
 1181 000e A6B1     	 cbz r6,.L262
 1182 0010 AB69     	 ldr r3,[r5,#24]
 1183 0012 9E42     	 cmp r6,r3
 1184 0014 28BF     	 it cs
 1185 0016 0126     	 movcs r6,#1
 1186 0018 10E0     	 b .L240
 1187              	.L239:
 1188 001a 2846     	 mov r0,r5
 1189 001c FFF7FEFF 	 bl get_fat.isra.10
 1190 0020 0128     	 cmp r0,#1
 1191 0022 61D9     	 bls .L282
 1192 0024 411C     	 adds r1,r0,#1
 1193 0026 03D1     	 bne .L243
 1194              	.L248:
 1195 0028 4FF0FF30 	 mov r0,#-1
 1196 002c BDE8F081 	 pop {r4,r5,r6,r7,r8,pc}
 1197              	.L243:
 1198 0030 AB69     	 ldr r3,[r5,#24]
 1199 0032 9842     	 cmp r0,r3
 1200 0034 59D3     	 bcc .L242
 1201 0036 3E46     	 mov r6,r7
 1202 0038 00E0     	 b .L240
 1203              	.L262:
 1204 003a 0126     	 movs r6,#1
 1205              	.L240:
 1206 003c 2B69     	 ldr r3,[r5,#16]
 1207 003e 13B9     	 cbnz r3,.L244
 1208              	.L252:
 1209 0040 0020     	 movs r0,#0
 1210 0042 BDE8F081 	 pop {r4,r5,r6,r7,r8,pc}
 1211              	.L244:
 1212 0046 BE42     	 cmp r6,r7
 1213 0048 17D1     	 bne .L261
 1214 004a AB69     	 ldr r3,[r5,#24]
 1215 004c D8F80000 	 ldr r0,[r8]
 1216 0050 741C     	 adds r4,r6,#1
 1217 0052 9C42     	 cmp r4,r3
 1218 0054 28BF     	 it cs
 1219 0056 0224     	 movcs r4,#2
 1220 0058 2146     	 mov r1,r4
 1221 005a FFF7FEFF 	 bl get_fat.isra.10
 1222 005e 0128     	 cmp r0,#1
 1223 0060 42D0     	 beq .L282
 1224 0062 421C     	 adds r2,r0,#1
 1225 0064 E0D0     	 beq .L248
 1226 0066 38B1     	 cbz r0,.L249
 1227 0068 EB68     	 ldr r3,[r5,#12]
 1228 006a 012B     	 cmp r3,#1
 1229 006c 05D9     	 bls .L261
 1230 006e AA69     	 ldr r2,[r5,#24]
 1231 0070 9342     	 cmp r3,r2
 1232 0072 38BF     	 it cc
 1233 0074 1E46     	 movcc r6,r3
 1234 0076 00E0     	 b .L261
 1235              	.L249:
 1236 0078 A4B9     	 cbnz r4,.L250
 1237              	.L261:
 1238 007a 3446     	 mov r4,r6
 1239              	.L255:
 1240 007c AB69     	 ldr r3,[r5,#24]
 1241 007e 0134     	 adds r4,r4,#1
 1242 0080 9C42     	 cmp r4,r3
 1243 0082 02D3     	 bcc .L251
 1244 0084 012E     	 cmp r6,#1
 1245 0086 DBD9     	 bls .L252
 1246 0088 0224     	 movs r4,#2
 1247              	.L251:
 1248 008a D8F80000 	 ldr r0,[r8]
 1249 008e 2146     	 mov r1,r4
 1250 0090 FFF7FEFF 	 bl get_fat.isra.10
 1251 0094 30B1     	 cbz r0,.L250
 1252 0096 0128     	 cmp r0,#1
 1253 0098 27D0     	 beq .L242
 1254 009a 431C     	 adds r3,r0,#1
 1255 009c 25D0     	 beq .L242
 1256 009e B442     	 cmp r4,r6
 1257 00a0 ECD1     	 bne .L255
 1258 00a2 CDE7     	 b .L252
 1259              	.L250:
 1260 00a4 2846     	 mov r0,r5
 1261 00a6 2146     	 mov r1,r4
 1262 00a8 4FF0FF32 	 mov r2,#-1
 1263 00ac FFF7FEFF 	 bl put_fat
 1264 00b0 C0B9     	 cbnz r0,.L256
 1265 00b2 47B9     	 cbnz r7,.L257
 1266              	.L260:
 1267 00b4 AA69     	 ldr r2,[r5,#24]
 1268 00b6 2B69     	 ldr r3,[r5,#16]
 1269 00b8 EC60     	 str r4,[r5,#12]
 1270 00ba 023A     	 subs r2,r2,#2
 1271 00bc 9342     	 cmp r3,r2
 1272 00be 0AD8     	 bhi .L259
 1273 00c0 013B     	 subs r3,r3,#1
 1274 00c2 2B61     	 str r3,[r5,#16]
 1275 00c4 07E0     	 b .L259
 1276              	.L257:
 1277 00c6 2846     	 mov r0,r5
 1278 00c8 3946     	 mov r1,r7
 1279 00ca 2246     	 mov r2,r4
 1280 00cc FFF7FEFF 	 bl put_fat
 1281 00d0 0028     	 cmp r0,#0
 1282 00d2 EFD0     	 beq .L260
 1283 00d4 06E0     	 b .L256
 1284              	.L259:
 1285 00d6 2B79     	 ldrb r3,[r5,#4]
 1286 00d8 43F00103 	 orr r3,r3,#1
 1287 00dc 2B71     	 strb r3,[r5,#4]
 1288 00de 2046     	 mov r0,r4
 1289 00e0 BDE8F081 	 pop {r4,r5,r6,r7,r8,pc}
 1290              	.L256:
 1291 00e4 0128     	 cmp r0,#1
 1292 00e6 9FD0     	 beq .L248
 1293              	.L282:
 1294 00e8 0120     	 movs r0,#1
 1295              	.L242:
 1296 00ea BDE8F081 	 pop {r4,r5,r6,r7,r8,pc}
 1298              	 .section .text.remove_chain,"ax",%progbits
 1299              	 .align 1
 1300              	 .thumb
 1301              	 .thumb_func
 1303              	remove_chain:
 1304              	 
 1305              	 
 1306 0000 0129     	 cmp r1,#1
 1307 0002 F8B5     	 push {r3,r4,r5,r6,r7,lr}
 1308 0004 0746     	 mov r7,r0
 1309 0006 0D46     	 mov r5,r1
 1310 0008 0468     	 ldr r4,[r0]
 1311 000a 01D8     	 bhi .L284
 1312              	.L286:
 1313 000c 0220     	 movs r0,#2
 1314 000e F8BD     	 pop {r3,r4,r5,r6,r7,pc}
 1315              	.L284:
 1316 0010 A369     	 ldr r3,[r4,#24]
 1317 0012 9942     	 cmp r1,r3
 1318 0014 FAD2     	 bcs .L286
 1319 0016 32B1     	 cbz r2,.L288
 1320 0018 1146     	 mov r1,r2
 1321 001a 2046     	 mov r0,r4
 1322 001c 4FF0FF32 	 mov r2,#-1
 1323 0020 FFF7FEFF 	 bl put_fat
 1324 0024 10BB     	 cbnz r0,.L285
 1325              	.L288:
 1326 0026 3868     	 ldr r0,[r7]
 1327 0028 2946     	 mov r1,r5
 1328 002a FFF7FEFF 	 bl get_fat.isra.10
 1329 002e 0646     	 mov r6,r0
 1330 0030 08B9     	 cbnz r0,.L290
 1331              	.L292:
 1332 0032 0020     	 movs r0,#0
 1333 0034 F8BD     	 pop {r3,r4,r5,r6,r7,pc}
 1334              	.L290:
 1335 0036 0128     	 cmp r0,#1
 1336 0038 E8D0     	 beq .L286
 1337 003a 431C     	 adds r3,r0,#1
 1338 003c 15D0     	 beq .L294
 1339 003e 2046     	 mov r0,r4
 1340 0040 2946     	 mov r1,r5
 1341 0042 0022     	 movs r2,#0
 1342 0044 FFF7FEFF 	 bl put_fat
 1343 0048 80B9     	 cbnz r0,.L285
 1344 004a A269     	 ldr r2,[r4,#24]
 1345 004c 2369     	 ldr r3,[r4,#16]
 1346 004e 911E     	 subs r1,r2,#2
 1347 0050 8B42     	 cmp r3,r1
 1348 0052 3FBF     	 itttt cc
 1349 0054 0133     	 addcc r3,r3,#1
 1350 0056 2361     	 strcc r3,[r4,#16]
 1351 0058 2379     	 ldrbcc r3,[r4,#4]
 1352 005a 43F00103 	 orrcc r3,r3,#1
 1353 005e 38BF     	 it cc
 1354 0060 2371     	 strbcc r3,[r4,#4]
 1355 0062 9642     	 cmp r6,r2
 1356 0064 3546     	 mov r5,r6
 1357 0066 DED3     	 bcc .L288
 1358 0068 E3E7     	 b .L292
 1359              	.L294:
 1360 006a 0120     	 movs r0,#1
 1361              	.L285:
 1362 006c F8BD     	 pop {r3,r4,r5,r6,r7,pc}
 1364              	 .section .text.dir_clear,"ax",%progbits
 1365              	 .align 1
 1366              	 .thumb
 1367              	 .thumb_func
 1369              	dir_clear:
 1370              	 
 1371              	 
 1372 0000 F8B5     	 push {r3,r4,r5,r6,r7,lr}
 1373 0002 C378     	 ldrb r3,[r0,#3]
 1374 0004 0546     	 mov r5,r0
 1375 0006 0C46     	 mov r4,r1
 1376 0008 5BB9     	 cbnz r3,.L301
 1377              	.L304:
 1378 000a 2846     	 mov r0,r5
 1379 000c 2146     	 mov r1,r4
 1380 000e FFF7FEFF 	 bl clst2sect
 1381 0012 05F13407 	 add r7,r5,#52
 1382 0016 0646     	 mov r6,r0
 1383 0018 2863     	 str r0,[r5,#48]
 1384 001a 05F50D72 	 add r2,r5,#564
 1385 001e 3B46     	 mov r3,r7
 1386 0020 05E0     	 b .L302
 1387              	.L301:
 1388 0022 FFF7FEFF 	 bl sync_window.part.6
 1389 0026 0028     	 cmp r0,#0
 1390 0028 EFD0     	 beq .L304
 1391 002a 0120     	 movs r0,#1
 1392 002c F8BD     	 pop {r3,r4,r5,r6,r7,pc}
 1393              	.L302:
 1394 002e 0024     	 movs r4,#0
 1395 0030 03F8014B 	 strb r4,[r3],#1
 1396 0034 9342     	 cmp r3,r2
 1397 0036 FAD1     	 bne .L302
 1398              	.L305:
 1399 0038 6B89     	 ldrh r3,[r5,#10]
 1400 003a 9C42     	 cmp r4,r3
 1401 003c 04D3     	 bcc .L306
 1402              	.L308:
 1403 003e 6889     	 ldrh r0,[r5,#10]
 1404 0040 201A     	 subs r0,r4,r0
 1405 0042 18BF     	 it ne
 1406 0044 0120     	 movne r0,#1
 1407 0046 F8BD     	 pop {r3,r4,r5,r6,r7,pc}
 1408              	.L306:
 1409 0048 6878     	 ldrb r0,[r5,#1]
 1410 004a 3946     	 mov r1,r7
 1411 004c A219     	 adds r2,r4,r6
 1412 004e 0123     	 movs r3,#1
 1413 0050 FFF7FEFF 	 bl disk_write
 1414 0054 0028     	 cmp r0,#0
 1415 0056 F2D1     	 bne .L308
 1416 0058 0134     	 adds r4,r4,#1
 1417 005a EDE7     	 b .L305
 1419              	 .section .text.dir_next,"ax",%progbits
 1420              	 .align 1
 1421              	 .thumb
 1422              	 .thumb_func
 1424              	dir_next:
 1425              	 
 1426              	 
 1427 0000 2DE9F843 	 push {r3,r4,r5,r6,r7,r8,r9,lr}
 1428 0004 4769     	 ldr r7,[r0,#20]
 1429 0006 0668     	 ldr r6,[r0]
 1430 0008 2037     	 adds r7,r7,#32
 1431 000a B7F5001F 	 cmp r7,#2097152
 1432 000e 24BF     	 itt cs
 1433 0010 0023     	 movcs r3,#0
 1434 0012 C361     	 strcs r3,[r0,#28]
 1435 0014 C369     	 ldr r3,[r0,#28]
 1436 0016 0446     	 mov r4,r0
 1437 0018 8946     	 mov r9,r1
 1438 001a 002B     	 cmp r3,#0
 1439 001c 45D0     	 beq .L324
 1440 001e C7F30808 	 ubfx r8,r7,#0,#9
 1441 0022 B8F1000F 	 cmp r8,#0
 1442 0026 39D1     	 bne .L315
 1443 0028 8169     	 ldr r1,[r0,#24]
 1444 002a 0133     	 adds r3,r3,#1
 1445 002c C361     	 str r3,[r0,#28]
 1446 002e 31B9     	 cbnz r1,.L316
 1447 0030 3389     	 ldrh r3,[r6,#8]
 1448 0032 B3EB571F 	 cmp r3,r7,lsr#5
 1449 0036 31D8     	 bhi .L315
 1450              	.L321:
 1451 0038 0023     	 movs r3,#0
 1452 003a E361     	 str r3,[r4,#28]
 1453 003c 35E0     	 b .L324
 1454              	.L316:
 1455 003e 7389     	 ldrh r3,[r6,#10]
 1456 0040 013B     	 subs r3,r3,#1
 1457 0042 13EA5723 	 ands r3,r3,r7,lsr#9
 1458 0046 29D1     	 bne .L315
 1459 0048 3046     	 mov r0,r6
 1460 004a FFF7FEFF 	 bl get_fat.isra.10
 1461 004e 0128     	 cmp r0,#1
 1462 0050 0546     	 mov r5,r0
 1463 0052 02D8     	 bhi .L318
 1464              	.L322:
 1465 0054 0220     	 movs r0,#2
 1466 0056 BDE8F883 	 pop {r3,r4,r5,r6,r7,r8,r9,pc}
 1467              	.L318:
 1468 005a 421C     	 adds r2,r0,#1
 1469 005c 02D1     	 bne .L319
 1470              	.L323:
 1471 005e 0120     	 movs r0,#1
 1472 0060 BDE8F883 	 pop {r3,r4,r5,r6,r7,r8,r9,pc}
 1473              	.L319:
 1474 0064 B369     	 ldr r3,[r6,#24]
 1475 0066 9842     	 cmp r0,r3
 1476 0068 12D3     	 bcc .L320
 1477 006a B9F1000F 	 cmp r9,#0
 1478 006e E3D0     	 beq .L321
 1479 0070 2046     	 mov r0,r4
 1480 0072 A169     	 ldr r1,[r4,#24]
 1481 0074 FFF7FEFF 	 bl create_chain
 1482 0078 0546     	 mov r5,r0
 1483 007a C8B1     	 cbz r0,.L325
 1484 007c 0128     	 cmp r0,#1
 1485 007e E9D0     	 beq .L322
 1486 0080 431C     	 adds r3,r0,#1
 1487 0082 ECD0     	 beq .L323
 1488 0084 3046     	 mov r0,r6
 1489 0086 2946     	 mov r1,r5
 1490 0088 FFF7FEFF 	 bl dir_clear
 1491 008c 0028     	 cmp r0,#0
 1492 008e E6D1     	 bne .L323
 1493              	.L320:
 1494 0090 A561     	 str r5,[r4,#24]
 1495 0092 3046     	 mov r0,r6
 1496 0094 2946     	 mov r1,r5
 1497 0096 FFF7FEFF 	 bl clst2sect
 1498 009a E061     	 str r0,[r4,#28]
 1499              	.L315:
 1500 009c 4644     	 add r6,r6,r8
 1501 009e 3436     	 adds r6,r6,#52
 1502 00a0 6761     	 str r7,[r4,#20]
 1503 00a2 2662     	 str r6,[r4,#32]
 1504 00a4 0020     	 movs r0,#0
 1505 00a6 BDE8F883 	 pop {r3,r4,r5,r6,r7,r8,r9,pc}
 1506              	.L324:
 1507 00aa 0420     	 movs r0,#4
 1508 00ac BDE8F883 	 pop {r3,r4,r5,r6,r7,r8,r9,pc}
 1509              	.L325:
 1510 00b0 0720     	 movs r0,#7
 1511 00b2 BDE8F883 	 pop {r3,r4,r5,r6,r7,r8,r9,pc}
 1513              	 .section .text.follow_path,"ax",%progbits
 1514              	 .align 1
 1515              	 .thumb
 1516              	 .thumb_func
 1518              	follow_path:
 1519              	 
 1520              	 
 1521 0000 2DE9F843 	 push {r3,r4,r5,r6,r7,r8,r9,lr}
 1522 0004 0B78     	 ldrb r3,[r1]
 1523 0006 0768     	 ldr r7,[r0]
 1524 0008 2F2B     	 cmp r3,#47
 1525 000a 0446     	 mov r4,r0
 1526 000c 0E46     	 mov r6,r1
 1527 000e 01D0     	 beq .L336
 1528 0010 5C2B     	 cmp r3,#92
 1529 0012 01D1     	 bne .L337
 1530              	.L336:
 1531 0014 3246     	 mov r2,r6
 1532 0016 01E0     	 b .L338
 1533              	.L337:
 1534 0018 7B69     	 ldr r3,[r7,#20]
 1535 001a 08E0     	 b .L421
 1536              	.L338:
 1537 001c 1378     	 ldrb r3,[r2]
 1538 001e 2F2B     	 cmp r3,#47
 1539 0020 1646     	 mov r6,r2
 1540 0022 02F10102 	 add r2,r2,#1
 1541 0026 F9D0     	 beq .L338
 1542 0028 5C2B     	 cmp r3,#92
 1543 002a F7D0     	 beq .L338
 1544 002c 0023     	 movs r3,#0
 1545              	.L421:
 1546 002e A360     	 str r3,[r4,#8]
 1547 0030 3378     	 ldrb r3,[r6]
 1548 0032 1F2B     	 cmp r3,#31
 1549 0034 3ED8     	 bhi .L342
 1550 0036 8023     	 movs r3,#128
 1551 0038 84F82F30 	 strb r3,[r4,#47]
 1552 003c 2046     	 mov r0,r4
 1553 003e 0021     	 movs r1,#0
 1554 0040 BDE8F843 	 pop {r3,r4,r5,r6,r7,r8,r9,lr}
 1555 0044 FFF7FEBF 	 b dir_sdi
 1556              	.L344:
 1557 0048 04F12300 	 add r0,r4,#35
 1558 004c 0021     	 movs r1,#0
 1559              	.L348:
 1560 004e 13F8012F 	 ldrb r2,[r3,#1]!
 1561 0052 2E2A     	 cmp r2,#46
 1562 0054 01F10101 	 add r1,r1,#1
 1563 0058 40D0     	 beq .L424
 1564 005a 2F2A     	 cmp r2,#47
 1565 005c 43D1     	 bne .L425
 1566              	.L349:
 1567 005e 212A     	 cmp r2,#33
 1568 0060 0E44     	 add r6,r6,r1
 1569 0062 34BF     	 ite cc
 1570 0064 2423     	 movcc r3,#36
 1571 0066 2023     	 movcs r3,#32
 1572              	.L423:
 1573 0068 84F82F30 	 strb r3,[r4,#47]
 1574 006c 2046     	 mov r0,r4
 1575 006e 0021     	 movs r1,#0
 1576 0070 D4F80090 	 ldr r9,[r4]
 1577 0074 FFF7FEFF 	 bl dir_sdi
 1578              	.L422:
 1579 0078 0546     	 mov r5,r0
 1580 007a 30B9     	 cbnz r0,.L364
 1581 007c 4846     	 mov r0,r9
 1582 007e E169     	 ldr r1,[r4,#28]
 1583 0080 FFF7FEFF 	 bl move_window
 1584 0084 0546     	 mov r5,r0
 1585 0086 0028     	 cmp r0,#0
 1586 0088 77D0     	 beq .L426
 1587              	.L364:
 1588 008a 94F82F30 	 ldrb r3,[r4,#47]
 1589 008e 002D     	 cmp r5,#0
 1590 0090 40F08B80 	 bne .L427
 1591 0094 5A07     	 lsls r2,r3,#29
 1592 0096 00F1A580 	 bmi .L391
 1593 009a A379     	 ldrb r3,[r4,#6]
 1594 009c DB06     	 lsls r3,r3,#27
 1595 009e 40F19880 	 bpl .L376
 1596 00a2 6169     	 ldr r1,[r4,#20]
 1597 00a4 3878     	 ldrb r0,[r7]
 1598 00a6 C1F30801 	 ubfx r1,r1,#0,#9
 1599 00aa 3944     	 add r1,r1,r7
 1600 00ac 3431     	 adds r1,r1,#52
 1601 00ae FFF7FEFF 	 bl ld_clust.isra.3
 1602 00b2 A060     	 str r0,[r4,#8]
 1603              	.L342:
 1604 00b4 04F12408 	 add r8,r4,#36
 1605 00b8 04F12F02 	 add r2,r4,#47
 1606 00bc 4346     	 mov r3,r8
 1607              	.L343:
 1608 00be 2021     	 movs r1,#32
 1609 00c0 03F8011B 	 strb r1,[r3],#1
 1610 00c4 9342     	 cmp r3,r2
 1611 00c6 FAD1     	 bne .L343
 1612 00c8 3346     	 mov r3,r6
 1613 00ca 13F80129 	 ldrb r2,[r3],#-1
 1614 00ce 2E2A     	 cmp r2,#46
 1615 00d0 BAD0     	 beq .L344
 1616 00d2 0021     	 movs r1,#0
 1617 00d4 1A46     	 mov r2,r3
 1618 00d6 0846     	 mov r0,r1
 1619 00d8 0825     	 movs r5,#8
 1620 00da 2CE0     	 b .L345
 1621              	.L424:
 1622 00dc 0329     	 cmp r1,#3
 1623 00de 7AD0     	 beq .L347
 1624 00e0 00F8012F 	 strb r2,[r0,#1]!
 1625 00e4 B3E7     	 b .L348
 1626              	.L425:
 1627 00e6 5C2A     	 cmp r2,#92
 1628 00e8 B9D0     	 beq .L349
 1629 00ea 202A     	 cmp r2,#32
 1630 00ec 73D8     	 bhi .L347
 1631 00ee B6E7     	 b .L349
 1632              	.L429:
 1633 00f0 2F2B     	 cmp r3,#47
 1634 00f2 27D0     	 beq .L353
 1635 00f4 5C2B     	 cmp r3,#92
 1636 00f6 25D0     	 beq .L353
 1637 00f8 2E2B     	 cmp r3,#46
 1638 00fa 6ED0     	 beq .L357
 1639 00fc A942     	 cmp r1,r5
 1640 00fe 6AD2     	 bcs .L347
 1641 0100 13F0800F 	 tst r3,#128
 1642 0104 1CBF     	 itt ne
 1643 0106 03F07F03 	 andne r3,r3,#127
 1644 010a DFF8E0E0 	 ldrne lr,.L430
 1645 010e DFF8E0C0 	 ldr ip,.L430+4
 1646 0112 18BF     	 it ne
 1647 0114 1EF80330 	 ldrbne r3,[lr,r3]
 1648              	.L360:
 1649 0118 1CF801EF 	 ldrb lr,[ip,#1]!
 1650 011c BEF1000F 	 cmp lr,#0
 1651 0120 19D1     	 bne .L428
 1652 0122 A3F1610E 	 sub lr,r3,#97
 1653 0126 BEF1190F 	 cmp lr,#25
 1654 012a 01D8     	 bhi .L372
 1655 012c 203B     	 subs r3,r3,#32
 1656 012e DBB2     	 uxtb r3,r3
 1657              	.L372:
 1658 0130 08F80130 	 strb r3,[r8,r1]
 1659 0134 0131     	 adds r1,r1,#1
 1660              	.L345:
 1661 0136 12F8013F 	 ldrb r3,[r2,#1]!
 1662 013a 202B     	 cmp r3,#32
 1663 013c 00F10100 	 add r0,r0,#1
 1664 0140 D6D8     	 bhi .L429
 1665 0142 0BE0     	 b .L352
 1666              	.L353:
 1667 0144 3218     	 adds r2,r6,r0
 1668              	.L355:
 1669 0146 901B     	 subs r0,r2,r6
 1670 0148 12F8015B 	 ldrb r5,[r2],#1
 1671 014c 2F2D     	 cmp r5,#47
 1672 014e FAD0     	 beq .L355
 1673 0150 5C2D     	 cmp r5,#92
 1674 0152 F8D0     	 beq .L355
 1675 0154 02E0     	 b .L352
 1676              	.L428:
 1677 0156 9E45     	 cmp lr,r3
 1678 0158 DED1     	 bne .L360
 1679 015a 3CE0     	 b .L347
 1680              	.L352:
 1681 015c 0029     	 cmp r1,#0
 1682 015e 3AD0     	 beq .L347
 1683 0160 94F82420 	 ldrb r2,[r4,#36]
 1684 0164 E52A     	 cmp r2,#229
 1685 0166 04BF     	 itt eq
 1686 0168 0522     	 moveq r2,#5
 1687 016a 84F82420 	 strbeq r2,[r4,#36]
 1688 016e 212B     	 cmp r3,#33
 1689 0170 34BF     	 ite cc
 1690 0172 0423     	 movcc r3,#4
 1691 0174 0023     	 movcs r3,#0
 1692 0176 0644     	 add r6,r6,r0
 1693 0178 76E7     	 b .L423
 1694              	.L426:
 1695 017a 206A     	 ldr r0,[r4,#32]
 1696 017c 0378     	 ldrb r3,[r0]
 1697 017e 93B1     	 cbz r3,.L375
 1698 0180 C37A     	 ldrb r3,[r0,#11]
 1699 0182 03F03F03 	 and r3,r3,#63
 1700 0186 A371     	 strb r3,[r4,#6]
 1701 0188 C37A     	 ldrb r3,[r0,#11]
 1702 018a 1907     	 lsls r1,r3,#28
 1703 018c 06D4     	 bmi .L365
 1704 018e 4146     	 mov r1,r8
 1705 0190 0B22     	 movs r2,#11
 1706 0192 FFF7FEFF 	 bl mem_cmp
 1707 0196 0028     	 cmp r0,#0
 1708 0198 3FF477AF 	 beq .L364
 1709              	.L365:
 1710 019c 2046     	 mov r0,r4
 1711 019e 0021     	 movs r1,#0
 1712 01a0 FFF7FEFF 	 bl dir_next
 1713 01a4 68E7     	 b .L422
 1714              	.L375:
 1715 01a6 0425     	 movs r5,#4
 1716 01a8 6FE7     	 b .L364
 1717              	.L427:
 1718 01aa 042D     	 cmp r5,#4
 1719 01ac 1AD1     	 bne .L391
 1720 01ae 13F0200F 	 tst r3,#32
 1721 01b2 03F00403 	 and r3,r3,#4
 1722 01b6 07D0     	 beq .L369
 1723 01b8 002B     	 cmp r3,#0
 1724 01ba 3FF47BAF 	 beq .L342
 1725 01be 8023     	 movs r3,#128
 1726 01c0 84F82F30 	 strb r3,[r4,#47]
 1727 01c4 0025     	 movs r5,#0
 1728 01c6 0DE0     	 b .L391
 1729              	.L369:
 1730 01c8 002B     	 cmp r3,#0
 1731 01ca 14BF     	 ite ne
 1732 01cc 0425     	 movne r5,#4
 1733 01ce 0525     	 moveq r5,#5
 1734 01d0 08E0     	 b .L391
 1735              	.L376:
 1736 01d2 0525     	 movs r5,#5
 1737 01d4 06E0     	 b .L391
 1738              	.L347:
 1739 01d6 0625     	 movs r5,#6
 1740 01d8 04E0     	 b .L391
 1741              	.L357:
 1742 01da 0B2D     	 cmp r5,#11
 1743 01dc FBD0     	 beq .L347
 1744 01de 0821     	 movs r1,#8
 1745 01e0 0B25     	 movs r5,#11
 1746 01e2 A8E7     	 b .L345
 1747              	.L391:
 1748 01e4 2846     	 mov r0,r5
 1749 01e6 BDE8F883 	 pop {r3,r4,r5,r6,r7,r8,r9,pc}
 1750              	.L431:
 1751 01ea 00BF     	 .align 2
 1752              	.L430:
 1753 01ec 00000000 	 .word .LANCHOR4
 1754 01f0 FFFFFFFF 	 .word .LC2-1
 1756              	 .section .text.dir_read.constprop.12,"ax",%progbits
 1757              	 .align 1
 1758              	 .thumb
 1759              	 .thumb_func
 1761              	dir_read.constprop.12:
 1762              	 
 1763              	 
 1764 0000 38B5     	 push {r3,r4,r5,lr}
 1765 0002 0446     	 mov r4,r0
 1766 0004 0568     	 ldr r5,[r0]
 1767 0006 0420     	 movs r0,#4
 1768              	.L433:
 1769 0008 E169     	 ldr r1,[r4,#28]
 1770 000a E9B1     	 cbz r1,.L457
 1771 000c 2846     	 mov r0,r5
 1772 000e FFF7FEFF 	 bl move_window
 1773 0012 D8B9     	 cbnz r0,.L439
 1774 0014 236A     	 ldr r3,[r4,#32]
 1775 0016 1A78     	 ldrb r2,[r3]
 1776 0018 DAB1     	 cbz r2,.L440
 1777 001a DB7A     	 ldrb r3,[r3,#11]
 1778 001c E52A     	 cmp r2,#229
 1779 001e 03F03F03 	 and r3,r3,#63
 1780 0022 A371     	 strb r3,[r4,#6]
 1781 0024 09D0     	 beq .L435
 1782 0026 2E2A     	 cmp r2,#46
 1783 0028 07D0     	 beq .L435
 1784 002a 0F2B     	 cmp r3,#15
 1785 002c 05D0     	 beq .L435
 1786 002e 23F02003 	 bic r3,r3,#32
 1787 0032 082B     	 cmp r3,#8
 1788 0034 01D0     	 beq .L435
 1789              	.L438:
 1790 0036 0020     	 movs r0,#0
 1791 0038 38BD     	 pop {r3,r4,r5,pc}
 1792              	.L435:
 1793 003a 2046     	 mov r0,r4
 1794 003c 0021     	 movs r1,#0
 1795 003e FFF7FEFF 	 bl dir_next
 1796 0042 0028     	 cmp r0,#0
 1797 0044 E0D0     	 beq .L433
 1798 0046 01E0     	 b .L439
 1799              	.L457:
 1800 0048 0028     	 cmp r0,#0
 1801 004a F4D0     	 beq .L438
 1802              	.L439:
 1803 004c 0023     	 movs r3,#0
 1804 004e E361     	 str r3,[r4,#28]
 1805 0050 38BD     	 pop {r3,r4,r5,pc}
 1806              	.L440:
 1807 0052 0420     	 movs r0,#4
 1808 0054 FAE7     	 b .L439
 1810              	 .section .text.dir_register,"ax",%progbits
 1811              	 .align 1
 1812              	 .thumb
 1813              	 .thumb_func
 1815              	dir_register:
 1816              	 
 1817              	 
 1818 0000 70B5     	 push {r4,r5,r6,lr}
 1819 0002 0021     	 movs r1,#0
 1820 0004 0546     	 mov r5,r0
 1821 0006 0668     	 ldr r6,[r0]
 1822 0008 FFF7FEFF 	 bl dir_sdi
 1823              	.L475:
 1824 000c 0446     	 mov r4,r0
 1825 000e 78B9     	 cbnz r0,.L459
 1826 0010 3046     	 mov r0,r6
 1827 0012 E969     	 ldr r1,[r5,#28]
 1828 0014 FFF7FEFF 	 bl move_window
 1829 0018 0446     	 mov r4,r0
 1830 001a 48B9     	 cbnz r0,.L459
 1831 001c 2B6A     	 ldr r3,[r5,#32]
 1832 001e 1B78     	 ldrb r3,[r3]
 1833 0020 E52B     	 cmp r3,#229
 1834 0022 09D0     	 beq .L460
 1835 0024 43B1     	 cbz r3,.L460
 1836 0026 2846     	 mov r0,r5
 1837 0028 0121     	 movs r1,#1
 1838 002a FFF7FEFF 	 bl dir_next
 1839 002e EDE7     	 b .L475
 1840              	.L459:
 1841 0030 042C     	 cmp r4,#4
 1842 0032 08BF     	 it eq
 1843 0034 0724     	 moveq r4,#7
 1844 0036 15E0     	 b .L468
 1845              	.L460:
 1846 0038 3046     	 mov r0,r6
 1847 003a E969     	 ldr r1,[r5,#28]
 1848 003c FFF7FEFF 	 bl move_window
 1849 0040 0446     	 mov r4,r0
 1850 0042 78B9     	 cbnz r0,.L468
 1851 0044 2B6A     	 ldr r3,[r5,#32]
 1852 0046 03F12002 	 add r2,r3,#32
 1853              	.L462:
 1854 004a 0021     	 movs r1,#0
 1855 004c 03F8011B 	 strb r1,[r3],#1
 1856 0050 9342     	 cmp r3,r2
 1857 0052 FAD1     	 bne .L462
 1858 0054 286A     	 ldr r0,[r5,#32]
 1859 0056 05F12401 	 add r1,r5,#36
 1860 005a 0B22     	 movs r2,#11
 1861 005c FFF7FEFF 	 bl mem_cpy.part.0
 1862 0060 0123     	 movs r3,#1
 1863 0062 F370     	 strb r3,[r6,#3]
 1864              	.L468:
 1865 0064 2046     	 mov r0,r4
 1866 0066 70BD     	 pop {r4,r5,r6,pc}
 1868              	 .section .text.sync_fs,"ax",%progbits
 1869              	 .align 1
 1870              	 .thumb
 1871              	 .thumb_func
 1873              	sync_fs:
 1874              	 
 1875              	 
 1876 0000 70B5     	 push {r4,r5,r6,lr}
 1877 0002 C378     	 ldrb r3,[r0,#3]
 1878 0004 0446     	 mov r4,r0
 1879 0006 1BB9     	 cbnz r3,.L477
 1880              	.L480:
 1881 0008 2378     	 ldrb r3,[r4]
 1882 000a 032B     	 cmp r3,#3
 1883 000c 3FD1     	 bne .L479
 1884 000e 04E0     	 b .L487
 1885              	.L477:
 1886 0010 FFF7FEFF 	 bl sync_window.part.6
 1887 0014 0028     	 cmp r0,#0
 1888 0016 42D1     	 bne .L481
 1889 0018 F6E7     	 b .L480
 1890              	.L487:
 1891 001a 2379     	 ldrb r3,[r4,#4]
 1892 001c 012B     	 cmp r3,#1
 1893 001e 36D1     	 bne .L479
 1894 0020 04F13406 	 add r6,r4,#52
 1895 0024 04F50D72 	 add r2,r4,#564
 1896 0028 3346     	 mov r3,r6
 1897              	.L482:
 1898 002a 0025     	 movs r5,#0
 1899 002c 03F8015B 	 strb r5,[r3],#1
 1900 0030 9342     	 cmp r3,r2
 1901 0032 FAD1     	 bne .L482
 1902 0034 5523     	 movs r3,#85
 1903 0036 84F83232 	 strb r3,[r4,#562]
 1904 003a AA23     	 movs r3,#170
 1905 003c 84F83332 	 strb r3,[r4,#563]
 1906 0040 5223     	 movs r3,#82
 1907 0042 4122     	 movs r2,#65
 1908 0044 7221     	 movs r1,#114
 1909 0046 84F83430 	 strb r3,[r4,#52]
 1910 004a 84F83530 	 strb r3,[r4,#53]
 1911 004e 6123     	 movs r3,#97
 1912 0050 84F83630 	 strb r3,[r4,#54]
 1913 0054 84F83720 	 strb r2,[r4,#55]
 1914 0058 84F81A22 	 strb r2,[r4,#538]
 1915 005c 84F81B32 	 strb r3,[r4,#539]
 1916 0060 84F81812 	 strb r1,[r4,#536]
 1917 0064 84F81912 	 strb r1,[r4,#537]
 1918 0068 04F50770 	 add r0,r4,#540
 1919 006c 2169     	 ldr r1,[r4,#16]
 1920 006e FFF7FEFF 	 bl st_dword
 1921 0072 04F50870 	 add r0,r4,#544
 1922 0076 E168     	 ldr r1,[r4,#12]
 1923 0078 FFF7FEFF 	 bl st_dword
 1924 007c 226A     	 ldr r2,[r4,#32]
 1925 007e 6078     	 ldrb r0,[r4,#1]
 1926 0080 0132     	 adds r2,r2,#1
 1927 0082 2263     	 str r2,[r4,#48]
 1928 0084 3146     	 mov r1,r6
 1929 0086 0123     	 movs r3,#1
 1930 0088 FFF7FEFF 	 bl disk_write
 1931 008c 2571     	 strb r5,[r4,#4]
 1932              	.L479:
 1933 008e 0021     	 movs r1,#0
 1934 0090 6078     	 ldrb r0,[r4,#1]
 1935 0092 0A46     	 mov r2,r1
 1936 0094 FFF7FEFF 	 bl disk_ioctl
 1937 0098 0030     	 adds r0,r0,#0
 1938 009a 18BF     	 it ne
 1939 009c 0120     	 movne r0,#1
 1940              	.L481:
 1941 009e 70BD     	 pop {r4,r5,r6,pc}
 1943              	 .section .text.f_mount,"ax",%progbits
 1944              	 .align 1
 1945              	 .global f_mount
 1946              	 .thumb
 1947              	 .thumb_func
 1949              	f_mount:
 1950              	 
 1951              	 
 1952 0000 30B5     	 push {r4,r5,lr}
 1953 0002 85B0     	 sub sp,sp,#20
 1954 0004 1446     	 mov r4,r2
 1955 0006 0190     	 str r0,[sp,#4]
 1956 0008 04A8     	 add r0,sp,#16
 1957 000a 0091     	 str r1,[sp]
 1958 000c 40F8041D 	 str r1,[r0,#-4]!
 1959 0010 FFF7FEFF 	 bl get_ldnumber
 1960 0014 0028     	 cmp r0,#0
 1961 0016 20DB     	 blt .L494
 1962 0018 124B     	 ldr r3,.L502
 1963 001a 53F82010 	 ldr r1,[r3,r0,lsl#2]
 1964 001e 1A46     	 mov r2,r3
 1965 0020 71B1     	 cbz r1,.L490
 1966 0022 114B     	 ldr r3,.L502+4
 1967 0024 1D68     	 ldr r5,[r3]
 1968 0026 8D42     	 cmp r5,r1
 1969 0028 04BF     	 itt eq
 1970 002a 0025     	 moveq r5,#0
 1971 002c 1D60     	 streq r5,[r3]
 1972 002e 1B69     	 ldr r3,[r3,#16]
 1973 0030 8B42     	 cmp r3,r1
 1974 0032 08BF     	 it eq
 1975 0034 0C4D     	 ldreq r5,.L502+4
 1976 0036 4FF00003 	 mov r3,#0
 1977 003a 08BF     	 it eq
 1978 003c 2B61     	 streq r3,[r5,#16]
 1979 003e 0B70     	 strb r3,[r1]
 1980              	.L490:
 1981 0040 019B     	 ldr r3,[sp,#4]
 1982 0042 0BB1     	 cbz r3,.L493
 1983 0044 0021     	 movs r1,#0
 1984 0046 1970     	 strb r1,[r3]
 1985              	.L493:
 1986 0048 42F82030 	 str r3,[r2,r0,lsl#2]
 1987 004c 3CB1     	 cbz r4,.L495
 1988 004e 6846     	 mov r0,sp
 1989 0050 01A9     	 add r1,sp,#4
 1990 0052 0022     	 movs r2,#0
 1991 0054 FFF7FEFF 	 bl find_volume
 1992 0058 02E0     	 b .L489
 1993              	.L494:
 1994 005a 0B20     	 movs r0,#11
 1995 005c 00E0     	 b .L489
 1996              	.L495:
 1997 005e 2046     	 mov r0,r4
 1998              	.L489:
 1999 0060 05B0     	 add sp,sp,#20
 2000              	 
 2001 0062 30BD     	 pop {r4,r5,pc}
 2002              	.L503:
 2003              	 .align 2
 2004              	.L502:
 2005 0064 00000000 	 .word .LANCHOR2
 2006 0068 00000000 	 .word .LANCHOR0
 2008              	 .section .text.f_open,"ax",%progbits
 2009              	 .align 1
 2010              	 .global f_open
 2011              	 .thumb
 2012              	 .thumb_func
 2014              	f_open:
 2015              	 
 2016              	 
 2017 0000 2DE9F041 	 push {r4,r5,r6,r7,r8,lr}
 2018 0004 90B0     	 sub sp,sp,#64
 2019 0006 1746     	 mov r7,r2
 2020 0008 0191     	 str r1,[sp,#4]
 2021 000a 0446     	 mov r4,r0
 2022 000c 0028     	 cmp r0,#0
 2023 000e 00F0DE80 	 beq .L527
 2024 0012 02F03F05 	 and r5,r2,#63
 2025 0016 01A8     	 add r0,sp,#4
 2026 0018 03A9     	 add r1,sp,#12
 2027 001a 2A46     	 mov r2,r5
 2028 001c FFF7FEFF 	 bl find_volume
 2029 0020 0028     	 cmp r0,#0
 2030 0022 40F0E580 	 bne .L506
 2031 0026 10AE     	 add r6,sp,#64
 2032 0028 039B     	 ldr r3,[sp,#12]
 2033 002a 46F8303D 	 str r3,[r6,#-48]!
 2034 002e 0199     	 ldr r1,[sp,#4]
 2035 0030 3046     	 mov r0,r6
 2036 0032 FFF7FEFF 	 bl follow_path
 2037 0036 68B9     	 cbnz r0,.L507
 2038 0038 9DF93F30 	 ldrsb r3,[sp,#63]
 2039 003c 002B     	 cmp r3,#0
 2040 003e 08DB     	 blt .L529
 2041 0040 15F03E0F 	 tst r5,#62
 2042 0044 3046     	 mov r0,r6
 2043 0046 14BF     	 ite ne
 2044 0048 0121     	 movne r1,#1
 2045 004a 0021     	 moveq r1,#0
 2046 004c FFF7FEFF 	 bl chk_lock
 2047 0050 00E0     	 b .L507
 2048              	.L529:
 2049 0052 0620     	 movs r0,#6
 2050              	.L507:
 2051 0054 17F01C0F 	 tst r7,#28
 2052 0058 4ED0     	 beq .L508
 2053 005a 78B1     	 cbz r0,.L509
 2054 005c 0428     	 cmp r0,#4
 2055 005e 09D1     	 bne .L510
 2056 0060 664B     	 ldr r3,.L576
 2057 0062 1A68     	 ldr r2,[r3]
 2058 0064 002A     	 cmp r2,#0
 2059 0066 00F0B480 	 beq .L511
 2060 006a 1B69     	 ldr r3,[r3,#16]
 2061 006c 002B     	 cmp r3,#0
 2062 006e 00F0B080 	 beq .L511
 2063 0072 1220     	 movs r0,#18
 2064              	.L510:
 2065 0074 45F00805 	 orr r5,r5,#8
 2066 0078 48B1     	 cbz r0,.L512
 2067 007a B9E0     	 b .L506
 2068              	.L509:
 2069 007c 9DF81630 	 ldrb r3,[sp,#22]
 2070 0080 13F0110F 	 tst r3,#17
 2071 0084 40F0AD80 	 bne .L533
 2072 0088 7B07     	 lsls r3,r7,#29
 2073 008a 00F1A680 	 bmi .L531
 2074              	.L512:
 2075 008e 2F07     	 lsls r7,r5,#28
 2076 0090 3CD5     	 bpl .L516
 2077 0092 039B     	 ldr r3,[sp,#12]
 2078 0094 DDF83080 	 ldr r8,[sp,#48]
 2079 0098 1878     	 ldrb r0,[r3]
 2080 009a 4146     	 mov r1,r8
 2081 009c FFF7FEFF 	 bl ld_clust.isra.3
 2082 00a0 0746     	 mov r7,r0
 2083 00a2 FFF7FEFF 	 bl get_fattime
 2084 00a6 0146     	 mov r1,r0
 2085 00a8 08F10E00 	 add r0,r8,#14
 2086 00ac FFF7FEFF 	 bl st_dword
 2087 00b0 0C9B     	 ldr r3,[sp,#48]
 2088 00b2 0398     	 ldr r0,[sp,#12]
 2089 00b4 2022     	 movs r2,#32
 2090 00b6 DA72     	 strb r2,[r3,#11]
 2091 00b8 0C99     	 ldr r1,[sp,#48]
 2092 00ba 0022     	 movs r2,#0
 2093 00bc FFF7FEFF 	 bl st_clust.isra.4
 2094 00c0 0C9B     	 ldr r3,[sp,#48]
 2095 00c2 0022     	 movs r2,#0
 2096 00c4 1A77     	 strb r2,[r3,#28]
 2097 00c6 5A77     	 strb r2,[r3,#29]
 2098 00c8 9A77     	 strb r2,[r3,#30]
 2099 00ca DA77     	 strb r2,[r3,#31]
 2100 00cc 039B     	 ldr r3,[sp,#12]
 2101 00ce 0121     	 movs r1,#1
 2102 00d0 D970     	 strb r1,[r3,#3]
 2103 00d2 DFB1     	 cbz r7,.L516
 2104 00d4 3046     	 mov r0,r6
 2105 00d6 3946     	 mov r1,r7
 2106 00d8 D3F83080 	 ldr r8,[r3,#48]
 2107 00dc FFF7FEFF 	 bl remove_chain
 2108 00e0 0028     	 cmp r0,#0
 2109 00e2 40F08580 	 bne .L506
 2110 00e6 0398     	 ldr r0,[sp,#12]
 2111 00e8 4146     	 mov r1,r8
 2112 00ea FFF7FEFF 	 bl move_window
 2113 00ee 039B     	 ldr r3,[sp,#12]
 2114 00f0 013F     	 subs r7,r7,#1
 2115 00f2 DF60     	 str r7,[r3,#12]
 2116 00f4 50B1     	 cbz r0,.L516
 2117 00f6 7BE0     	 b .L506
 2118              	.L508:
 2119 00f8 0028     	 cmp r0,#0
 2120 00fa 79D1     	 bne .L506
 2121 00fc 9DF81630 	 ldrb r3,[sp,#22]
 2122 0100 D806     	 lsls r0,r3,#27
 2123 0102 6CD4     	 bmi .L532
 2124 0104 BA07     	 lsls r2,r7,#30
 2125 0106 01D5     	 bpl .L516
 2126 0108 DF07     	 lsls r7,r3,#31
 2127 010a 6AD4     	 bmi .L533
 2128              	.L516:
 2129 010c 039B     	 ldr r3,[sp,#12]
 2130 010e 2807     	 lsls r0,r5,#28
 2131 0110 1B6B     	 ldr r3,[r3,#48]
 2132 0112 6362     	 str r3,[r4,#36]
 2133 0114 48BF     	 it mi
 2134 0116 45F04005 	 orrmi r5,r5,#64
 2135 011a 15F0FE0F 	 tst r5,#254
 2136 011e 0C9B     	 ldr r3,[sp,#48]
 2137 0120 A362     	 str r3,[r4,#40]
 2138 0122 3046     	 mov r0,r6
 2139 0124 14BF     	 ite ne
 2140 0126 0121     	 movne r1,#1
 2141 0128 0021     	 moveq r1,#0
 2142 012a FFF7FEFF 	 bl inc_lock
 2143 012e 2061     	 str r0,[r4,#16]
 2144 0130 0028     	 cmp r0,#0
 2145 0132 5AD0     	 beq .L537
 2146 0134 039F     	 ldr r7,[sp,#12]
 2147 0136 0C9E     	 ldr r6,[sp,#48]
 2148 0138 3878     	 ldrb r0,[r7]
 2149 013a 3146     	 mov r1,r6
 2150 013c FFF7FEFF 	 bl ld_clust.isra.3
 2151 0140 A060     	 str r0,[r4,#8]
 2152 0142 06F11C00 	 add r0,r6,#28
 2153 0146 FFF7FEFF 	 bl ld_dword
 2154 014a FB88     	 ldrh r3,[r7,#6]
 2155 014c A380     	 strh r3,[r4,#4]
 2156 014e 04F12C06 	 add r6,r4,#44
 2157 0152 0023     	 movs r3,#0
 2158 0154 6375     	 strb r3,[r4,#21]
 2159 0156 2362     	 str r3,[r4,#32]
 2160 0158 A361     	 str r3,[r4,#24]
 2161 015a E060     	 str r0,[r4,#12]
 2162 015c 2760     	 str r7,[r4]
 2163 015e 2575     	 strb r5,[r4,#20]
 2164 0160 04F50B72 	 add r2,r4,#556
 2165 0164 3346     	 mov r3,r6
 2166              	.L520:
 2167 0166 0021     	 movs r1,#0
 2168 0168 03F8011B 	 strb r1,[r3],#1
 2169 016c 9342     	 cmp r3,r2
 2170 016e FAD1     	 bne .L520
 2171 0170 AA06     	 lsls r2,r5,#26
 2172 0172 38D5     	 bpl .L521
 2173 0174 E568     	 ldr r5,[r4,#12]
 2174 0176 002D     	 cmp r5,#0
 2175 0178 35D0     	 beq .L521
 2176 017a 7F89     	 ldrh r7,[r7,#10]
 2177 017c A168     	 ldr r1,[r4,#8]
 2178 017e A561     	 str r5,[r4,#24]
 2179 0180 7F02     	 lsls r7,r7,#9
 2180              	.L522:
 2181 0182 BD42     	 cmp r5,r7
 2182 0184 0ED9     	 bls .L575
 2183 0186 2068     	 ldr r0,[r4]
 2184 0188 FFF7FEFF 	 bl get_fat.isra.10
 2185 018c 0128     	 cmp r0,#1
 2186 018e 0146     	 mov r1,r0
 2187 0190 03D9     	 bls .L535
 2188 0192 431C     	 adds r3,r0,#1
 2189 0194 5842     	 rsbs r0,r3,#0
 2190 0196 5841     	 adcs r0,r0,r3
 2191 0198 00E0     	 b .L524
 2192              	.L535:
 2193 019a 0220     	 movs r0,#2
 2194              	.L524:
 2195 019c ED1B     	 subs r5,r5,r7
 2196 019e 0028     	 cmp r0,#0
 2197 01a0 EFD0     	 beq .L522
 2198 01a2 00E0     	 b .L525
 2199              	.L575:
 2200 01a4 0020     	 movs r0,#0
 2201              	.L525:
 2202 01a6 E161     	 str r1,[r4,#28]
 2203 01a8 10BB     	 cbnz r0,.L506
 2204 01aa C5F30803 	 ubfx r3,r5,#0,#9
 2205 01ae D3B1     	 cbz r3,.L521
 2206 01b0 039F     	 ldr r7,[sp,#12]
 2207 01b2 3846     	 mov r0,r7
 2208 01b4 FFF7FEFF 	 bl clst2sect
 2209 01b8 B8B1     	 cbz r0,.L537
 2210 01ba 00EB5522 	 add r2,r0,r5,lsr#9
 2211 01be 2262     	 str r2,[r4,#32]
 2212 01c0 7878     	 ldrb r0,[r7,#1]
 2213 01c2 3146     	 mov r1,r6
 2214 01c4 0123     	 movs r3,#1
 2215 01c6 FFF7FEFF 	 bl disk_read
 2216 01ca 80B9     	 cbnz r0,.L538
 2217 01cc 0BE0     	 b .L521
 2218              	.L527:
 2219 01ce 0920     	 movs r0,#9
 2220 01d0 10E0     	 b .L574
 2221              	.L511:
 2222 01d2 3046     	 mov r0,r6
 2223 01d4 FFF7FEFF 	 bl dir_register
 2224 01d8 4CE7     	 b .L510
 2225              	.L531:
 2226 01da 0820     	 movs r0,#8
 2227 01dc 08E0     	 b .L506
 2228              	.L532:
 2229 01de 0420     	 movs r0,#4
 2230 01e0 06E0     	 b .L506
 2231              	.L533:
 2232 01e2 0720     	 movs r0,#7
 2233 01e4 04E0     	 b .L506
 2234              	.L521:
 2235 01e6 0020     	 movs r0,#0
 2236 01e8 04E0     	 b .L574
 2237              	.L537:
 2238 01ea 0220     	 movs r0,#2
 2239 01ec 00E0     	 b .L506
 2240              	.L538:
 2241 01ee 0120     	 movs r0,#1
 2242              	.L506:
 2243 01f0 0023     	 movs r3,#0
 2244 01f2 2360     	 str r3,[r4]
 2245              	.L574:
 2246 01f4 10B0     	 add sp,sp,#64
 2247              	 
 2248 01f6 BDE8F081 	 pop {r4,r5,r6,r7,r8,pc}
 2249              	.L577:
 2250 01fa 00BF     	 .align 2
 2251              	.L576:
 2252 01fc 00000000 	 .word .LANCHOR0
 2254              	 .section .text.f_read,"ax",%progbits
 2255              	 .align 1
 2256              	 .global f_read
 2257              	 .thumb
 2258              	 .thumb_func
 2260              	f_read:
 2261              	 
 2262              	 
 2263 0000 2DE9F74F 	 push {r0,r1,r2,r4,r5,r6,r7,r8,r9,r10,fp,lr}
 2264 0004 9846     	 mov r8,r3
 2265 0006 0023     	 movs r3,#0
 2266 0008 0F46     	 mov r7,r1
 2267 000a C8F80030 	 str r3,[r8]
 2268 000e 01A9     	 add r1,sp,#4
 2269 0010 0546     	 mov r5,r0
 2270 0012 1446     	 mov r4,r2
 2271 0014 FFF7FEFF 	 bl validate
 2272 0018 0028     	 cmp r0,#0
 2273 001a 40F09B80 	 bne .L579
 2274 001e 687D     	 ldrb r0,[r5,#21]
 2275 0020 0028     	 cmp r0,#0
 2276 0022 40F09780 	 bne .L579
 2277 0026 2B7D     	 ldrb r3,[r5,#20]
 2278 0028 DA07     	 lsls r2,r3,#31
 2279 002a 40F19280 	 bpl .L598
 2280 002e EB68     	 ldr r3,[r5,#12]
 2281 0030 A869     	 ldr r0,[r5,#24]
 2282 0032 181A     	 subs r0,r3,r0
 2283 0034 8442     	 cmp r4,r0
 2284 0036 28BF     	 it cs
 2285 0038 0446     	 movcs r4,r0
 2286              	.L580:
 2287 003a 002C     	 cmp r4,#0
 2288 003c 00F08780 	 beq .L603
 2289 0040 AB69     	 ldr r3,[r5,#24]
 2290 0042 C3F30802 	 ubfx r2,r3,#0,#9
 2291 0046 002A     	 cmp r2,#0
 2292 0048 68D1     	 bne .L581
 2293 004a 019A     	 ldr r2,[sp,#4]
 2294 004c B2F80AA0 	 ldrh r10,[r2,#10]
 2295 0050 0AF1FF3A 	 add r10,r10,#-1
 2296 0054 1AEA532A 	 ands r10,r10,r3,lsr#9
 2297 0058 10D1     	 bne .L582
 2298 005a 0BB9     	 cbnz r3,.L583
 2299 005c A868     	 ldr r0,[r5,#8]
 2300 005e 03E0     	 b .L584
 2301              	.L583:
 2302 0060 2868     	 ldr r0,[r5]
 2303 0062 E969     	 ldr r1,[r5,#28]
 2304 0064 FFF7FEFF 	 bl get_fat.isra.10
 2305              	.L584:
 2306 0068 0128     	 cmp r0,#1
 2307 006a 01D8     	 bhi .L585
 2308              	.L587:
 2309 006c 0220     	 movs r0,#2
 2310 006e 02E0     	 b .L602
 2311              	.L585:
 2312 0070 431C     	 adds r3,r0,#1
 2313 0072 02D1     	 bne .L586
 2314              	.L590:
 2315 0074 0120     	 movs r0,#1
 2316              	.L602:
 2317 0076 6875     	 strb r0,[r5,#21]
 2318 0078 6CE0     	 b .L579
 2319              	.L586:
 2320 007a E861     	 str r0,[r5,#28]
 2321              	.L582:
 2322 007c DDF804B0 	 ldr fp,[sp,#4]
 2323 0080 E969     	 ldr r1,[r5,#28]
 2324 0082 5846     	 mov r0,fp
 2325 0084 FFF7FEFF 	 bl clst2sect
 2326 0088 0028     	 cmp r0,#0
 2327 008a EFD0     	 beq .L587
 2328 008c 660A     	 lsrs r6,r4,#9
 2329 008e 00EB0A09 	 add r9,r0,r10
 2330 0092 23D0     	 beq .L588
 2331 0094 BBF80A30 	 ldrh r3,[fp,#10]
 2332 0098 9BF80100 	 ldrb r0,[fp,#1]
 2333 009c 06EB0A02 	 add r2,r6,r10
 2334 00a0 9A42     	 cmp r2,r3
 2335 00a2 88BF     	 it hi
 2336 00a4 CAEB0306 	 rsbhi r6,r10,r3
 2337 00a8 3946     	 mov r1,r7
 2338 00aa 4A46     	 mov r2,r9
 2339 00ac 3346     	 mov r3,r6
 2340 00ae FFF7FEFF 	 bl disk_read
 2341 00b2 0028     	 cmp r0,#0
 2342 00b4 DED1     	 bne .L590
 2343 00b6 95F91430 	 ldrsb r3,[r5,#20]
 2344 00ba 002B     	 cmp r3,#0
 2345 00bc 0CDA     	 bge .L591
 2346 00be 286A     	 ldr r0,[r5,#32]
 2347 00c0 C9EB0000 	 rsb r0,r9,r0
 2348 00c4 B042     	 cmp r0,r6
 2349 00c6 07D2     	 bcs .L591
 2350 00c8 07EB4020 	 add r0,r7,r0,lsl#9
 2351 00cc 05F12C01 	 add r1,r5,#44
 2352 00d0 4FF40072 	 mov r2,#512
 2353 00d4 FFF7FEFF 	 bl mem_cpy.part.0
 2354              	.L591:
 2355 00d8 7602     	 lsls r6,r6,#9
 2356 00da 2DE0     	 b .L592
 2357              	.L588:
 2358 00dc 2A6A     	 ldr r2,[r5,#32]
 2359 00de 4A45     	 cmp r2,r9
 2360 00e0 1AD0     	 beq .L593
 2361 00e2 95F91430 	 ldrsb r3,[r5,#20]
 2362 00e6 002B     	 cmp r3,#0
 2363 00e8 05F12C06 	 add r6,r5,#44
 2364 00ec 0BDA     	 bge .L594
 2365 00ee 9BF80100 	 ldrb r0,[fp,#1]
 2366 00f2 3146     	 mov r1,r6
 2367 00f4 0123     	 movs r3,#1
 2368 00f6 FFF7FEFF 	 bl disk_write
 2369 00fa 0028     	 cmp r0,#0
 2370 00fc BAD1     	 bne .L590
 2371 00fe 2B7D     	 ldrb r3,[r5,#20]
 2372 0100 03F07F03 	 and r3,r3,#127
 2373 0104 2B75     	 strb r3,[r5,#20]
 2374              	.L594:
 2375 0106 019B     	 ldr r3,[sp,#4]
 2376 0108 3146     	 mov r1,r6
 2377 010a 5878     	 ldrb r0,[r3,#1]
 2378 010c 4A46     	 mov r2,r9
 2379 010e 0123     	 movs r3,#1
 2380 0110 FFF7FEFF 	 bl disk_read
 2381 0114 0028     	 cmp r0,#0
 2382 0116 ADD1     	 bne .L590
 2383              	.L593:
 2384 0118 C5F82090 	 str r9,[r5,#32]
 2385              	.L581:
 2386 011c A969     	 ldr r1,[r5,#24]
 2387 011e C1F30801 	 ubfx r1,r1,#0,#9
 2388 0122 C1F50076 	 rsb r6,r1,#512
 2389 0126 A642     	 cmp r6,r4
 2390 0128 28BF     	 it cs
 2391 012a 2646     	 movcs r6,r4
 2392 012c 2944     	 add r1,r1,r5
 2393 012e 3846     	 mov r0,r7
 2394 0130 2C31     	 adds r1,r1,#44
 2395 0132 3246     	 mov r2,r6
 2396 0134 FFF7FEFF 	 bl mem_cpy.part.0
 2397              	.L592:
 2398 0138 D8F80030 	 ldr r3,[r8]
 2399 013c 3344     	 add r3,r3,r6
 2400 013e C8F80030 	 str r3,[r8]
 2401 0142 AB69     	 ldr r3,[r5,#24]
 2402 0144 A41B     	 subs r4,r4,r6
 2403 0146 3744     	 add r7,r7,r6
 2404 0148 1E44     	 add r6,r6,r3
 2405 014a AE61     	 str r6,[r5,#24]
 2406 014c 75E7     	 b .L580
 2407              	.L603:
 2408 014e 2046     	 mov r0,r4
 2409 0150 00E0     	 b .L579
 2410              	.L598:
 2411 0152 0720     	 movs r0,#7
 2412              	.L579:
 2413 0154 03B0     	 add sp,sp,#12
 2414              	 
 2415 0156 BDE8F08F 	 pop {r4,r5,r6,r7,r8,r9,r10,fp,pc}
 2417              	 .section .text.f_write,"ax",%progbits
 2418              	 .align 1
 2419              	 .global f_write
 2420              	 .thumb
 2421              	 .thumb_func
 2423              	f_write:
 2424              	 
 2425              	 
 2426 0000 2DE9F74F 	 push {r0,r1,r2,r4,r5,r6,r7,r8,r9,r10,fp,lr}
 2427 0004 9846     	 mov r8,r3
 2428 0006 0023     	 movs r3,#0
 2429 0008 0F46     	 mov r7,r1
 2430 000a C8F80030 	 str r3,[r8]
 2431 000e 01A9     	 add r1,sp,#4
 2432 0010 0446     	 mov r4,r0
 2433 0012 1646     	 mov r6,r2
 2434 0014 FFF7FEFF 	 bl validate
 2435 0018 0028     	 cmp r0,#0
 2436 001a 40F0B680 	 bne .L605
 2437 001e 607D     	 ldrb r0,[r4,#21]
 2438 0020 0028     	 cmp r0,#0
 2439 0022 40F0B280 	 bne .L605
 2440 0026 237D     	 ldrb r3,[r4,#20]
 2441 0028 9A07     	 lsls r2,r3,#30
 2442 002a 40F1AD80 	 bpl .L629
 2443 002e A369     	 ldr r3,[r4,#24]
 2444 0030 DE42     	 cmn r6,r3
 2445 0032 51D3     	 bcc .L607
 2446 0034 DE43     	 mvns r6,r3
 2447 0036 4FE0     	 b .L607
 2448              	.L625:
 2449 0038 A369     	 ldr r3,[r4,#24]
 2450 003a C3F30802 	 ubfx r2,r3,#0,#9
 2451 003e 002A     	 cmp r2,#0
 2452 0040 40F08F80 	 bne .L608
 2453 0044 019A     	 ldr r2,[sp,#4]
 2454 0046 B2F80AA0 	 ldrh r10,[r2,#10]
 2455 004a 0AF1FF3A 	 add r10,r10,#-1
 2456 004e 1AEA532A 	 ands r10,r10,r3,lsr#9
 2457 0052 44D0     	 beq .L635
 2458              	.L610:
 2459 0054 94F91430 	 ldrsb r3,[r4,#20]
 2460 0058 002B     	 cmp r3,#0
 2461 005a 60DB     	 blt .L636
 2462              	.L617:
 2463 005c DDF804B0 	 ldr fp,[sp,#4]
 2464 0060 E169     	 ldr r1,[r4,#28]
 2465 0062 5846     	 mov r0,fp
 2466 0064 FFF7FEFF 	 bl clst2sect
 2467 0068 0028     	 cmp r0,#0
 2468 006a 4BD0     	 beq .L619
 2469 006c 750A     	 lsrs r5,r6,#9
 2470 006e 00EB0A09 	 add r9,r0,r10
 2471 0072 63D0     	 beq .L620
 2472 0074 BBF80A30 	 ldrh r3,[fp,#10]
 2473 0078 9BF80100 	 ldrb r0,[fp,#1]
 2474 007c 05EB0A02 	 add r2,r5,r10
 2475 0080 9A42     	 cmp r2,r3
 2476 0082 88BF     	 it hi
 2477 0084 CAEB0305 	 rsbhi r5,r10,r3
 2478 0088 3946     	 mov r1,r7
 2479 008a 4A46     	 mov r2,r9
 2480 008c 2B46     	 mov r3,r5
 2481 008e FFF7FEFF 	 bl disk_write
 2482 0092 0028     	 cmp r0,#0
 2483 0094 3AD1     	 bne .L618
 2484 0096 216A     	 ldr r1,[r4,#32]
 2485 0098 C9EB0101 	 rsb r1,r9,r1
 2486 009c A942     	 cmp r1,r5
 2487 009e 0BD2     	 bcs .L622
 2488 00a0 04F12C00 	 add r0,r4,#44
 2489 00a4 07EB4121 	 add r1,r7,r1,lsl#9
 2490 00a8 4FF40072 	 mov r2,#512
 2491 00ac FFF7FEFF 	 bl mem_cpy.part.0
 2492 00b0 237D     	 ldrb r3,[r4,#20]
 2493 00b2 03F07F03 	 and r3,r3,#127
 2494 00b6 2375     	 strb r3,[r4,#20]
 2495              	.L622:
 2496 00b8 6D02     	 lsls r5,r5,#9
 2497              	.L623:
 2498 00ba D8F80030 	 ldr r3,[r8]
 2499 00be 2B44     	 add r3,r3,r5
 2500 00c0 C8F80030 	 str r3,[r8]
 2501 00c4 A369     	 ldr r3,[r4,#24]
 2502 00c6 761B     	 subs r6,r6,r5
 2503 00c8 2F44     	 add r7,r7,r5
 2504 00ca 1D44     	 add r5,r5,r3
 2505 00cc E368     	 ldr r3,[r4,#12]
 2506 00ce A561     	 str r5,[r4,#24]
 2507 00d0 AB42     	 cmp r3,r5
 2508 00d2 2CBF     	 ite cs
 2509 00d4 E360     	 strcs r3,[r4,#12]
 2510 00d6 E560     	 strcc r5,[r4,#12]
 2511              	.L607:
 2512 00d8 002E     	 cmp r6,#0
 2513 00da ADD1     	 bne .L625
 2514 00dc 0AE0     	 b .L626
 2515              	.L635:
 2516 00de 1BB9     	 cbnz r3,.L611
 2517 00e0 A168     	 ldr r1,[r4,#8]
 2518 00e2 69B9     	 cbnz r1,.L612
 2519 00e4 2046     	 mov r0,r4
 2520 00e6 01E0     	 b .L633
 2521              	.L611:
 2522 00e8 E169     	 ldr r1,[r4,#28]
 2523 00ea 2046     	 mov r0,r4
 2524              	.L633:
 2525 00ec FFF7FEFF 	 bl create_chain
 2526 00f0 0146     	 mov r1,r0
 2527 00f2 28B9     	 cbnz r0,.L612
 2528              	.L626:
 2529 00f4 237D     	 ldrb r3,[r4,#20]
 2530 00f6 43F04003 	 orr r3,r3,#64
 2531 00fa 2375     	 strb r3,[r4,#20]
 2532 00fc 0020     	 movs r0,#0
 2533 00fe 44E0     	 b .L605
 2534              	.L612:
 2535 0100 0129     	 cmp r1,#1
 2536 0102 01D1     	 bne .L614
 2537              	.L619:
 2538 0104 0220     	 movs r0,#2
 2539 0106 02E0     	 b .L634
 2540              	.L614:
 2541 0108 4B1C     	 adds r3,r1,#1
 2542 010a 02D1     	 bne .L615
 2543              	.L618:
 2544 010c 0120     	 movs r0,#1
 2545              	.L634:
 2546 010e 6075     	 strb r0,[r4,#21]
 2547 0110 3BE0     	 b .L605
 2548              	.L615:
 2549 0112 A368     	 ldr r3,[r4,#8]
 2550 0114 E161     	 str r1,[r4,#28]
 2551 0116 002B     	 cmp r3,#0
 2552 0118 9CD1     	 bne .L610
 2553 011a A160     	 str r1,[r4,#8]
 2554 011c 9AE7     	 b .L610
 2555              	.L636:
 2556 011e 019B     	 ldr r3,[sp,#4]
 2557 0120 226A     	 ldr r2,[r4,#32]
 2558 0122 5878     	 ldrb r0,[r3,#1]
 2559 0124 04F12C01 	 add r1,r4,#44
 2560 0128 0123     	 movs r3,#1
 2561 012a FFF7FEFF 	 bl disk_write
 2562 012e 0028     	 cmp r0,#0
 2563 0130 ECD1     	 bne .L618
 2564 0132 237D     	 ldrb r3,[r4,#20]
 2565 0134 03F07F03 	 and r3,r3,#127
 2566 0138 2375     	 strb r3,[r4,#20]
 2567 013a 8FE7     	 b .L617
 2568              	.L620:
 2569 013c 236A     	 ldr r3,[r4,#32]
 2570 013e 4B45     	 cmp r3,r9
 2571 0140 0DD0     	 beq .L624
 2572 0142 A269     	 ldr r2,[r4,#24]
 2573 0144 E368     	 ldr r3,[r4,#12]
 2574 0146 9A42     	 cmp r2,r3
 2575 0148 09D2     	 bcs .L624
 2576 014a 9BF80100 	 ldrb r0,[fp,#1]
 2577 014e 04F12C01 	 add r1,r4,#44
 2578 0152 4A46     	 mov r2,r9
 2579 0154 0123     	 movs r3,#1
 2580 0156 FFF7FEFF 	 bl disk_read
 2581 015a 0028     	 cmp r0,#0
 2582 015c D6D1     	 bne .L618
 2583              	.L624:
 2584 015e C4F82090 	 str r9,[r4,#32]
 2585              	.L608:
 2586 0162 A069     	 ldr r0,[r4,#24]
 2587 0164 C0F30800 	 ubfx r0,r0,#0,#9
 2588 0168 C0F50075 	 rsb r5,r0,#512
 2589 016c B542     	 cmp r5,r6
 2590 016e 28BF     	 it cs
 2591 0170 3546     	 movcs r5,r6
 2592 0172 2044     	 add r0,r0,r4
 2593 0174 2C30     	 adds r0,r0,#44
 2594 0176 3946     	 mov r1,r7
 2595 0178 2A46     	 mov r2,r5
 2596 017a FFF7FEFF 	 bl mem_cpy.part.0
 2597 017e 237D     	 ldrb r3,[r4,#20]
 2598 0180 63F07F03 	 orn r3,r3,#127
 2599 0184 2375     	 strb r3,[r4,#20]
 2600 0186 98E7     	 b .L623
 2601              	.L629:
 2602 0188 0720     	 movs r0,#7
 2603              	.L605:
 2604 018a 03B0     	 add sp,sp,#12
 2605              	 
 2606 018c BDE8F08F 	 pop {r4,r5,r6,r7,r8,r9,r10,fp,pc}
 2608              	 .section .text.putc_bfd,"ax",%progbits
 2609              	 .align 1
 2610              	 .thumb
 2611              	 .thumb_func
 2613              	putc_bfd:
 2614              	 
 2615              	 
 2616 0000 0A29     	 cmp r1,#10
 2617 0002 F7B5     	 push {r0,r1,r2,r4,r5,r6,r7,lr}
 2618 0004 0446     	 mov r4,r0
 2619 0006 0F46     	 mov r7,r1
 2620 0008 02D1     	 bne .L638
 2621 000a 0D21     	 movs r1,#13
 2622 000c FFF7F8FF 	 bl putc_bfd
 2623              	.L638:
 2624 0010 6368     	 ldr r3,[r4,#4]
 2625 0012 002B     	 cmp r3,#0
 2626 0014 14DB     	 blt .L637
 2627 0016 5D1C     	 adds r5,r3,#1
 2628 0018 2344     	 add r3,r3,r4
 2629 001a 3B2D     	 cmp r5,#59
 2630 001c A668     	 ldr r6,[r4,#8]
 2631 001e 1F73     	 strb r7,[r3,#12]
 2632 0020 0BDD     	 ble .L640
 2633 0022 2A46     	 mov r2,r5
 2634 0024 01AB     	 add r3,sp,#4
 2635 0026 2068     	 ldr r0,[r4]
 2636 0028 04F10C01 	 add r1,r4,#12
 2637 002c FFF7FEFF 	 bl f_write
 2638 0030 019B     	 ldr r3,[sp,#4]
 2639 0032 5D1B     	 subs r5,r3,r5
 2640 0034 18BF     	 it ne
 2641 0036 4FF0FF35 	 movne r5,#-1
 2642              	.L640:
 2643 003a 0136     	 adds r6,r6,#1
 2644 003c 6560     	 str r5,[r4,#4]
 2645 003e A660     	 str r6,[r4,#8]
 2646              	.L637:
 2647 0040 03B0     	 add sp,sp,#12
 2648              	 
 2649 0042 F0BD     	 pop {r4,r5,r6,r7,pc}
 2651              	 .section .text.putc_flush,"ax",%progbits
 2652              	 .align 1
 2653              	 .thumb
 2654              	 .thumb_func
 2656              	putc_flush:
 2657              	 
 2658              	 
 2659 0000 4268     	 ldr r2,[r0,#4]
 2660 0002 002A     	 cmp r2,#0
 2661 0004 13B5     	 push {r0,r1,r4,lr}
 2662 0006 0446     	 mov r4,r0
 2663 0008 02DA     	 bge .L643
 2664              	.L645:
 2665 000a 4FF0FF30 	 mov r0,#-1
 2666 000e 0CE0     	 b .L644
 2667              	.L643:
 2668 0010 0068     	 ldr r0,[r0]
 2669 0012 04F10C01 	 add r1,r4,#12
 2670 0016 01AB     	 add r3,sp,#4
 2671 0018 FFF7FEFF 	 bl f_write
 2672 001c 0028     	 cmp r0,#0
 2673 001e F4D1     	 bne .L645
 2674 0020 6268     	 ldr r2,[r4,#4]
 2675 0022 019B     	 ldr r3,[sp,#4]
 2676 0024 9A42     	 cmp r2,r3
 2677 0026 F0D1     	 bne .L645
 2678 0028 A068     	 ldr r0,[r4,#8]
 2679              	.L644:
 2680 002a 02B0     	 add sp,sp,#8
 2681              	 
 2682 002c 10BD     	 pop {r4,pc}
 2684              	 .section .text.f_sync,"ax",%progbits
 2685              	 .align 1
 2686              	 .global f_sync
 2687              	 .thumb
 2688              	 .thumb_func
 2690              	f_sync:
 2691              	 
 2692              	 
 2693 0000 F7B5     	 push {r0,r1,r2,r4,r5,r6,r7,lr}
 2694 0002 01A9     	 add r1,sp,#4
 2695 0004 0546     	 mov r5,r0
 2696 0006 FFF7FEFF 	 bl validate
 2697 000a 0028     	 cmp r0,#0
 2698 000c 3FD1     	 bne .L647
 2699 000e 2B7D     	 ldrb r3,[r5,#20]
 2700 0010 03F04002 	 and r2,r3,#64
 2701 0014 02F0FF00 	 and r0,r2,#255
 2702 0018 002A     	 cmp r2,#0
 2703 001a 38D0     	 beq .L647
 2704 001c 1B06     	 lsls r3,r3,#24
 2705 001e 0CD5     	 bpl .L648
 2706 0020 019B     	 ldr r3,[sp,#4]
 2707 0022 2A6A     	 ldr r2,[r5,#32]
 2708 0024 5878     	 ldrb r0,[r3,#1]
 2709 0026 05F12C01 	 add r1,r5,#44
 2710 002a 0123     	 movs r3,#1
 2711 002c FFF7FEFF 	 bl disk_write
 2712 0030 60BB     	 cbnz r0,.L651
 2713 0032 2B7D     	 ldrb r3,[r5,#20]
 2714 0034 03F07F03 	 and r3,r3,#127
 2715 0038 2B75     	 strb r3,[r5,#20]
 2716              	.L648:
 2717 003a FFF7FEFF 	 bl get_fattime
 2718 003e 696A     	 ldr r1,[r5,#36]
 2719 0040 0746     	 mov r7,r0
 2720 0042 0198     	 ldr r0,[sp,#4]
 2721 0044 FFF7FEFF 	 bl move_window
 2722 0048 0446     	 mov r4,r0
 2723 004a 00BB     	 cbnz r0,.L647
 2724 004c AE6A     	 ldr r6,[r5,#40]
 2725 004e F37A     	 ldrb r3,[r6,#11]
 2726 0050 43F02003 	 orr r3,r3,#32
 2727 0054 F372     	 strb r3,[r6,#11]
 2728 0056 AA68     	 ldr r2,[r5,#8]
 2729 0058 2868     	 ldr r0,[r5]
 2730 005a 3146     	 mov r1,r6
 2731 005c FFF7FEFF 	 bl st_clust.isra.4
 2732 0060 06F11C00 	 add r0,r6,#28
 2733 0064 E968     	 ldr r1,[r5,#12]
 2734 0066 FFF7FEFF 	 bl st_dword
 2735 006a 06F11600 	 add r0,r6,#22
 2736 006e 3946     	 mov r1,r7
 2737 0070 FFF7FEFF 	 bl st_dword
 2738 0074 0198     	 ldr r0,[sp,#4]
 2739 0076 B474     	 strb r4,[r6,#18]
 2740 0078 0123     	 movs r3,#1
 2741 007a F474     	 strb r4,[r6,#19]
 2742 007c C370     	 strb r3,[r0,#3]
 2743 007e FFF7FEFF 	 bl sync_fs
 2744 0082 2B7D     	 ldrb r3,[r5,#20]
 2745 0084 23F04003 	 bic r3,r3,#64
 2746 0088 2B75     	 strb r3,[r5,#20]
 2747 008a 00E0     	 b .L647
 2748              	.L651:
 2749 008c 0120     	 movs r0,#1
 2750              	.L647:
 2751 008e 03B0     	 add sp,sp,#12
 2752              	 
 2753 0090 F0BD     	 pop {r4,r5,r6,r7,pc}
 2755              	 .section .text.f_close,"ax",%progbits
 2756              	 .align 1
 2757              	 .global f_close
 2758              	 .thumb
 2759              	 .thumb_func
 2761              	f_close:
 2762              	 
 2763              	 
 2764 0000 13B5     	 push {r0,r1,r4,lr}
 2765 0002 0446     	 mov r4,r0
 2766 0004 FFF7FEFF 	 bl f_sync
 2767 0008 48B9     	 cbnz r0,.L654
 2768 000a 2046     	 mov r0,r4
 2769 000c 01A9     	 add r1,sp,#4
 2770 000e FFF7FEFF 	 bl validate
 2771 0012 20B9     	 cbnz r0,.L654
 2772 0014 2069     	 ldr r0,[r4,#16]
 2773 0016 FFF7FEFF 	 bl dec_lock
 2774 001a 00B9     	 cbnz r0,.L654
 2775 001c 2060     	 str r0,[r4]
 2776              	.L654:
 2777 001e 02B0     	 add sp,sp,#8
 2778              	 
 2779 0020 10BD     	 pop {r4,pc}
 2781              	 .section .text.f_chdrive,"ax",%progbits
 2782              	 .align 1
 2783              	 .global f_chdrive
 2784              	 .thumb
 2785              	 .thumb_func
 2787              	f_chdrive:
 2788              	 
 2789              	 
 2790 0000 07B5     	 push {r0,r1,r2,lr}
 2791 0002 02AB     	 add r3,sp,#8
 2792 0004 43F8040D 	 str r0,[r3,#-4]!
 2793 0008 1846     	 mov r0,r3
 2794 000a FFF7FEFF 	 bl get_ldnumber
 2795 000e 0028     	 cmp r0,#0
 2796 0010 A9BF     	 itett ge
 2797 0012 034B     	 ldrge r3,.L658
 2798 0014 0B20     	 movlt r0,#11
 2799 0016 1870     	 strbge r0,[r3]
 2800 0018 0020     	 movge r0,#0
 2801 001a 03B0     	 add sp,sp,#12
 2802              	 
 2803 001c 5DF804FB 	 ldr pc,[sp],#4
 2804              	.L659:
 2805              	 .align 2
 2806              	.L658:
 2807 0020 00000000 	 .word .LANCHOR1
 2809              	 .section .text.f_chdir,"ax",%progbits
 2810              	 .align 1
 2811              	 .global f_chdir
 2812              	 .thumb
 2813              	 .thumb_func
 2815              	f_chdir:
 2816              	 
 2817              	 
 2818 0000 30B5     	 push {r4,r5,lr}
 2819 0002 91B0     	 sub sp,sp,#68
 2820 0004 10AB     	 add r3,sp,#64
 2821 0006 03A9     	 add r1,sp,#12
 2822 0008 43F83C0D 	 str r0,[r3,#-60]!
 2823 000c 0022     	 movs r2,#0
 2824 000e 1846     	 mov r0,r3
 2825 0010 FFF7FEFF 	 bl find_volume
 2826 0014 0446     	 mov r4,r0
 2827 0016 00BB     	 cbnz r0,.L668
 2828 0018 10A8     	 add r0,sp,#64
 2829 001a 039B     	 ldr r3,[sp,#12]
 2830 001c 40F8303D 	 str r3,[r0,#-48]!
 2831 0020 0199     	 ldr r1,[sp,#4]
 2832 0022 FFF7FEFF 	 bl follow_path
 2833 0026 0446     	 mov r4,r0
 2834 0028 90B9     	 cbnz r0,.L662
 2835 002a 9DF93F30 	 ldrsb r3,[sp,#63]
 2836 002e 002B     	 cmp r3,#0
 2837 0030 03DA     	 bge .L663
 2838 0032 039B     	 ldr r3,[sp,#12]
 2839 0034 069A     	 ldr r2,[sp,#24]
 2840 0036 5A61     	 str r2,[r3,#20]
 2841 0038 0FE0     	 b .L668
 2842              	.L663:
 2843 003a 9DF81630 	 ldrb r3,[sp,#22]
 2844 003e DB06     	 lsls r3,r3,#27
 2845 0040 0AD5     	 bpl .L666
 2846 0042 039D     	 ldr r5,[sp,#12]
 2847 0044 0C99     	 ldr r1,[sp,#48]
 2848 0046 2878     	 ldrb r0,[r5]
 2849 0048 FFF7FEFF 	 bl ld_clust.isra.3
 2850 004c 6861     	 str r0,[r5,#20]
 2851 004e 04E0     	 b .L668
 2852              	.L662:
 2853 0050 0428     	 cmp r0,#4
 2854 0052 08BF     	 it eq
 2855 0054 0524     	 moveq r4,#5
 2856 0056 00E0     	 b .L668
 2857              	.L666:
 2858 0058 0524     	 movs r4,#5
 2859              	.L668:
 2860 005a 2046     	 mov r0,r4
 2861 005c 11B0     	 add sp,sp,#68
 2862              	 
 2863 005e 30BD     	 pop {r4,r5,pc}
 2865              	 .section .text.f_getcwd,"ax",%progbits
 2866              	 .align 1
 2867              	 .global f_getcwd
 2868              	 .thumb
 2869              	 .thumb_func
 2871              	f_getcwd:
 2872              	 
 2873              	 
 2874 0000 2DE9F043 	 push {r4,r5,r6,r7,r8,r9,lr}
 2875 0004 97B0     	 sub sp,sp,#92
 2876 0006 16AB     	 add r3,sp,#88
 2877 0008 0022     	 movs r2,#0
 2878 000a 43F8540D 	 str r0,[r3,#-84]!
 2879 000e 8846     	 mov r8,r1
 2880 0010 0270     	 strb r2,[r0]
 2881 0012 0646     	 mov r6,r0
 2882 0014 03A9     	 add r1,sp,#12
 2883 0016 1846     	 mov r0,r3
 2884 0018 FFF7FEFF 	 bl find_volume
 2885 001c 0746     	 mov r7,r0
 2886 001e 0028     	 cmp r0,#0
 2887 0020 72D1     	 bne .L670
 2888 0022 039B     	 ldr r3,[sp,#12]
 2889 0024 0A93     	 str r3,[sp,#40]
 2890 0026 5B69     	 ldr r3,[r3,#20]
 2891 0028 0C93     	 str r3,[sp,#48]
 2892 002a 4546     	 mov r5,r8
 2893              	.L671:
 2894 002c DDF83090 	 ldr r9,[sp,#48]
 2895 0030 B9F1000F 	 cmp r9,#0
 2896 0034 2DD0     	 beq .L696
 2897 0036 0AA8     	 add r0,sp,#40
 2898 0038 2021     	 movs r1,#32
 2899 003a FFF7FEFF 	 bl dir_sdi
 2900 003e 0446     	 mov r4,r0
 2901 0040 0028     	 cmp r0,#0
 2902 0042 36D1     	 bne .L672
 2903 0044 0398     	 ldr r0,[sp,#12]
 2904 0046 1199     	 ldr r1,[sp,#68]
 2905 0048 FFF7FEFF 	 bl move_window
 2906 004c 0446     	 mov r4,r0
 2907 004e 0028     	 cmp r0,#0
 2908 0050 2FD1     	 bne .L672
 2909 0052 039B     	 ldr r3,[sp,#12]
 2910 0054 1299     	 ldr r1,[sp,#72]
 2911 0056 1878     	 ldrb r0,[r3]
 2912 0058 FFF7FEFF 	 bl ld_clust.isra.3
 2913 005c 2146     	 mov r1,r4
 2914 005e 0C90     	 str r0,[sp,#48]
 2915 0060 0AA8     	 add r0,sp,#40
 2916 0062 FFF7FEFF 	 bl dir_sdi
 2917 0066 0446     	 mov r4,r0
 2918 0068 18BB     	 cbnz r0,.L672
 2919              	.L675:
 2920 006a 0AA8     	 add r0,sp,#40
 2921 006c FFF7FEFF 	 bl dir_read.constprop.12
 2922 0070 0446     	 mov r4,r0
 2923 0072 00BB     	 cbnz r0,.L673
 2924 0074 039B     	 ldr r3,[sp,#12]
 2925 0076 1299     	 ldr r1,[sp,#72]
 2926 0078 1878     	 ldrb r0,[r3]
 2927 007a FFF7FEFF 	 bl ld_clust.isra.3
 2928 007e 8145     	 cmp r9,r0
 2929 0080 1DD0     	 beq .L674
 2930 0082 2146     	 mov r1,r4
 2931 0084 0AA8     	 add r0,sp,#40
 2932 0086 FFF7FEFF 	 bl dir_next
 2933 008a 0446     	 mov r4,r0
 2934 008c 0028     	 cmp r0,#0
 2935 008e ECD0     	 beq .L675
 2936 0090 11E0     	 b .L673
 2937              	.L696:
 2938 0092 4545     	 cmp r5,r8
 2939 0094 01BF     	 itttt eq
 2940 0096 05F1FF35 	 addeq r5,r5,#-1
 2941 009a 019B     	 ldreq r3,[sp,#4]
 2942 009c 2F22     	 moveq r2,#47
 2943 009e 5A55     	 strbeq r2,[r3,r5]
 2944              	.L682:
 2945 00a0 019B     	 ldr r3,[sp,#4]
 2946 00a2 5B5D     	 ldrb r3,[r3,r5]
 2947 00a4 06F8013B 	 strb r3,[r6],#1
 2948 00a8 0135     	 adds r5,r5,#1
 2949 00aa 4545     	 cmp r5,r8
 2950 00ac F8D3     	 bcc .L682
 2951 00ae 2BE0     	 b .L670
 2952              	.L687:
 2953 00b0 1124     	 movs r4,#17
 2954              	.L672:
 2955 00b2 2746     	 mov r7,r4
 2956 00b4 28E0     	 b .L670
 2957              	.L673:
 2958 00b6 042C     	 cmp r4,#4
 2959 00b8 08BF     	 it eq
 2960 00ba 0224     	 moveq r4,#2
 2961 00bc F9E7     	 b .L672
 2962              	.L674:
 2963 00be 119B     	 ldr r3,[sp,#68]
 2964 00c0 8DF81940 	 strb r4,[sp,#25]
 2965 00c4 1BB1     	 cbz r3,.L685
 2966 00c6 0AA8     	 add r0,sp,#40
 2967 00c8 04A9     	 add r1,sp,#16
 2968 00ca FFF7FEFF 	 bl get_fileinfo.part.5
 2969              	.L685:
 2970 00ce 0023     	 movs r3,#0
 2971              	.L676:
 2972 00d0 04AA     	 add r2,sp,#16
 2973 00d2 1A44     	 add r2,r2,r3
 2974 00d4 517A     	 ldrb r1,[r2,#9]
 2975 00d6 5A1C     	 adds r2,r3,#1
 2976 00d8 09B1     	 cbz r1,.L697
 2977 00da 1346     	 mov r3,r2
 2978 00dc F8E7     	 b .L676
 2979              	.L697:
 2980 00de 9542     	 cmp r5,r2
 2981 00e0 E6D3     	 bcc .L687
 2982 00e2 EC1A     	 subs r4,r5,r3
 2983 00e4 2A46     	 mov r2,r5
 2984              	.L678:
 2985 00e6 A242     	 cmp r2,r4
 2986 00e8 0198     	 ldr r0,[sp,#4]
 2987 00ea 08D0     	 beq .L698
 2988 00ec 013A     	 subs r2,r2,#1
 2989 00ee 591B     	 subs r1,r3,r5
 2990 00f0 1144     	 add r1,r1,r2
 2991 00f2 0DF1100E 	 add lr,sp,#16
 2992 00f6 7144     	 add r1,r1,lr
 2993 00f8 497A     	 ldrb r1,[r1,#9]
 2994 00fa 8154     	 strb r1,[r0,r2]
 2995 00fc F3E7     	 b .L678
 2996              	.L698:
 2997 00fe DB43     	 mvns r3,r3
 2998 0100 1D44     	 add r5,r5,r3
 2999 0102 2F23     	 movs r3,#47
 3000 0104 4355     	 strb r3,[r0,r5]
 3001 0106 91E7     	 b .L671
 3002              	.L670:
 3003 0108 0023     	 movs r3,#0
 3004 010a 3846     	 mov r0,r7
 3005 010c 3370     	 strb r3,[r6]
 3006 010e 17B0     	 add sp,sp,#92
 3007              	 
 3008 0110 BDE8F083 	 pop {r4,r5,r6,r7,r8,r9,pc}
 3010              	 .section .text.f_lseek,"ax",%progbits
 3011              	 .align 1
 3012              	 .global f_lseek
 3013              	 .thumb
 3014              	 .thumb_func
 3016              	f_lseek:
 3017              	 
 3018              	 
 3019 0000 73B5     	 push {r0,r1,r4,r5,r6,lr}
 3020 0002 0D46     	 mov r5,r1
 3021 0004 01A9     	 add r1,sp,#4
 3022 0006 0446     	 mov r4,r0
 3023 0008 FFF7FEFF 	 bl validate
 3024 000c 0028     	 cmp r0,#0
 3025 000e 40F09280 	 bne .L700
 3026 0012 607D     	 ldrb r0,[r4,#21]
 3027 0014 0028     	 cmp r0,#0
 3028 0016 40F08E80 	 bne .L700
 3029 001a E368     	 ldr r3,[r4,#12]
 3030 001c 9D42     	 cmp r5,r3
 3031 001e 04D9     	 bls .L701
 3032 0020 227D     	 ldrb r2,[r4,#20]
 3033 0022 12F0020F 	 tst r2,#2
 3034 0026 08BF     	 it eq
 3035 0028 1D46     	 moveq r5,r3
 3036              	.L701:
 3037 002a 0022     	 movs r2,#0
 3038 002c A369     	 ldr r3,[r4,#24]
 3039 002e A261     	 str r2,[r4,#24]
 3040 0030 0DB9     	 cbnz r5,.L702
 3041              	.L709:
 3042 0032 0025     	 movs r5,#0
 3043 0034 51E0     	 b .L703
 3044              	.L702:
 3045 0036 019A     	 ldr r2,[sp,#4]
 3046 0038 5689     	 ldrh r6,[r2,#10]
 3047 003a 7602     	 lsls r6,r6,#9
 3048 003c 6BB1     	 cbz r3,.L704
 3049 003e 013B     	 subs r3,r3,#1
 3050 0040 6A1E     	 subs r2,r5,#1
 3051 0042 B3FBF6F1 	 udiv r1,r3,r6
 3052 0046 B2FBF6F2 	 udiv r2,r2,r6
 3053 004a 8A42     	 cmp r2,r1
 3054 004c 05D3     	 bcc .L704
 3055 004e 7242     	 negs r2,r6
 3056 0050 1340     	 ands r3,r3,r2
 3057 0052 A361     	 str r3,[r4,#24]
 3058 0054 ED1A     	 subs r5,r5,r3
 3059 0056 E169     	 ldr r1,[r4,#28]
 3060 0058 10E0     	 b .L705
 3061              	.L704:
 3062 005a A168     	 ldr r1,[r4,#8]
 3063 005c 69B9     	 cbnz r1,.L706
 3064 005e 2046     	 mov r0,r4
 3065 0060 FFF7FEFF 	 bl create_chain
 3066 0064 0128     	 cmp r0,#1
 3067 0066 0146     	 mov r1,r0
 3068 0068 01D1     	 bne .L707
 3069              	.L715:
 3070 006a 0220     	 movs r0,#2
 3071 006c 02E0     	 b .L739
 3072              	.L707:
 3073 006e 0130     	 adds r0,r0,#1
 3074 0070 02D1     	 bne .L708
 3075              	.L714:
 3076 0072 0120     	 movs r0,#1
 3077              	.L739:
 3078 0074 6075     	 strb r0,[r4,#21]
 3079 0076 5EE0     	 b .L700
 3080              	.L708:
 3081 0078 A160     	 str r1,[r4,#8]
 3082              	.L706:
 3083 007a E161     	 str r1,[r4,#28]
 3084              	.L705:
 3085 007c 0029     	 cmp r1,#0
 3086 007e D8D0     	 beq .L709
 3087              	.L710:
 3088 0080 B542     	 cmp r5,r6
 3089 0082 1CD9     	 bls .L712
 3090 0084 A369     	 ldr r3,[r4,#24]
 3091 0086 3344     	 add r3,r3,r6
 3092 0088 A361     	 str r3,[r4,#24]
 3093 008a 237D     	 ldrb r3,[r4,#20]
 3094 008c 9A07     	 lsls r2,r3,#30
 3095 008e A5EB0605 	 sub r5,r5,r6
 3096 0092 05D5     	 bpl .L711
 3097 0094 2046     	 mov r0,r4
 3098 0096 FFF7FEFF 	 bl create_chain
 3099 009a 0146     	 mov r1,r0
 3100 009c 20B9     	 cbnz r0,.L713
 3101 009e 0DE0     	 b .L740
 3102              	.L711:
 3103 00a0 2068     	 ldr r0,[r4]
 3104 00a2 FFF7FEFF 	 bl get_fat.isra.10
 3105 00a6 0146     	 mov r1,r0
 3106              	.L713:
 3107 00a8 4B1C     	 adds r3,r1,#1
 3108 00aa E2D0     	 beq .L714
 3109 00ac 0129     	 cmp r1,#1
 3110 00ae DCD9     	 bls .L715
 3111 00b0 019B     	 ldr r3,[sp,#4]
 3112 00b2 9B69     	 ldr r3,[r3,#24]
 3113 00b4 9942     	 cmp r1,r3
 3114 00b6 D8D2     	 bcs .L715
 3115 00b8 E161     	 str r1,[r4,#28]
 3116 00ba E1E7     	 b .L710
 3117              	.L740:
 3118 00bc 0546     	 mov r5,r0
 3119              	.L712:
 3120 00be A369     	 ldr r3,[r4,#24]
 3121 00c0 2B44     	 add r3,r3,r5
 3122 00c2 A361     	 str r3,[r4,#24]
 3123 00c4 C5F30803 	 ubfx r3,r5,#0,#9
 3124 00c8 002B     	 cmp r3,#0
 3125 00ca B2D0     	 beq .L709
 3126 00cc 0198     	 ldr r0,[sp,#4]
 3127 00ce FFF7FEFF 	 bl clst2sect
 3128 00d2 0028     	 cmp r0,#0
 3129 00d4 C9D0     	 beq .L715
 3130 00d6 00EB5525 	 add r5,r0,r5,lsr#9
 3131              	.L703:
 3132 00da E368     	 ldr r3,[r4,#12]
 3133 00dc A069     	 ldr r0,[r4,#24]
 3134 00de 9842     	 cmp r0,r3
 3135 00e0 82BF     	 ittt hi
 3136 00e2 237D     	 ldrbhi r3,[r4,#20]
 3137 00e4 E060     	 strhi r0,[r4,#12]
 3138 00e6 43F04003 	 orrhi r3,r3,#64
 3139 00ea C0F30800 	 ubfx r0,r0,#0,#9
 3140 00ee 88BF     	 it hi
 3141 00f0 2375     	 strbhi r3,[r4,#20]
 3142 00f2 00B3     	 cbz r0,.L700
 3143 00f4 226A     	 ldr r2,[r4,#32]
 3144 00f6 9542     	 cmp r5,r2
 3145 00f8 1CD0     	 beq .L723
 3146 00fa 94F91430 	 ldrsb r3,[r4,#20]
 3147 00fe 002B     	 cmp r3,#0
 3148 0100 04F12C06 	 add r6,r4,#44
 3149 0104 0BDA     	 bge .L718
 3150 0106 019B     	 ldr r3,[sp,#4]
 3151 0108 3146     	 mov r1,r6
 3152 010a 5878     	 ldrb r0,[r3,#1]
 3153 010c 0123     	 movs r3,#1
 3154 010e FFF7FEFF 	 bl disk_write
 3155 0112 0028     	 cmp r0,#0
 3156 0114 ADD1     	 bne .L714
 3157 0116 237D     	 ldrb r3,[r4,#20]
 3158 0118 03F07F03 	 and r3,r3,#127
 3159 011c 2375     	 strb r3,[r4,#20]
 3160              	.L718:
 3161 011e 019B     	 ldr r3,[sp,#4]
 3162 0120 3146     	 mov r1,r6
 3163 0122 5878     	 ldrb r0,[r3,#1]
 3164 0124 2A46     	 mov r2,r5
 3165 0126 0123     	 movs r3,#1
 3166 0128 FFF7FEFF 	 bl disk_read
 3167 012c 0028     	 cmp r0,#0
 3168 012e A0D1     	 bne .L714
 3169 0130 2562     	 str r5,[r4,#32]
 3170 0132 00E0     	 b .L700
 3171              	.L723:
 3172 0134 0020     	 movs r0,#0
 3173              	.L700:
 3174 0136 02B0     	 add sp,sp,#8
 3175              	 
 3176 0138 70BD     	 pop {r4,r5,r6,pc}
 3178              	 .section .text.f_opendir,"ax",%progbits
 3179              	 .align 1
 3180              	 .global f_opendir
 3181              	 .thumb
 3182              	 .thumb_func
 3184              	f_opendir:
 3185              	 
 3186              	 
 3187 0000 1FB5     	 push {r0,r1,r2,r3,r4,lr}
 3188 0002 0446     	 mov r4,r0
 3189 0004 0191     	 str r1,[sp,#4]
 3190 0006 08B3     	 cbz r0,.L751
 3191 0008 03A9     	 add r1,sp,#12
 3192 000a 01A8     	 add r0,sp,#4
 3193 000c 0022     	 movs r2,#0
 3194 000e FFF7FEFF 	 bl find_volume
 3195 0012 0146     	 mov r1,r0
 3196 0014 B0B9     	 cbnz r0,.L746
 3197 0016 039B     	 ldr r3,[sp,#12]
 3198 0018 0199     	 ldr r1,[sp,#4]
 3199 001a 2360     	 str r3,[r4]
 3200 001c 2046     	 mov r0,r4
 3201 001e FFF7FEFF 	 bl follow_path
 3202 0022 0146     	 mov r1,r0
 3203 0024 40BB     	 cbnz r0,.L744
 3204 0026 94F92F30 	 ldrsb r3,[r4,#47]
 3205 002a 002B     	 cmp r3,#0
 3206 002c 10DB     	 blt .L745
 3207 002e A379     	 ldrb r3,[r4,#6]
 3208 0030 DB06     	 lsls r3,r3,#27
 3209 0032 06D5     	 bpl .L752
 3210 0034 039B     	 ldr r3,[sp,#12]
 3211 0036 216A     	 ldr r1,[r4,#32]
 3212 0038 1878     	 ldrb r0,[r3]
 3213 003a FFF7FEFF 	 bl ld_clust.isra.3
 3214 003e A060     	 str r0,[r4,#8]
 3215 0040 06E0     	 b .L745
 3216              	.L752:
 3217 0042 0521     	 movs r1,#5
 3218              	.L746:
 3219 0044 0023     	 movs r3,#0
 3220 0046 2360     	 str r3,[r4]
 3221 0048 0846     	 mov r0,r1
 3222 004a 1AE0     	 b .L754
 3223              	.L751:
 3224 004c 0920     	 movs r0,#9
 3225 004e 18E0     	 b .L754
 3226              	.L745:
 3227 0050 039B     	 ldr r3,[sp,#12]
 3228 0052 DB88     	 ldrh r3,[r3,#6]
 3229 0054 A380     	 strh r3,[r4,#4]
 3230 0056 0021     	 movs r1,#0
 3231 0058 2046     	 mov r0,r4
 3232 005a FFF7FEFF 	 bl dir_sdi
 3233 005e 0146     	 mov r1,r0
 3234 0060 50B9     	 cbnz r0,.L744
 3235 0062 A368     	 ldr r3,[r4,#8]
 3236 0064 33B1     	 cbz r3,.L747
 3237 0066 2046     	 mov r0,r4
 3238 0068 FFF7FEFF 	 bl inc_lock
 3239 006c 2061     	 str r0,[r4,#16]
 3240 006e 38B9     	 cbnz r0,.L749
 3241 0070 1221     	 movs r1,#18
 3242 0072 E7E7     	 b .L746
 3243              	.L747:
 3244 0074 2361     	 str r3,[r4,#16]
 3245 0076 03E0     	 b .L749
 3246              	.L744:
 3247 0078 0429     	 cmp r1,#4
 3248 007a 08BF     	 it eq
 3249 007c 0521     	 moveq r1,#5
 3250 007e E1E7     	 b .L746
 3251              	.L749:
 3252 0080 0020     	 movs r0,#0
 3253              	.L754:
 3254 0082 04B0     	 add sp,sp,#16
 3255              	 
 3256 0084 10BD     	 pop {r4,pc}
 3258              	 .section .text.f_closedir,"ax",%progbits
 3259              	 .align 1
 3260              	 .global f_closedir
 3261              	 .thumb
 3262              	 .thumb_func
 3264              	f_closedir:
 3265              	 
 3266              	 
 3267 0000 37B5     	 push {r0,r1,r2,r4,r5,lr}
 3268 0002 01A9     	 add r1,sp,#4
 3269 0004 0546     	 mov r5,r0
 3270 0006 FFF7FEFF 	 bl validate
 3271 000a 0446     	 mov r4,r0
 3272 000c 48B9     	 cbnz r0,.L756
 3273 000e 2869     	 ldr r0,[r5,#16]
 3274 0010 10B9     	 cbnz r0,.L757
 3275              	.L758:
 3276 0012 0023     	 movs r3,#0
 3277 0014 2B60     	 str r3,[r5]
 3278 0016 04E0     	 b .L756
 3279              	.L757:
 3280 0018 FFF7FEFF 	 bl dec_lock
 3281 001c 0028     	 cmp r0,#0
 3282 001e F8D0     	 beq .L758
 3283 0020 0446     	 mov r4,r0
 3284              	.L756:
 3285 0022 2046     	 mov r0,r4
 3286 0024 03B0     	 add sp,sp,#12
 3287              	 
 3288 0026 30BD     	 pop {r4,r5,pc}
 3290              	 .section .text.f_readdir,"ax",%progbits
 3291              	 .align 1
 3292              	 .global f_readdir
 3293              	 .thumb
 3294              	 .thumb_func
 3296              	f_readdir:
 3297              	 
 3298              	 
 3299 0000 37B5     	 push {r0,r1,r2,r4,r5,lr}
 3300 0002 0D46     	 mov r5,r1
 3301 0004 01A9     	 add r1,sp,#4
 3302 0006 0446     	 mov r4,r0
 3303 0008 FFF7FEFF 	 bl validate
 3304 000c 0146     	 mov r1,r0
 3305 000e D0B9     	 cbnz r0,.L763
 3306 0010 2046     	 mov r0,r4
 3307 0012 15B9     	 cbnz r5,.L764
 3308 0014 FFF7FEFF 	 bl dir_sdi
 3309 0018 14E0     	 b .L766
 3310              	.L764:
 3311 001a FFF7FEFF 	 bl dir_read.constprop.12
 3312 001e 10F0FB03 	 ands r3,r0,#251
 3313 0022 0FD1     	 bne .L766
 3314 0024 6B72     	 strb r3,[r5,#9]
 3315 0026 E369     	 ldr r3,[r4,#28]
 3316 0028 1BB1     	 cbz r3,.L765
 3317 002a 2046     	 mov r0,r4
 3318 002c 2946     	 mov r1,r5
 3319 002e FFF7FEFF 	 bl get_fileinfo.part.5
 3320              	.L765:
 3321 0032 0021     	 movs r1,#0
 3322 0034 2046     	 mov r0,r4
 3323 0036 FFF7FEFF 	 bl dir_next
 3324 003a 0428     	 cmp r0,#4
 3325 003c 14BF     	 ite ne
 3326 003e 0146     	 movne r1,r0
 3327 0040 0021     	 moveq r1,#0
 3328 0042 00E0     	 b .L763
 3329              	.L766:
 3330 0044 0146     	 mov r1,r0
 3331              	.L763:
 3332 0046 0846     	 mov r0,r1
 3333 0048 03B0     	 add sp,sp,#12
 3334              	 
 3335 004a 30BD     	 pop {r4,r5,pc}
 3337              	 .section .text.f_stat,"ax",%progbits
 3338              	 .align 1
 3339              	 .global f_stat
 3340              	 .thumb
 3341              	 .thumb_func
 3343              	f_stat:
 3344              	 
 3345              	 
 3346 0000 30B5     	 push {r4,r5,lr}
 3347 0002 8FB0     	 sub sp,sp,#60
 3348 0004 0EAB     	 add r3,sp,#56
 3349 0006 0D46     	 mov r5,r1
 3350 0008 43F8340D 	 str r0,[r3,#-52]!
 3351 000c 02A9     	 add r1,sp,#8
 3352 000e 1846     	 mov r0,r3
 3353 0010 0022     	 movs r2,#0
 3354 0012 FFF7FEFF 	 bl find_volume
 3355 0016 0446     	 mov r4,r0
 3356 0018 98B9     	 cbnz r0,.L772
 3357 001a 02A8     	 add r0,sp,#8
 3358 001c 0199     	 ldr r1,[sp,#4]
 3359 001e FFF7FEFF 	 bl follow_path
 3360 0022 0446     	 mov r4,r0
 3361 0024 68B9     	 cbnz r0,.L772
 3362 0026 9DF93730 	 ldrsb r3,[sp,#55]
 3363 002a 002B     	 cmp r3,#0
 3364 002c 08DB     	 blt .L775
 3365 002e 45B1     	 cbz r5,.L772
 3366 0030 099B     	 ldr r3,[sp,#36]
 3367 0032 6872     	 strb r0,[r5,#9]
 3368 0034 2BB1     	 cbz r3,.L772
 3369 0036 02A8     	 add r0,sp,#8
 3370 0038 2946     	 mov r1,r5
 3371 003a FFF7FEFF 	 bl get_fileinfo.part.5
 3372 003e 00E0     	 b .L772
 3373              	.L775:
 3374 0040 0624     	 movs r4,#6
 3375              	.L772:
 3376 0042 2046     	 mov r0,r4
 3377 0044 0FB0     	 add sp,sp,#60
 3378              	 
 3379 0046 30BD     	 pop {r4,r5,pc}
 3381              	 .section .text.f_getfree,"ax",%progbits
 3382              	 .align 1
 3383              	 .global f_getfree
 3384              	 .thumb
 3385              	 .thumb_func
 3387              	f_getfree:
 3388              	 
 3389              	 
 3390 0000 2DE9FF47 	 push {r0,r1,r2,r3,r4,r5,r6,r7,r8,r9,r10,lr}
 3391 0004 04AB     	 add r3,sp,#16
 3392 0006 0F46     	 mov r7,r1
 3393 0008 43F80C0D 	 str r0,[r3,#-12]!
 3394 000c 1446     	 mov r4,r2
 3395 000e 1846     	 mov r0,r3
 3396 0010 03A9     	 add r1,sp,#12
 3397 0012 0022     	 movs r2,#0
 3398 0014 FFF7FEFF 	 bl find_volume
 3399 0018 0646     	 mov r6,r0
 3400 001a 0028     	 cmp r0,#0
 3401 001c 5AD1     	 bne .L780
 3402 001e 039D     	 ldr r5,[sp,#12]
 3403 0020 2560     	 str r5,[r4]
 3404 0022 D5F81880 	 ldr r8,[r5,#24]
 3405 0026 2B69     	 ldr r3,[r5,#16]
 3406 0028 A8F10202 	 sub r2,r8,#2
 3407 002c 9342     	 cmp r3,r2
 3408 002e 01D8     	 bhi .L781
 3409 0030 3B60     	 str r3,[r7]
 3410 0032 4FE0     	 b .L780
 3411              	.L781:
 3412 0034 2B78     	 ldrb r3,[r5]
 3413 0036 012B     	 cmp r3,#1
 3414 0038 13D1     	 bne .L782
 3415 003a 4FF00208 	 mov r8,#2
 3416 003e 0446     	 mov r4,r0
 3417              	.L785:
 3418 0040 2846     	 mov r0,r5
 3419 0042 4146     	 mov r1,r8
 3420 0044 FFF7FEFF 	 bl get_fat.isra.10
 3421 0048 431C     	 adds r3,r0,#1
 3422 004a 37D0     	 beq .L792
 3423 004c 0128     	 cmp r0,#1
 3424 004e 37D0     	 beq .L793
 3425 0050 00B9     	 cbnz r0,.L784
 3426 0052 0134     	 adds r4,r4,#1
 3427              	.L784:
 3428 0054 039B     	 ldr r3,[sp,#12]
 3429 0056 9B69     	 ldr r3,[r3,#24]
 3430 0058 08F10108 	 add r8,r8,#1
 3431 005c 9845     	 cmp r8,r3
 3432 005e EFD3     	 bcc .L785
 3433 0060 31E0     	 b .L783
 3434              	.L782:
 3435 0062 D5F82490 	 ldr r9,[r5,#36]
 3436 0066 0446     	 mov r4,r0
 3437 0068 0546     	 mov r5,r0
 3438              	.L791:
 3439 006a 3DB9     	 cbnz r5,.L786
 3440 006c 0398     	 ldr r0,[sp,#12]
 3441 006e 4946     	 mov r1,r9
 3442 0070 09F1010A 	 add r10,r9,#1
 3443 0074 FFF7FEFF 	 bl move_window
 3444 0078 20BB     	 cbnz r0,.L794
 3445 007a D146     	 mov r9,r10
 3446              	.L786:
 3447 007c 039B     	 ldr r3,[sp,#12]
 3448 007e 1A78     	 ldrb r2,[r3]
 3449 0080 022A     	 cmp r2,#2
 3450 0082 05F13000 	 add r0,r5,#48
 3451 0086 0AD1     	 bne .L787
 3452 0088 5A19     	 adds r2,r3,r5
 3453 008a 1844     	 add r0,r0,r3
 3454 008c 92F83420 	 ldrb r2,[r2,#52]
 3455 0090 4379     	 ldrb r3,[r0,#5]
 3456 0092 52EA0323 	 orrs r3,r2,r3,lsl#8
 3457 0096 08BF     	 it eq
 3458 0098 0134     	 addeq r4,r4,#1
 3459 009a 0235     	 adds r5,r5,#2
 3460 009c 08E0     	 b .L789
 3461              	.L787:
 3462 009e 1844     	 add r0,r0,r3
 3463 00a0 0430     	 adds r0,r0,#4
 3464 00a2 FFF7FEFF 	 bl ld_dword
 3465 00a6 20F07040 	 bic r0,r0,#-268435456
 3466 00aa 00B9     	 cbnz r0,.L790
 3467 00ac 0134     	 adds r4,r4,#1
 3468              	.L790:
 3469 00ae 0435     	 adds r5,r5,#4
 3470              	.L789:
 3471 00b0 B8F10108 	 subs r8,r8,#1
 3472 00b4 C5F30805 	 ubfx r5,r5,#0,#9
 3473 00b8 D7D1     	 bne .L791
 3474 00ba 04E0     	 b .L783
 3475              	.L792:
 3476 00bc 0126     	 movs r6,#1
 3477 00be 02E0     	 b .L783
 3478              	.L793:
 3479 00c0 0226     	 movs r6,#2
 3480 00c2 00E0     	 b .L783
 3481              	.L794:
 3482 00c4 0646     	 mov r6,r0
 3483              	.L783:
 3484 00c6 039B     	 ldr r3,[sp,#12]
 3485 00c8 3C60     	 str r4,[r7]
 3486 00ca 1A79     	 ldrb r2,[r3,#4]
 3487 00cc 1C61     	 str r4,[r3,#16]
 3488 00ce 42F00102 	 orr r2,r2,#1
 3489 00d2 1A71     	 strb r2,[r3,#4]
 3490              	.L780:
 3491 00d4 3046     	 mov r0,r6
 3492 00d6 04B0     	 add sp,sp,#16
 3493              	 
 3494 00d8 BDE8F087 	 pop {r4,r5,r6,r7,r8,r9,r10,pc}
 3496              	 .section .text.f_truncate,"ax",%progbits
 3497              	 .align 1
 3498              	 .global f_truncate
 3499              	 .thumb
 3500              	 .thumb_func
 3502              	f_truncate:
 3503              	 
 3504              	 
 3505 0000 73B5     	 push {r0,r1,r4,r5,r6,lr}
 3506 0002 01A9     	 add r1,sp,#4
 3507 0004 0546     	 mov r5,r0
 3508 0006 FFF7FEFF 	 bl validate
 3509 000a 0028     	 cmp r0,#0
 3510 000c 46D1     	 bne .L813
 3511 000e 6C7D     	 ldrb r4,[r5,#21]
 3512 0010 002C     	 cmp r4,#0
 3513 0012 40D1     	 bne .L814
 3514 0014 2B7D     	 ldrb r3,[r5,#20]
 3515 0016 9907     	 lsls r1,r3,#30
 3516 0018 39D5     	 bpl .L807
 3517 001a AE69     	 ldr r6,[r5,#24]
 3518 001c EB68     	 ldr r3,[r5,#12]
 3519 001e 9E42     	 cmp r6,r3
 3520 0020 39D2     	 bcs .L814
 3521 0022 3EB9     	 cbnz r6,.L799
 3522 0024 2246     	 mov r2,r4
 3523 0026 2846     	 mov r0,r5
 3524 0028 A968     	 ldr r1,[r5,#8]
 3525 002a FFF7FEFF 	 bl remove_chain
 3526 002e AE60     	 str r6,[r5,#8]
 3527 0030 0446     	 mov r4,r0
 3528 0032 15E0     	 b .L800
 3529              	.L799:
 3530 0034 E969     	 ldr r1,[r5,#28]
 3531 0036 2868     	 ldr r0,[r5]
 3532 0038 FFF7FEFF 	 bl get_fat.isra.10
 3533 003c 421C     	 adds r2,r0,#1
 3534 003e 0146     	 mov r1,r0
 3535 0040 03D0     	 beq .L809
 3536 0042 0128     	 cmp r0,#1
 3537 0044 03D1     	 bne .L812
 3538 0046 0224     	 movs r4,#2
 3539 0048 0AE0     	 b .L800
 3540              	.L809:
 3541 004a 0124     	 movs r4,#1
 3542 004c 08E0     	 b .L800
 3543              	.L812:
 3544 004e 019B     	 ldr r3,[sp,#4]
 3545 0050 9B69     	 ldr r3,[r3,#24]
 3546 0052 9842     	 cmp r0,r3
 3547 0054 04D2     	 bcs .L800
 3548 0056 2846     	 mov r0,r5
 3549 0058 EA69     	 ldr r2,[r5,#28]
 3550 005a FFF7FEFF 	 bl remove_chain
 3551 005e 0446     	 mov r4,r0
 3552              	.L800:
 3553 0060 AB69     	 ldr r3,[r5,#24]
 3554 0062 EB60     	 str r3,[r5,#12]
 3555 0064 2B7D     	 ldrb r3,[r5,#20]
 3556 0066 43F04003 	 orr r3,r3,#64
 3557 006a 2B75     	 strb r3,[r5,#20]
 3558 006c 94B9     	 cbnz r4,.L802
 3559 006e 1B06     	 lsls r3,r3,#24
 3560 0070 13D5     	 bpl .L803
 3561 0072 019B     	 ldr r3,[sp,#4]
 3562 0074 2A6A     	 ldr r2,[r5,#32]
 3563 0076 5878     	 ldrb r0,[r3,#1]
 3564 0078 05F12C01 	 add r1,r5,#44
 3565 007c 0123     	 movs r3,#1
 3566 007e FFF7FEFF 	 bl disk_write
 3567 0082 30B9     	 cbnz r0,.L811
 3568 0084 2B7D     	 ldrb r3,[r5,#20]
 3569 0086 03F07F03 	 and r3,r3,#127
 3570 008a 2B75     	 strb r3,[r5,#20]
 3571 008c 05E0     	 b .L803
 3572              	.L807:
 3573 008e 0720     	 movs r0,#7
 3574 0090 04E0     	 b .L813
 3575              	.L811:
 3576 0092 0124     	 movs r4,#1
 3577              	.L802:
 3578 0094 6C75     	 strb r4,[r5,#21]
 3579              	.L814:
 3580 0096 2046     	 mov r0,r4
 3581 0098 00E0     	 b .L813
 3582              	.L803:
 3583 009a 0020     	 movs r0,#0
 3584              	.L813:
 3585 009c 02B0     	 add sp,sp,#8
 3586              	 
 3587 009e 70BD     	 pop {r4,r5,r6,pc}
 3589              	 .section .text.f_unlink,"ax",%progbits
 3590              	 .align 1
 3591              	 .global f_unlink
 3592              	 .thumb
 3593              	 .thumb_func
 3595              	f_unlink:
 3596              	 
 3597              	 
 3598 0000 2DE9F041 	 push {r4,r5,r6,r7,r8,lr}
 3599 0004 9CB0     	 sub sp,sp,#112
 3600 0006 1CAB     	 add r3,sp,#112
 3601 0008 03A9     	 add r1,sp,#12
 3602 000a 43F86C0D 	 str r0,[r3,#-108]!
 3603 000e 0222     	 movs r2,#2
 3604 0010 1846     	 mov r0,r3
 3605 0012 FFF7FEFF 	 bl find_volume
 3606 0016 0446     	 mov r4,r0
 3607 0018 0028     	 cmp r0,#0
 3608 001a 55D1     	 bne .L833
 3609 001c 1CAD     	 add r5,sp,#112
 3610 001e 039B     	 ldr r3,[sp,#12]
 3611 0020 45F8603D 	 str r3,[r5,#-96]!
 3612 0024 0199     	 ldr r1,[sp,#4]
 3613 0026 2846     	 mov r0,r5
 3614 0028 FFF7FEFF 	 bl follow_path
 3615 002c 0446     	 mov r4,r0
 3616 002e 0028     	 cmp r0,#0
 3617 0030 4AD1     	 bne .L833
 3618 0032 9DF83F60 	 ldrb r6,[sp,#63]
 3619 0036 B206     	 lsls r2,r6,#26
 3620 0038 0ED4     	 bmi .L829
 3621 003a 2846     	 mov r0,r5
 3622 003c 0221     	 movs r1,#2
 3623 003e FFF7FEFF 	 bl chk_lock
 3624 0042 0446     	 mov r4,r0
 3625 0044 0028     	 cmp r0,#0
 3626 0046 3FD1     	 bne .L833
 3627 0048 3306     	 lsls r3,r6,#24
 3628 004a 05D4     	 bmi .L829
 3629 004c 9DF81680 	 ldrb r8,[sp,#22]
 3630 0050 18F0010F 	 tst r8,#1
 3631 0054 37D1     	 bne .L821
 3632 0056 01E0     	 b .L840
 3633              	.L829:
 3634 0058 0624     	 movs r4,#6
 3635 005a 35E0     	 b .L833
 3636              	.L840:
 3637 005c 039F     	 ldr r7,[sp,#12]
 3638 005e 0C99     	 ldr r1,[sp,#48]
 3639 0060 3878     	 ldrb r0,[r7]
 3640 0062 FFF7FEFF 	 bl ld_clust.isra.3
 3641 0066 18F0100F 	 tst r8,#16
 3642 006a 0646     	 mov r6,r0
 3643 006c 11D0     	 beq .L827
 3644 006e 7B69     	 ldr r3,[r7,#20]
 3645 0070 9E42     	 cmp r6,r3
 3646 0072 28D0     	 beq .L821
 3647 0074 2146     	 mov r1,r4
 3648 0076 10A8     	 add r0,sp,#64
 3649 0078 1097     	 str r7,[sp,#64]
 3650 007a 1296     	 str r6,[sp,#72]
 3651 007c FFF7FEFF 	 bl dir_sdi
 3652 0080 0446     	 mov r4,r0
 3653 0082 08BB     	 cbnz r0,.L833
 3654 0084 10A8     	 add r0,sp,#64
 3655 0086 FFF7FEFF 	 bl dir_read.constprop.12
 3656 008a 0446     	 mov r4,r0
 3657 008c D8B1     	 cbz r0,.L821
 3658 008e 0428     	 cmp r0,#4
 3659 0090 1AD1     	 bne .L833
 3660              	.L827:
 3661 0092 049F     	 ldr r7,[sp,#16]
 3662 0094 0B99     	 ldr r1,[sp,#44]
 3663 0096 3846     	 mov r0,r7
 3664 0098 FFF7FEFF 	 bl move_window
 3665 009c 0446     	 mov r4,r0
 3666 009e 98B9     	 cbnz r0,.L833
 3667 00a0 0C9B     	 ldr r3,[sp,#48]
 3668 00a2 E522     	 movs r2,#229
 3669 00a4 1A70     	 strb r2,[r3]
 3670 00a6 0123     	 movs r3,#1
 3671 00a8 FB70     	 strb r3,[r7,#3]
 3672 00aa 26B9     	 cbnz r6,.L823
 3673              	.L824:
 3674 00ac 0398     	 ldr r0,[sp,#12]
 3675 00ae FFF7FEFF 	 bl sync_fs
 3676 00b2 0446     	 mov r4,r0
 3677 00b4 08E0     	 b .L833
 3678              	.L823:
 3679 00b6 2246     	 mov r2,r4
 3680 00b8 2846     	 mov r0,r5
 3681 00ba 3146     	 mov r1,r6
 3682 00bc FFF7FEFF 	 bl remove_chain
 3683 00c0 0446     	 mov r4,r0
 3684 00c2 08B9     	 cbnz r0,.L833
 3685 00c4 F2E7     	 b .L824
 3686              	.L821:
 3687 00c6 0724     	 movs r4,#7
 3688              	.L833:
 3689 00c8 2046     	 mov r0,r4
 3690 00ca 1CB0     	 add sp,sp,#112
 3691              	 
 3692 00cc BDE8F081 	 pop {r4,r5,r6,r7,r8,pc}
 3694              	 .section .text.f_mkdir,"ax",%progbits
 3695              	 .align 1
 3696              	 .global f_mkdir
 3697              	 .thumb
 3698              	 .thumb_func
 3700              	f_mkdir:
 3701              	 
 3702              	 
 3703 0000 2DE9F047 	 push {r4,r5,r6,r7,r8,r9,r10,lr}
 3704 0004 94B0     	 sub sp,sp,#80
 3705 0006 14AB     	 add r3,sp,#80
 3706 0008 02A9     	 add r1,sp,#8
 3707 000a 43F84C0D 	 str r0,[r3,#-76]!
 3708 000e 0222     	 movs r2,#2
 3709 0010 1846     	 mov r0,r3
 3710 0012 FFF7FEFF 	 bl find_volume
 3711 0016 0446     	 mov r4,r0
 3712 0018 0028     	 cmp r0,#0
 3713 001a 7ED1     	 bne .L857
 3714 001c 14AE     	 add r6,sp,#80
 3715 001e 029B     	 ldr r3,[sp,#8]
 3716 0020 46F8303D 	 str r3,[r6,#-48]!
 3717 0024 0199     	 ldr r1,[sp,#4]
 3718 0026 3046     	 mov r0,r6
 3719 0028 FFF7FEFF 	 bl follow_path
 3720 002c 38B1     	 cbz r0,.L852
 3721 002e 0428     	 cmp r0,#4
 3722 0030 72D1     	 bne .L861
 3723 0032 9DF84F30 	 ldrb r3,[sp,#79]
 3724 0036 9A06     	 lsls r2,r3,#26
 3725 0038 03D5     	 bpl .L862
 3726 003a 0620     	 movs r0,#6
 3727 003c 6CE0     	 b .L861
 3728              	.L852:
 3729 003e 0820     	 movs r0,#8
 3730 0040 6AE0     	 b .L861
 3731              	.L862:
 3732 0042 14AF     	 add r7,sp,#80
 3733 0044 029B     	 ldr r3,[sp,#8]
 3734 0046 47F8443D 	 str r3,[r7,#-68]!
 3735 004a 2146     	 mov r1,r4
 3736 004c 3846     	 mov r0,r7
 3737 004e FFF7FEFF 	 bl create_chain
 3738 0052 0546     	 mov r5,r0
 3739 0054 38B1     	 cbz r0,.L856
 3740 0056 012D     	 cmp r5,#1
 3741 0058 03D0     	 beq .L854
 3742 005a 6B1C     	 adds r3,r5,#1
 3743 005c 5C42     	 rsbs r4,r3,#0
 3744 005e 5C41     	 adcs r4,r4,r3
 3745 0060 02E0     	 b .L846
 3746              	.L854:
 3747 0062 0224     	 movs r4,#2
 3748 0064 00E0     	 b .L846
 3749              	.L856:
 3750 0066 0724     	 movs r4,#7
 3751              	.L846:
 3752 0068 FFF7FEFF 	 bl get_fattime
 3753 006c 8046     	 mov r8,r0
 3754 006e 002C     	 cmp r4,#0
 3755 0070 3AD1     	 bne .L851
 3756 0072 0298     	 ldr r0,[sp,#8]
 3757 0074 2946     	 mov r1,r5
 3758 0076 FFF7FEFF 	 bl dir_clear
 3759 007a 0446     	 mov r4,r0
 3760 007c A0BB     	 cbnz r0,.L851
 3761 007e 029B     	 ldr r3,[sp,#8]
 3762 0080 03F13402 	 add r2,r3,#52
 3763 0084 3F33     	 adds r3,r3,#63
 3764              	.L848:
 3765 0086 4FF02009 	 mov r9,#32
 3766 008a 02F8019B 	 strb r9,[r2],#1
 3767 008e 9A42     	 cmp r2,r3
 3768 0090 F9D1     	 bne .L848
 3769 0092 0298     	 ldr r0,[sp,#8]
 3770 0094 2E24     	 movs r4,#46
 3771 0096 4FF0100A 	 mov r10,#16
 3772 009a 80F83440 	 strb r4,[r0,#52]
 3773 009e 80F83FA0 	 strb r10,[r0,#63]
 3774 00a2 4146     	 mov r1,r8
 3775 00a4 4A30     	 adds r0,r0,#74
 3776 00a6 FFF7FEFF 	 bl st_dword
 3777 00aa 0298     	 ldr r0,[sp,#8]
 3778 00ac 2A46     	 mov r2,r5
 3779 00ae 00F13401 	 add r1,r0,#52
 3780 00b2 FFF7FEFF 	 bl st_clust.isra.4
 3781 00b6 0299     	 ldr r1,[sp,#8]
 3782 00b8 4A46     	 mov r2,r9
 3783 00ba 01F15400 	 add r0,r1,#84
 3784 00be 3431     	 adds r1,r1,#52
 3785 00c0 FFF7FEFF 	 bl mem_cpy.part.0
 3786 00c4 0298     	 ldr r0,[sp,#8]
 3787 00c6 0A9A     	 ldr r2,[sp,#40]
 3788 00c8 80F85540 	 strb r4,[r0,#85]
 3789 00cc 00F15401 	 add r1,r0,#84
 3790 00d0 FFF7FEFF 	 bl st_clust.isra.4
 3791 00d4 029B     	 ldr r3,[sp,#8]
 3792 00d6 4FF00109 	 mov r9,#1
 3793 00da 83F80390 	 strb r9,[r3,#3]
 3794 00de 3046     	 mov r0,r6
 3795 00e0 FFF7FEFF 	 bl dir_register
 3796 00e4 0446     	 mov r4,r0
 3797 00e6 28B1     	 cbz r0,.L849
 3798              	.L851:
 3799 00e8 3846     	 mov r0,r7
 3800 00ea 2946     	 mov r1,r5
 3801 00ec 0022     	 movs r2,#0
 3802 00ee FFF7FEFF 	 bl remove_chain
 3803 00f2 12E0     	 b .L857
 3804              	.L849:
 3805 00f4 1098     	 ldr r0,[sp,#64]
 3806 00f6 4146     	 mov r1,r8
 3807 00f8 1630     	 adds r0,r0,#22
 3808 00fa FFF7FEFF 	 bl st_dword
 3809 00fe 0298     	 ldr r0,[sp,#8]
 3810 0100 1099     	 ldr r1,[sp,#64]
 3811 0102 2A46     	 mov r2,r5
 3812 0104 FFF7FEFF 	 bl st_clust.isra.4
 3813 0108 109B     	 ldr r3,[sp,#64]
 3814 010a 0298     	 ldr r0,[sp,#8]
 3815 010c 83F80BA0 	 strb r10,[r3,#11]
 3816 0110 80F80390 	 strb r9,[r0,#3]
 3817 0114 FFF7FEFF 	 bl sync_fs
 3818              	.L861:
 3819 0118 0446     	 mov r4,r0
 3820              	.L857:
 3821 011a 2046     	 mov r0,r4
 3822 011c 14B0     	 add sp,sp,#80
 3823              	 
 3824 011e BDE8F087 	 pop {r4,r5,r6,r7,r8,r9,r10,pc}
 3826              	 .section .text.f_rename,"ax",%progbits
 3827              	 .align 1
 3828              	 .global f_rename
 3829              	 .thumb
 3830              	 .thumb_func
 3832              	f_rename:
 3833              	 
 3834              	 
 3835 0000 70B5     	 push {r4,r5,r6,lr}
 3836 0002 A4B0     	 sub sp,sp,#144
 3837 0004 0190     	 str r0,[sp,#4]
 3838 0006 24A8     	 add r0,sp,#144
 3839 0008 40F8901D 	 str r1,[r0,#-144]!
 3840 000c FFF7FEFF 	 bl get_ldnumber
 3841 0010 01A8     	 add r0,sp,#4
 3842 0012 03A9     	 add r1,sp,#12
 3843 0014 0222     	 movs r2,#2
 3844 0016 FFF7FEFF 	 bl find_volume
 3845 001a 0028     	 cmp r0,#0
 3846 001c 7CD1     	 bne .L880
 3847 001e 24AC     	 add r4,sp,#144
 3848 0020 039B     	 ldr r3,[sp,#12]
 3849 0022 44F8603D 	 str r3,[r4,#-96]!
 3850 0026 0199     	 ldr r1,[sp,#4]
 3851 0028 2046     	 mov r0,r4
 3852 002a FFF7FEFF 	 bl follow_path
 3853 002e 0028     	 cmp r0,#0
 3854 0030 72D1     	 bne .L880
 3855 0032 9DF85F30 	 ldrb r3,[sp,#95]
 3856 0036 13F0A00F 	 tst r3,#160
 3857 003a 59D1     	 bne .L876
 3858 003c 2046     	 mov r0,r4
 3859 003e 0221     	 movs r1,#2
 3860 0040 FFF7FEFF 	 bl chk_lock
 3861 0044 0028     	 cmp r0,#0
 3862 0046 67D1     	 bne .L880
 3863 0048 04A8     	 add r0,sp,#16
 3864 004a 1499     	 ldr r1,[sp,#80]
 3865 004c 2022     	 movs r2,#32
 3866 004e FFF7FEFF 	 bl mem_cpy.part.0
 3867 0052 18A8     	 add r0,sp,#96
 3868 0054 2146     	 mov r1,r4
 3869 0056 3022     	 movs r2,#48
 3870 0058 FFF7FEFF 	 bl mem_cpy.part.0
 3871 005c 18A8     	 add r0,sp,#96
 3872 005e 0099     	 ldr r1,[sp]
 3873 0060 FFF7FEFF 	 bl follow_path
 3874 0064 40B9     	 cbnz r0,.L867
 3875 0066 0E9B     	 ldr r3,[sp,#56]
 3876 0068 1A9A     	 ldr r2,[sp,#104]
 3877 006a 9A42     	 cmp r2,r3
 3878 006c 42D1     	 bne .L877
 3879 006e 119B     	 ldr r3,[sp,#68]
 3880 0070 1D9A     	 ldr r2,[sp,#116]
 3881 0072 9A42     	 cmp r2,r3
 3882 0074 3ED1     	 bne .L877
 3883 0076 01E0     	 b .L869
 3884              	.L867:
 3885 0078 0428     	 cmp r0,#4
 3886 007a 4DD1     	 bne .L880
 3887              	.L869:
 3888 007c 18A8     	 add r0,sp,#96
 3889 007e FFF7FEFF 	 bl dir_register
 3890 0082 0028     	 cmp r0,#0
 3891 0084 48D1     	 bne .L880
 3892 0086 209C     	 ldr r4,[sp,#128]
 3893 0088 1322     	 movs r2,#19
 3894 008a 04F10D00 	 add r0,r4,#13
 3895 008e 0DF11D01 	 add r1,sp,#29
 3896 0092 FFF7FEFF 	 bl mem_cpy.part.0
 3897 0096 9DF81B30 	 ldrb r3,[sp,#27]
 3898 009a 039D     	 ldr r5,[sp,#12]
 3899 009c DA06     	 lsls r2,r3,#27
 3900 009e 58BF     	 it pl
 3901 00a0 43F02003 	 orrpl r3,r3,#32
 3902 00a4 0126     	 movs r6,#1
 3903 00a6 E372     	 strb r3,[r4,#11]
 3904 00a8 EE70     	 strb r6,[r5,#3]
 3905 00aa E37A     	 ldrb r3,[r4,#11]
 3906 00ac DB06     	 lsls r3,r3,#27
 3907 00ae 25D5     	 bpl .L873
 3908 00b0 1A9B     	 ldr r3,[sp,#104]
 3909 00b2 0E9A     	 ldr r2,[sp,#56]
 3910 00b4 9A42     	 cmp r2,r3
 3911 00b6 21D0     	 beq .L873
 3912 00b8 2146     	 mov r1,r4
 3913 00ba 2878     	 ldrb r0,[r5]
 3914 00bc FFF7FEFF 	 bl ld_clust.isra.3
 3915 00c0 0146     	 mov r1,r0
 3916 00c2 2846     	 mov r0,r5
 3917 00c4 FFF7FEFF 	 bl clst2sect
 3918 00c8 0146     	 mov r1,r0
 3919 00ca A8B1     	 cbz r0,.L878
 3920 00cc 2846     	 mov r0,r5
 3921 00ce FFF7FEFF 	 bl move_window
 3922 00d2 039B     	 ldr r3,[sp,#12]
 3923 00d4 00BB     	 cbnz r0,.L880
 3924 00d6 93F85520 	 ldrb r2,[r3,#85]
 3925 00da 2E2A     	 cmp r2,#46
 3926 00dc 0ED1     	 bne .L873
 3927 00de 1846     	 mov r0,r3
 3928 00e0 03F15401 	 add r1,r3,#84
 3929 00e4 1A9A     	 ldr r2,[sp,#104]
 3930 00e6 FFF7FEFF 	 bl st_clust.isra.4
 3931 00ea 039B     	 ldr r3,[sp,#12]
 3932 00ec DE70     	 strb r6,[r3,#3]
 3933 00ee 05E0     	 b .L873
 3934              	.L876:
 3935 00f0 0620     	 movs r0,#6
 3936 00f2 11E0     	 b .L880
 3937              	.L877:
 3938 00f4 0820     	 movs r0,#8
 3939 00f6 0FE0     	 b .L880
 3940              	.L878:
 3941 00f8 0220     	 movs r0,#2
 3942 00fa 0DE0     	 b .L880
 3943              	.L873:
 3944 00fc 0C9C     	 ldr r4,[sp,#48]
 3945 00fe 1399     	 ldr r1,[sp,#76]
 3946 0100 2046     	 mov r0,r4
 3947 0102 FFF7FEFF 	 bl move_window
 3948 0106 38B9     	 cbnz r0,.L880
 3949 0108 149B     	 ldr r3,[sp,#80]
 3950 010a E522     	 movs r2,#229
 3951 010c 1A70     	 strb r2,[r3]
 3952 010e 0123     	 movs r3,#1
 3953 0110 E370     	 strb r3,[r4,#3]
 3954 0112 0398     	 ldr r0,[sp,#12]
 3955 0114 FFF7FEFF 	 bl sync_fs
 3956              	.L880:
 3957 0118 24B0     	 add sp,sp,#144
 3958              	 
 3959 011a 70BD     	 pop {r4,r5,r6,pc}
 3961              	 .section .text.f_gets,"ax",%progbits
 3962              	 .align 1
 3963              	 .global f_gets
 3964              	 .thumb
 3965              	 .thumb_func
 3967              	f_gets:
 3968              	 
 3969              	 
 3970 0000 2DE9F341 	 push {r0,r1,r4,r5,r6,r7,r8,lr}
 3971 0004 0646     	 mov r6,r0
 3972 0006 9046     	 mov r8,r2
 3973 0008 4F1E     	 subs r7,r1,#1
 3974 000a 0546     	 mov r5,r0
 3975 000c 0024     	 movs r4,#0
 3976              	.L888:
 3977 000e BC42     	 cmp r4,r7
 3978 0010 12DA     	 bge .L887
 3979 0012 01AB     	 add r3,sp,#4
 3980 0014 4046     	 mov r0,r8
 3981 0016 6946     	 mov r1,sp
 3982 0018 0122     	 movs r2,#1
 3983 001a FFF7FEFF 	 bl f_read
 3984 001e 019B     	 ldr r3,[sp,#4]
 3985 0020 012B     	 cmp r3,#1
 3986 0022 09D1     	 bne .L887
 3987 0024 9DF80030 	 ldrb r3,[sp]
 3988 0028 0D2B     	 cmp r3,#13
 3989 002a F0D0     	 beq .L888
 3990 002c 0A2B     	 cmp r3,#10
 3991 002e 05F8013B 	 strb r3,[r5],#1
 3992 0032 04F10104 	 add r4,r4,#1
 3993 0036 EAD1     	 bne .L888
 3994              	.L887:
 3995 0038 0023     	 movs r3,#0
 3996 003a 9C42     	 cmp r4,r3
 3997 003c 14BF     	 ite ne
 3998 003e 3046     	 movne r0,r6
 3999 0040 1846     	 moveq r0,r3
 4000 0042 2B70     	 strb r3,[r5]
 4001 0044 02B0     	 add sp,sp,#8
 4002              	 
 4003 0046 BDE8F081 	 pop {r4,r5,r6,r7,r8,pc}
 4005              	 .section .text.f_putc,"ax",%progbits
 4006              	 .align 1
 4007              	 .global f_putc
 4008              	 .thumb
 4009              	 .thumb_func
 4011              	f_putc:
 4012              	 
 4013              	 
 4014 0000 10B5     	 push {r4,lr}
 4015 0002 0246     	 mov r2,r0
 4016 0004 94B0     	 sub sp,sp,#80
 4017 0006 0023     	 movs r3,#0
 4018              	.L898:
 4019 0008 01AC     	 add r4,sp,#4
 4020 000a 0020     	 movs r0,#0
 4021 000c 1855     	 strb r0,[r3,r4]
 4022 000e 0133     	 adds r3,r3,#1
 4023 0010 4C2B     	 cmp r3,#76
 4024 0012 F9D1     	 bne .L898
 4025 0014 0191     	 str r1,[sp,#4]
 4026 0016 2046     	 mov r0,r4
 4027 0018 1146     	 mov r1,r2
 4028 001a FFF7FEFF 	 bl putc_bfd
 4029 001e 2046     	 mov r0,r4
 4030 0020 FFF7FEFF 	 bl putc_flush
 4031 0024 14B0     	 add sp,sp,#80
 4032              	 
 4033 0026 10BD     	 pop {r4,pc}
 4035              	 .section .text.f_puts,"ax",%progbits
 4036              	 .align 1
 4037              	 .global f_puts
 4038              	 .thumb
 4039              	 .thumb_func
 4041              	f_puts:
 4042              	 
 4043              	 
 4044 0000 30B5     	 push {r4,r5,lr}
 4045 0002 0023     	 movs r3,#0
 4046 0004 95B0     	 sub sp,sp,#84
 4047              	.L901:
 4048 0006 01AD     	 add r5,sp,#4
 4049 0008 0022     	 movs r2,#0
 4050 000a 5A55     	 strb r2,[r3,r5]
 4051 000c 0133     	 adds r3,r3,#1
 4052 000e 4C2B     	 cmp r3,#76
 4053 0010 F9D1     	 bne .L901
 4054 0012 0191     	 str r1,[sp,#4]
 4055 0014 441E     	 subs r4,r0,#1
 4056              	.L902:
 4057 0016 14F8011F 	 ldrb r1,[r4,#1]!
 4058 001a 2846     	 mov r0,r5
 4059 001c 11B1     	 cbz r1,.L905
 4060 001e FFF7FEFF 	 bl putc_bfd
 4061 0022 F8E7     	 b .L902
 4062              	.L905:
 4063 0024 FFF7FEFF 	 bl putc_flush
 4064 0028 15B0     	 add sp,sp,#84
 4065              	 
 4066 002a 30BD     	 pop {r4,r5,pc}
 4068              	 .section .text.f_printf,"ax",%progbits
 4069              	 .align 1
 4070              	 .global f_printf
 4071              	 .thumb
 4072              	 .thumb_func
 4074              	f_printf:
 4075              	 
 4076              	 
 4077 0000 0EB4     	 push {r1,r2,r3}
 4078 0002 2DE9F047 	 push {r4,r5,r6,r7,r8,r9,r10,lr}
 4079 0006 9DB0     	 sub sp,sp,#116
 4080 0008 0023     	 movs r3,#0
 4081 000a 259C     	 ldr r4,[sp,#148]
 4082              	.L907:
 4083 000c 09AE     	 add r6,sp,#36
 4084 000e 0022     	 movs r2,#0
 4085 0010 9A55     	 strb r2,[r3,r6]
 4086 0012 0133     	 adds r3,r3,#1
 4087 0014 4C2B     	 cmp r3,#76
 4088 0016 F9D1     	 bne .L907
 4089 0018 26AB     	 add r3,sp,#152
 4090 001a 0990     	 str r0,[sp,#36]
 4091 001c 0093     	 str r3,[sp]
 4092              	.L908:
 4093 001e 2178     	 ldrb r1,[r4]
 4094 0020 0029     	 cmp r1,#0
 4095 0022 00F0F180 	 beq .L909
 4096 0026 2529     	 cmp r1,#37
 4097 0028 01D0     	 beq .L910
 4098 002a 0134     	 adds r4,r4,#1
 4099 002c 7FE0     	 b .L921
 4100              	.L910:
 4101 002e 6178     	 ldrb r1,[r4,#1]
 4102 0030 3029     	 cmp r1,#48
 4103 0032 03D1     	 bne .L912
 4104 0034 E31C     	 adds r3,r4,#3
 4105 0036 A178     	 ldrb r1,[r4,#2]
 4106 0038 0122     	 movs r2,#1
 4107 003a 07E0     	 b .L913
 4108              	.L912:
 4109 003c 2D29     	 cmp r1,#45
 4110 003e 0DBF     	 iteet eq
 4111 0040 A178     	 ldrbeq r1,[r4,#2]
 4112 0042 A31C     	 addne r3,r4,#2
 4113 0044 0022     	 movne r2,#0
 4114 0046 E31C     	 addeq r3,r4,#3
 4115 0048 08BF     	 it eq
 4116 004a 0222     	 moveq r2,#2
 4117              	.L913:
 4118 004c 2A29     	 cmp r1,#42
 4119 004e 02D0     	 beq .L915
 4120 0050 1C46     	 mov r4,r3
 4121 0052 0027     	 movs r7,#0
 4122 0054 06E0     	 b .L916
 4123              	.L915:
 4124 0056 0099     	 ldr r1,[sp]
 4125 0058 081D     	 adds r0,r1,#4
 4126 005a 0F68     	 ldr r7,[r1]
 4127 005c 0090     	 str r0,[sp]
 4128 005e 5C1C     	 adds r4,r3,#1
 4129 0060 1978     	 ldrb r1,[r3]
 4130 0062 0AE0     	 b .L917
 4131              	.L916:
 4132 0064 A1F13003 	 sub r3,r1,#48
 4133 0068 092B     	 cmp r3,#9
 4134 006a 06D8     	 bhi .L917
 4135 006c 0A23     	 movs r3,#10
 4136 006e 03FB0717 	 mla r7,r3,r7,r1
 4137 0072 303F     	 subs r7,r7,#48
 4138 0074 14F8011B 	 ldrb r1,[r4],#1
 4139 0078 F4E7     	 b .L916
 4140              	.L917:
 4141 007a 01F0DF03 	 and r3,r1,#223
 4142 007e 4C2B     	 cmp r3,#76
 4143 0080 02BF     	 ittt eq
 4144 0082 2178     	 ldrbeq r1,[r4]
 4145 0084 42F00402 	 orreq r2,r2,#4
 4146 0088 0134     	 addeq r4,r4,#1
 4147 008a 0029     	 cmp r1,#0
 4148 008c 00F0BC80 	 beq .L909
 4149 0090 A1F16103 	 sub r3,r1,#97
 4150 0094 192B     	 cmp r3,#25
 4151 0096 9ABF     	 itte ls
 4152 0098 A1F12003 	 subls r3,r1,#32
 4153 009c DBB2     	 uxtbls r3,r3
 4154 009e 0B46     	 movhi r3,r1
 4155 00a0 4F2B     	 cmp r3,#79
 4156 00a2 14D0     	 beq .L922
 4157 00a4 06D8     	 bhi .L923
 4158 00a6 432B     	 cmp r3,#67
 4159 00a8 38D0     	 beq .L924
 4160 00aa 442B     	 cmp r3,#68
 4161 00ac 46D0     	 beq .L954
 4162 00ae 422B     	 cmp r3,#66
 4163 00b0 41D0     	 beq .L926
 4164 00b2 3CE0     	 b .L921
 4165              	.L923:
 4166 00b4 552B     	 cmp r3,#85
 4167 00b6 41D0     	 beq .L954
 4168 00b8 582B     	 cmp r3,#88
 4169 00ba 35D0     	 beq .L927
 4170 00bc 532B     	 cmp r3,#83
 4171 00be 36D1     	 bne .L921
 4172 00c0 009B     	 ldr r3,[sp]
 4173 00c2 D3F80080 	 ldr r8,[r3]
 4174 00c6 191D     	 adds r1,r3,#4
 4175 00c8 0091     	 str r1,[sp]
 4176 00ca 4146     	 mov r1,r8
 4177 00cc 02E0     	 b .L929
 4178              	.L922:
 4179 00ce 4FF0080E 	 mov lr,#8
 4180 00d2 35E0     	 b .L925
 4181              	.L929:
 4182 00d4 C8EB0103 	 rsb r3,r8,r1
 4183 00d8 11F8010B 	 ldrb r0,[r1],#1
 4184 00dc 0028     	 cmp r0,#0
 4185 00de F9D1     	 bne .L929
 4186 00e0 9007     	 lsls r0,r2,#30
 4187 00e2 1D46     	 mov r5,r3
 4188 00e4 09D4     	 bmi .L930
 4189              	.L931:
 4190 00e6 BB42     	 cmp r3,r7
 4191 00e8 03F10105 	 add r5,r3,#1
 4192 00ec 05D2     	 bcs .L930
 4193 00ee 3046     	 mov r0,r6
 4194 00f0 2021     	 movs r1,#32
 4195 00f2 FFF7FEFF 	 bl putc_bfd
 4196 00f6 2B46     	 mov r3,r5
 4197 00f8 F5E7     	 b .L931
 4198              	.L930:
 4199 00fa 08F1FF38 	 add r8,r8,#-1
 4200              	.L933:
 4201 00fe 18F8011F 	 ldrb r1,[r8,#1]!
 4202 0102 19B1     	 cbz r1,.L935
 4203 0104 3046     	 mov r0,r6
 4204 0106 FFF7FEFF 	 bl putc_bfd
 4205 010a F8E7     	 b .L933
 4206              	.L935:
 4207 010c BD42     	 cmp r5,r7
 4208 010e 86D2     	 bcs .L908
 4209 0110 3046     	 mov r0,r6
 4210 0112 2021     	 movs r1,#32
 4211 0114 FFF7FEFF 	 bl putc_bfd
 4212 0118 0135     	 adds r5,r5,#1
 4213 011a F7E7     	 b .L935
 4214              	.L924:
 4215 011c 009B     	 ldr r3,[sp]
 4216 011e 1A1D     	 adds r2,r3,#4
 4217 0120 0092     	 str r2,[sp]
 4218 0122 3046     	 mov r0,r6
 4219 0124 1978     	 ldrb r1,[r3]
 4220 0126 03E0     	 b .L983
 4221              	.L927:
 4222 0128 4FF0100E 	 mov lr,#16
 4223 012c 08E0     	 b .L925
 4224              	.L921:
 4225 012e 3046     	 mov r0,r6
 4226              	.L983:
 4227 0130 FFF7FEFF 	 bl putc_bfd
 4228 0134 73E7     	 b .L908
 4229              	.L926:
 4230 0136 4FF0020E 	 mov lr,#2
 4231 013a 01E0     	 b .L925
 4232              	.L954:
 4233 013c 4FF00A0E 	 mov lr,#10
 4234              	.L925:
 4235 0140 12F0040F 	 tst r2,#4
 4236 0144 0098     	 ldr r0,[sp]
 4237 0146 04D0     	 beq .L937
 4238 0148 051D     	 adds r5,r0,#4
 4239 014a 0095     	 str r5,[sp]
 4240 014c 0068     	 ldr r0,[r0]
 4241 014e 442B     	 cmp r3,#68
 4242 0150 04E0     	 b .L985
 4243              	.L937:
 4244 0152 442B     	 cmp r3,#68
 4245 0154 00F10403 	 add r3,r0,#4
 4246 0158 0068     	 ldr r0,[r0]
 4247 015a 0093     	 str r3,[sp]
 4248              	.L985:
 4249 015c 04D1     	 bne .L939
 4250 015e 0028     	 cmp r0,#0
 4251 0160 BCBF     	 itt lt
 4252 0162 4042     	 rsblt r0,r0,#0
 4253 0164 42F00802 	 orrlt r2,r2,#8
 4254              	.L939:
 4255 0168 0025     	 movs r5,#0
 4256              	.L944:
 4257 016a B0FBFEFC 	 udiv ip,r0,lr
 4258 016e 0EFB1C08 	 mls r8,lr,ip,r0
 4259 0172 B8F1090F 	 cmp r8,#9
 4260 0176 5FFA88F3 	 uxtb r3,r8
 4261 017a 6046     	 mov r0,ip
 4262 017c 07D9     	 bls .L941
 4263 017e 7829     	 cmp r1,#120
 4264 0180 0CBF     	 ite eq
 4265 0182 4FF02708 	 moveq r8,#39
 4266 0186 4FF00708 	 movne r8,#7
 4267 018a 4344     	 add r3,r3,r8
 4268 018c DBB2     	 uxtb r3,r3
 4269              	.L941:
 4270 018e 0135     	 adds r5,r5,#1
 4271 0190 0DF10408 	 add r8,sp,#4
 4272 0194 08EB0509 	 add r9,r8,r5
 4273 0198 3033     	 adds r3,r3,#48
 4274 019a 09F8013C 	 strb r3,[r9,#-1]
 4275 019e BCF1000F 	 cmp ip,#0
 4276 01a2 01D0     	 beq .L943
 4277 01a4 202D     	 cmp r5,#32
 4278 01a6 E0D1     	 bne .L944
 4279              	.L943:
 4280 01a8 1107     	 lsls r1,r2,#28
 4281 01aa 41BF     	 itttt mi
 4282 01ac 1CAB     	 addmi r3,sp,#112
 4283 01ae 5B19     	 addmi r3,r3,r5
 4284 01b0 2D21     	 movmi r1,#45
 4285 01b2 03F86C1C 	 strbmi r1,[r3,#-108]
 4286 01b6 48BF     	 it mi
 4287 01b8 0135     	 addmi r5,r5,#1
 4288 01ba 12F0010F 	 tst r2,#1
 4289 01be 14BF     	 ite ne
 4290 01c0 4FF03009 	 movne r9,#48
 4291 01c4 4FF02009 	 moveq r9,#32
 4292 01c8 9307     	 lsls r3,r2,#30
 4293 01ca 0AD4     	 bmi .L957
 4294 01cc 2B46     	 mov r3,r5
 4295              	.L948:
 4296 01ce BB42     	 cmp r3,r7
 4297 01d0 03F1010A 	 add r10,r3,#1
 4298 01d4 06D2     	 bcs .L950
 4299 01d6 3046     	 mov r0,r6
 4300 01d8 4946     	 mov r1,r9
 4301 01da FFF7FEFF 	 bl putc_bfd
 4302 01de 5346     	 mov r3,r10
 4303 01e0 F5E7     	 b .L948
 4304              	.L957:
 4305 01e2 AA46     	 mov r10,r5
 4306              	.L950:
 4307 01e4 013D     	 subs r5,r5,#1
 4308 01e6 3046     	 mov r0,r6
 4309 01e8 18F80510 	 ldrb r1,[r8,r5]
 4310 01ec FFF7FEFF 	 bl putc_bfd
 4311 01f0 002D     	 cmp r5,#0
 4312 01f2 F7D1     	 bne .L950
 4313 01f4 5546     	 mov r5,r10
 4314              	.L951:
 4315 01f6 BD42     	 cmp r5,r7
 4316 01f8 BFF411AF 	 bcs .L908
 4317 01fc 3046     	 mov r0,r6
 4318 01fe 4946     	 mov r1,r9
 4319 0200 FFF7FEFF 	 bl putc_bfd
 4320 0204 0135     	 adds r5,r5,#1
 4321 0206 F6E7     	 b .L951
 4322              	.L909:
 4323 0208 3046     	 mov r0,r6
 4324 020a FFF7FEFF 	 bl putc_flush
 4325 020e 1DB0     	 add sp,sp,#116
 4326              	 
 4327 0210 BDE8F047 	 pop {r4,r5,r6,r7,r8,r9,r10,lr}
 4328 0214 03B0     	 add sp,sp,#12
 4329 0216 7047     	 bx lr
 4331              	 .section .bss.CurrVol,"aw",%nobits
 4332              	 .set .LANCHOR1,.+0
 4335              	CurrVol:
 4336 0000 00       	 .space 1
 4337              	 .section .rodata.str1.1,"aMS",%progbits,1
 4338              	.LC0:
 4339 0000 46415400 	 .ascii "FAT\000"
 4340              	.LC1:
 4341 0004 46415433 	 .ascii "FAT32\000"
 4341      3200
 4342              	.LC2:
 4343 000a 222A2B2C 	 .ascii "\"*+,:;<=>?[]|\177\000"
 4343      3A3B3C3D 
 4343      3E3F5B5D 
 4343      7C7F00
 4344              	 .section .bss.Fsid,"aw",%nobits
 4345              	 .align 1
 4346              	 .set .LANCHOR3,.+0
 4349              	Fsid:
 4350 0000 0000     	 .space 2
 4351              	 .section .rodata.ExCvt,"a",%progbits
 4352              	 .set .LANCHOR4,.+0
 4355              	ExCvt:
 4356 0000 43       	 .byte 67
 4357 0001 55       	 .byte 85
 4358 0002 45       	 .byte 69
 4359 0003 41       	 .byte 65
 4360 0004 41       	 .byte 65
 4361 0005 41       	 .byte 65
 4362 0006 41       	 .byte 65
 4363 0007 43       	 .byte 67
 4364 0008 45       	 .byte 69
 4365 0009 45       	 .byte 69
 4366 000a 45       	 .byte 69
 4367 000b 49       	 .byte 73
 4368 000c 49       	 .byte 73
 4369 000d 49       	 .byte 73
 4370 000e 41       	 .byte 65
 4371 000f 41       	 .byte 65
 4372 0010 45       	 .byte 69
 4373 0011 92       	 .byte -110
 4374 0012 92       	 .byte -110
 4375 0013 4F       	 .byte 79
 4376 0014 4F       	 .byte 79
 4377 0015 4F       	 .byte 79
 4378 0016 55       	 .byte 85
 4379 0017 55       	 .byte 85
 4380 0018 59       	 .byte 89
 4381 0019 4F       	 .byte 79
 4382 001a 55       	 .byte 85
 4383 001b 4F       	 .byte 79
 4384 001c 9C       	 .byte -100
 4385 001d 4F       	 .byte 79
 4386 001e 9E       	 .byte -98
 4387 001f 9F       	 .byte -97
 4388 0020 41       	 .byte 65
 4389 0021 49       	 .byte 73
 4390 0022 4F       	 .byte 79
 4391 0023 55       	 .byte 85
 4392 0024 A5       	 .byte -91
 4393 0025 A5       	 .byte -91
 4394 0026 A6       	 .byte -90
 4395 0027 A7       	 .byte -89
 4396 0028 A8       	 .byte -88
 4397 0029 A9       	 .byte -87
 4398 002a AA       	 .byte -86
 4399 002b AB       	 .byte -85
 4400 002c AC       	 .byte -84
 4401 002d AD       	 .byte -83
 4402 002e AE       	 .byte -82
 4403 002f AF       	 .byte -81
 4404 0030 B0       	 .byte -80
 4405 0031 B1       	 .byte -79
 4406 0032 B2       	 .byte -78
 4407 0033 B3       	 .byte -77
 4408 0034 B4       	 .byte -76
 4409 0035 41       	 .byte 65
 4410 0036 41       	 .byte 65
 4411 0037 41       	 .byte 65
 4412 0038 B8       	 .byte -72
 4413 0039 B9       	 .byte -71
 4414 003a BA       	 .byte -70
 4415 003b BB       	 .byte -69
 4416 003c BC       	 .byte -68
 4417 003d BD       	 .byte -67
 4418 003e BE       	 .byte -66
 4419 003f BF       	 .byte -65
 4420 0040 C0       	 .byte -64
 4421 0041 C1       	 .byte -63
 4422 0042 C2       	 .byte -62
 4423 0043 C3       	 .byte -61
 4424 0044 C4       	 .byte -60
 4425 0045 C5       	 .byte -59
 4426 0046 41       	 .byte 65
 4427 0047 41       	 .byte 65
 4428 0048 C8       	 .byte -56
 4429 0049 C9       	 .byte -55
 4430 004a CA       	 .byte -54
 4431 004b CB       	 .byte -53
 4432 004c CC       	 .byte -52
 4433 004d CD       	 .byte -51
 4434 004e CE       	 .byte -50
 4435 004f CF       	 .byte -49
 4436 0050 D1       	 .byte -47
 4437 0051 D1       	 .byte -47
 4438 0052 45       	 .byte 69
 4439 0053 45       	 .byte 69
 4440 0054 45       	 .byte 69
 4441 0055 49       	 .byte 73
 4442 0056 49       	 .byte 73
 4443 0057 49       	 .byte 73
 4444 0058 49       	 .byte 73
 4445 0059 D9       	 .byte -39
 4446 005a DA       	 .byte -38
 4447 005b DB       	 .byte -37
 4448 005c DC       	 .byte -36
 4449 005d DD       	 .byte -35
 4450 005e 49       	 .byte 73
 4451 005f DF       	 .byte -33
 4452 0060 4F       	 .byte 79
 4453 0061 E1       	 .byte -31
 4454 0062 4F       	 .byte 79
 4455 0063 4F       	 .byte 79
 4456 0064 4F       	 .byte 79
 4457 0065 4F       	 .byte 79
 4458 0066 E6       	 .byte -26
 4459 0067 E8       	 .byte -24
 4460 0068 E8       	 .byte -24
 4461 0069 55       	 .byte 85
 4462 006a 55       	 .byte 85
 4463 006b 55       	 .byte 85
 4464 006c 59       	 .byte 89
 4465 006d 59       	 .byte 89
 4466 006e EE       	 .byte -18
 4467 006f EF       	 .byte -17
 4468 0070 F0       	 .byte -16
 4469 0071 F1       	 .byte -15
 4470 0072 F2       	 .byte -14
 4471 0073 F3       	 .byte -13
 4472 0074 F4       	 .byte -12
 4473 0075 F5       	 .byte -11
 4474 0076 F6       	 .byte -10
 4475 0077 F7       	 .byte -9
 4476 0078 F8       	 .byte -8
 4477 0079 F9       	 .byte -7
 4478 007a FA       	 .byte -6
 4479 007b FB       	 .byte -5
 4480 007c FC       	 .byte -4
 4481 007d FD       	 .byte -3
 4482 007e FE       	 .byte -2
 4483 007f FF       	 .byte -1
 4484              	 .section .bss.Files,"aw",%nobits
 4485              	 .align 2
 4486              	 .set .LANCHOR0,.+0
 4489              	Files:
 4490 0000 00000000 	 .space 32
 4490      00000000 
 4490      00000000 
 4490      00000000 
 4490      00000000 
 4491              	 .section .bss.FatFs,"aw",%nobits
 4492              	 .align 2
 4493              	 .set .LANCHOR2,.+0
 4496              	FatFs:
 4497 0000 00000000 	 .space 4
 4498              	 .ident "GCC: (GNU Tools for ARM Embedded Processors) 4.9.3 20141119 (release) [ARM/embedded-4_9-branch revision 218278]"
DEFINED SYMBOLS
                            *ABS*:00000000 ff.c
    {standard input}:17     .text.ld_dword:00000000 $t
    {standard input}:21     .text.ld_dword:00000000 ld_dword
    {standard input}:35     .text.st_dword:00000000 $t
    {standard input}:39     .text.st_dword:00000000 st_dword
    {standard input}:53     .text.mem_cmp:00000000 $t
    {standard input}:57     .text.mem_cmp:00000000 mem_cmp
    {standard input}:76     .text.chk_lock:00000000 $t
    {standard input}:80     .text.chk_lock:00000000 chk_lock
    {standard input}:135    .text.chk_lock:0000005c $d
    {standard input}:139    .text.inc_lock:00000000 $t
    {standard input}:143    .text.inc_lock:00000000 inc_lock
    {standard input}:221    .text.inc_lock:0000008c $d
    {standard input}:225    .text.dec_lock:00000000 $t
    {standard input}:229    .text.dec_lock:00000000 dec_lock
    {standard input}:261    .text.dec_lock:00000030 $d
    {standard input}:264    .text.clst2sect:00000000 $t
    {standard input}:268    .text.clst2sect:00000000 clst2sect
    {standard input}:284    .text.get_ldnumber:00000000 $t
    {standard input}:288    .text.get_ldnumber:00000000 get_ldnumber
    {standard input}:325    .text.get_ldnumber:0000003c $d
    {standard input}:328    .text.validate:00000000 $t
    {standard input}:332    .text.validate:00000000 validate
    {standard input}:361    .text.mem_cpy.part.0:00000000 $t
    {standard input}:365    .text.mem_cpy.part.0:00000000 mem_cpy.part.0
    {standard input}:379    .text.ld_clust.isra.3:00000000 $t
    {standard input}:383    .text.ld_clust.isra.3:00000000 ld_clust.isra.3
    {standard input}:400    .text.st_clust.isra.4:00000000 $t
    {standard input}:404    .text.st_clust.isra.4:00000000 st_clust.isra.4
    {standard input}:421    .text.get_fileinfo.part.5:00000000 $t
    {standard input}:425    .text.get_fileinfo.part.5:00000000 get_fileinfo.part.5
    {standard input}:475    .text.sync_window.part.6:00000000 $t
    {standard input}:479    .text.sync_window.part.6:00000000 sync_window.part.6
    {standard input}:516    .text.move_window:00000000 $t
    {standard input}:520    .text.move_window:00000000 move_window
    {standard input}:554    .text.check_fs:00000000 $t
    {standard input}:558    .text.check_fs:00000000 check_fs
    {standard input}:610    .text.check_fs:00000068 $d
    {standard input}:614    .text.find_volume:00000000 $t
    {standard input}:618    .text.find_volume:00000000 find_volume
    {standard input}:896    .text.find_volume:00000298 $d
    {standard input}:904    .text.put_fat:00000000 $t
    {standard input}:908    .text.put_fat:00000000 put_fat
    {standard input}:1008   .text.get_fat.isra.10:00000000 $t
    {standard input}:1012   .text.get_fat.isra.10:00000000 get_fat.isra.10
    {standard input}:1090   .text.dir_sdi:00000000 $t
    {standard input}:1094   .text.dir_sdi:00000000 dir_sdi
    {standard input}:1168   .text.create_chain:00000000 $t
    {standard input}:1172   .text.create_chain:00000000 create_chain
    {standard input}:1299   .text.remove_chain:00000000 $t
    {standard input}:1303   .text.remove_chain:00000000 remove_chain
    {standard input}:1365   .text.dir_clear:00000000 $t
    {standard input}:1369   .text.dir_clear:00000000 dir_clear
    {standard input}:1420   .text.dir_next:00000000 $t
    {standard input}:1424   .text.dir_next:00000000 dir_next
    {standard input}:1514   .text.follow_path:00000000 $t
    {standard input}:1518   .text.follow_path:00000000 follow_path
    {standard input}:1753   .text.follow_path:000001ec $d
    {standard input}:1757   .text.dir_read.constprop.12:00000000 $t
    {standard input}:1761   .text.dir_read.constprop.12:00000000 dir_read.constprop.12
    {standard input}:1811   .text.dir_register:00000000 $t
    {standard input}:1815   .text.dir_register:00000000 dir_register
    {standard input}:1869   .text.sync_fs:00000000 $t
    {standard input}:1873   .text.sync_fs:00000000 sync_fs
    {standard input}:1944   .text.f_mount:00000000 $t
    {standard input}:1949   .text.f_mount:00000000 f_mount
    {standard input}:2005   .text.f_mount:00000064 $d
    {standard input}:2009   .text.f_open:00000000 $t
    {standard input}:2014   .text.f_open:00000000 f_open
    {standard input}:2252   .text.f_open:000001fc $d
    {standard input}:2255   .text.f_read:00000000 $t
    {standard input}:2260   .text.f_read:00000000 f_read
    {standard input}:2418   .text.f_write:00000000 $t
    {standard input}:2423   .text.f_write:00000000 f_write
    {standard input}:2609   .text.putc_bfd:00000000 $t
    {standard input}:2613   .text.putc_bfd:00000000 putc_bfd
    {standard input}:2652   .text.putc_flush:00000000 $t
    {standard input}:2656   .text.putc_flush:00000000 putc_flush
    {standard input}:2685   .text.f_sync:00000000 $t
    {standard input}:2690   .text.f_sync:00000000 f_sync
    {standard input}:2756   .text.f_close:00000000 $t
    {standard input}:2761   .text.f_close:00000000 f_close
    {standard input}:2782   .text.f_chdrive:00000000 $t
    {standard input}:2787   .text.f_chdrive:00000000 f_chdrive
    {standard input}:2807   .text.f_chdrive:00000020 $d
    {standard input}:2810   .text.f_chdir:00000000 $t
    {standard input}:2815   .text.f_chdir:00000000 f_chdir
    {standard input}:2866   .text.f_getcwd:00000000 $t
    {standard input}:2871   .text.f_getcwd:00000000 f_getcwd
    {standard input}:3011   .text.f_lseek:00000000 $t
    {standard input}:3016   .text.f_lseek:00000000 f_lseek
    {standard input}:3179   .text.f_opendir:00000000 $t
    {standard input}:3184   .text.f_opendir:00000000 f_opendir
    {standard input}:3259   .text.f_closedir:00000000 $t
    {standard input}:3264   .text.f_closedir:00000000 f_closedir
    {standard input}:3291   .text.f_readdir:00000000 $t
    {standard input}:3296   .text.f_readdir:00000000 f_readdir
    {standard input}:3338   .text.f_stat:00000000 $t
    {standard input}:3343   .text.f_stat:00000000 f_stat
    {standard input}:3382   .text.f_getfree:00000000 $t
    {standard input}:3387   .text.f_getfree:00000000 f_getfree
    {standard input}:3497   .text.f_truncate:00000000 $t
    {standard input}:3502   .text.f_truncate:00000000 f_truncate
    {standard input}:3590   .text.f_unlink:00000000 $t
    {standard input}:3595   .text.f_unlink:00000000 f_unlink
    {standard input}:3695   .text.f_mkdir:00000000 $t
    {standard input}:3700   .text.f_mkdir:00000000 f_mkdir
    {standard input}:3827   .text.f_rename:00000000 $t
    {standard input}:3832   .text.f_rename:00000000 f_rename
    {standard input}:3962   .text.f_gets:00000000 $t
    {standard input}:3967   .text.f_gets:00000000 f_gets
    {standard input}:4006   .text.f_putc:00000000 $t
    {standard input}:4011   .text.f_putc:00000000 f_putc
    {standard input}:4036   .text.f_puts:00000000 $t
    {standard input}:4041   .text.f_puts:00000000 f_puts
    {standard input}:4069   .text.f_printf:00000000 $t
    {standard input}:4074   .text.f_printf:00000000 f_printf
    {standard input}:4335   .bss.CurrVol:00000000 CurrVol
    {standard input}:4336   .bss.CurrVol:00000000 $d
    {standard input}:4342   .rodata.str1.1:0000000a .LC2
    {standard input}:4345   .bss.Fsid:00000000 $d
    {standard input}:4349   .bss.Fsid:00000000 Fsid
    {standard input}:4355   .rodata.ExCvt:00000000 ExCvt
    {standard input}:4485   .bss.Files:00000000 $d
    {standard input}:4489   .bss.Files:00000000 Files
    {standard input}:4492   .bss.FatFs:00000000 $d
    {standard input}:4496   .bss.FatFs:00000000 FatFs

UNDEFINED SYMBOLS
disk_status
disk_write
disk_read
disk_initialize
disk_ioctl
get_fattime
