   1              	 .syntax unified
   2              	 .cpu cortex-m4
   3              	 .eabi_attribute 27,3
   4              	 .fpu fpv4-sp-d16
   5              	 .eabi_attribute 20,1
   6              	 .eabi_attribute 21,1
   7              	 .eabi_attribute 23,3
   8              	 .eabi_attribute 24,1
   9              	 .eabi_attribute 25,1
  10              	 .eabi_attribute 26,1
  11              	 .eabi_attribute 30,4
  12              	 .eabi_attribute 34,1
  13              	 .eabi_attribute 18,4
  14              	 .thumb
  15              	 .file "ff.c"
  16              	 .section .text.ld_dword,"ax",%progbits
  17              	 .align 1
  18              	 .thumb
  19              	 .thumb_func
  21              	ld_dword:
  22              	 
  23              	 
  24              	 
  25 0000 8378     	 ldrb r3,[r0,#2]
  26 0002 C278     	 ldrb r2,[r0,#3]
  27 0004 43EA0222 	 orr r2,r3,r2,lsl#8
  28 0008 4378     	 ldrb r3,[r0,#1]
  29 000a 0078     	 ldrb r0,[r0]
  30 000c 43EA0223 	 orr r3,r3,r2,lsl#8
  31 0010 40EA0320 	 orr r0,r0,r3,lsl#8
  32 0014 7047     	 bx lr
  34              	 .section .text.st_dword,"ax",%progbits
  35              	 .align 1
  36              	 .thumb
  37              	 .thumb_func
  39              	st_dword:
  40              	 
  41              	 
  42              	 
  43 0000 0B0A     	 lsrs r3,r1,#8
  44 0002 0170     	 strb r1,[r0]
  45 0004 4370     	 strb r3,[r0,#1]
  46 0006 0B0C     	 lsrs r3,r1,#16
  47 0008 090E     	 lsrs r1,r1,#24
  48 000a 8370     	 strb r3,[r0,#2]
  49 000c C170     	 strb r1,[r0,#3]
  50 000e 7047     	 bx lr
  52              	 .section .text.mem_cmp,"ax",%progbits
  53              	 .align 1
  54              	 .thumb
  55              	 .thumb_func
  57              	mem_cmp:
  58              	 
  59              	 
  60 0000 30B5     	 push {r4,r5,lr}
  61 0002 0446     	 mov r4,r0
  62              	.L5:
  63 0004 14F8013B 	 ldrb r3,[r4],#1
  64 0008 11F8015B 	 ldrb r5,[r1],#1
  65 000c 5B1B     	 subs r3,r3,r5
  66 000e 151B     	 subs r5,r2,r4
  67 0010 E842     	 cmn r0,r5
  68 0012 01D0     	 beq .L9
  69 0014 002B     	 cmp r3,#0
  70 0016 F5D0     	 beq .L5
  71              	.L9:
  72 0018 1846     	 mov r0,r3
  73 001a 30BD     	 pop {r4,r5,pc}
  75              	 .section .text.chk_lock,"ax",%progbits
  76              	 .align 1
  77              	 .thumb
  78              	 .thumb_func
  80              	chk_lock:
  81              	 
  82              	 
  83 0000 104A     	 ldr r2,.L23
  84 0002 1368     	 ldr r3,[r2]
  85 0004 10B5     	 push {r4,lr}
  86 0006 5BB1     	 cbz r3,.L16
  87 0008 0468     	 ldr r4,[r0]
  88 000a A342     	 cmp r3,r4
  89 000c 14D1     	 bne .L13
  90 000e 5468     	 ldr r4,[r2,#4]
  91 0010 8368     	 ldr r3,[r0,#8]
  92 0012 9C42     	 cmp r4,r3
  93 0014 10D1     	 bne .L13
  94 0016 9468     	 ldr r4,[r2,#8]
  95 0018 4369     	 ldr r3,[r0,#20]
  96 001a 9C42     	 cmp r4,r3
  97 001c 0CD1     	 bne .L13
  98 001e 01E0     	 b .L22
  99              	.L16:
 100 0020 1846     	 mov r0,r3
 101 0022 10BD     	 pop {r4,pc}
 102              	.L22:
 103 0024 31B9     	 cbnz r1,.L18
 104 0026 9389     	 ldrh r3,[r2,#12]
 105 0028 B3F5807F 	 cmp r3,#256
 106 002c 14BF     	 ite ne
 107 002e 0020     	 movne r0,#0
 108 0030 1020     	 moveq r0,#16
 109 0032 10BD     	 pop {r4,pc}
 110              	.L18:
 111 0034 1020     	 movs r0,#16
 112 0036 10BD     	 pop {r4,pc}
 113              	.L13:
 114 0038 0229     	 cmp r1,#2
 115 003a 0CBF     	 ite eq
 116 003c 0020     	 moveq r0,#0
 117 003e 1220     	 movne r0,#18
 118 0040 10BD     	 pop {r4,pc}
 119              	.L24:
 120 0042 00BF     	 .align 2
 121              	.L23:
 122 0044 00000000 	 .word .LANCHOR0
 124              	 .section .text.inc_lock,"ax",%progbits
 125              	 .align 1
 126              	 .thumb
 127              	 .thumb_func
 129              	inc_lock:
 130              	 
 131              	 
 132 0000 144A     	 ldr r2,.L36
 133 0002 F0B5     	 push {r4,r5,r6,r7,lr}
 134 0004 1468     	 ldr r4,[r2]
 135 0006 0568     	 ldr r5,[r0]
 136 0008 AC42     	 cmp r4,r5
 137 000a 1346     	 mov r3,r2
 138 000c 0ED1     	 bne .L26
 139 000e 5768     	 ldr r7,[r2,#4]
 140 0010 8668     	 ldr r6,[r0,#8]
 141 0012 B742     	 cmp r7,r6
 142 0014 0AD1     	 bne .L26
 143 0016 9768     	 ldr r7,[r2,#8]
 144 0018 4669     	 ldr r6,[r0,#20]
 145 001a B742     	 cmp r7,r6
 146 001c 06D1     	 bne .L26
 147 001e 0029     	 cmp r1,#0
 148 0020 0DDD     	 ble .L27
 149 0022 9289     	 ldrh r2,[r2,#12]
 150 0024 9AB9     	 cbnz r2,.L33
 151              	.L30:
 152 0026 4FF48072 	 mov r2,#256
 153 002a 0DE0     	 b .L29
 154              	.L26:
 155 002c 7CB9     	 cbnz r4,.L33
 156 002e 8268     	 ldr r2,[r0,#8]
 157 0030 5A60     	 str r2,[r3,#4]
 158 0032 0029     	 cmp r1,#0
 159 0034 4269     	 ldr r2,[r0,#20]
 160 0036 1D60     	 str r5,[r3]
 161 0038 9A60     	 str r2,[r3,#8]
 162 003a 9C81     	 strh r4,[r3,#12]
 163 003c F3DC     	 bgt .L30
 164              	.L27:
 165 003e 0029     	 cmp r1,#0
 166 0040 F1D1     	 bne .L30
 167 0042 9A89     	 ldrh r2,[r3,#12]
 168 0044 0132     	 adds r2,r2,#1
 169 0046 92B2     	 uxth r2,r2
 170              	.L29:
 171 0048 9A81     	 strh r2,[r3,#12]
 172 004a 0120     	 movs r0,#1
 173 004c F0BD     	 pop {r4,r5,r6,r7,pc}
 174              	.L33:
 175 004e 0020     	 movs r0,#0
 176 0050 F0BD     	 pop {r4,r5,r6,r7,pc}
 177              	.L37:
 178 0052 00BF     	 .align 2
 179              	.L36:
 180 0054 00000000 	 .word .LANCHOR0
 182              	 .section .text.dec_lock,"ax",%progbits
 183              	 .align 1
 184              	 .thumb
 185              	 .thumb_func
 187              	dec_lock:
 188              	 
 189              	 
 190              	 
 191 0000 0128     	 cmp r0,#1
 192 0002 0CD1     	 bne .L41
 193 0004 084B     	 ldr r3,.L44
 194 0006 9A89     	 ldrh r2,[r3,#12]
 195 0008 22F48070 	 bic r0,r2,#256
 196 000c 80B2     	 uxth r0,r0
 197 000e 08B1     	 cbz r0,.L40
 198 0010 501E     	 subs r0,r2,#1
 199 0012 80B2     	 uxth r0,r0
 200              	.L40:
 201 0014 9881     	 strh r0,[r3,#12]
 202 0016 20B9     	 cbnz r0,.L43
 203 0018 034B     	 ldr r3,.L44
 204 001a 1860     	 str r0,[r3]
 205 001c 7047     	 bx lr
 206              	.L41:
 207 001e 0220     	 movs r0,#2
 208 0020 7047     	 bx lr
 209              	.L43:
 210 0022 0020     	 movs r0,#0
 211 0024 7047     	 bx lr
 212              	.L45:
 213 0026 00BF     	 .align 2
 214              	.L44:
 215 0028 00000000 	 .word .LANCHOR0
 217              	 .section .text.clst2sect,"ax",%progbits
 218              	 .align 1
 219              	 .thumb
 220              	 .thumb_func
 222              	clst2sect:
 223              	 
 224              	 
 225              	 
 226 0000 8369     	 ldr r3,[r0,#24]
 227 0002 0239     	 subs r1,r1,#2
 228 0004 023B     	 subs r3,r3,#2
 229 0006 9942     	 cmp r1,r3
 230 0008 3DBF     	 ittte cc
 231 000a 4289     	 ldrhcc r2,[r0,#10]
 232 000c C36A     	 ldrcc r3,[r0,#44]
 233 000e 02FB0130 	 mlacc r0,r2,r1,r3
 234 0012 0020     	 movcs r0,#0
 235 0014 7047     	 bx lr
 237              	 .section .text.get_ldnumber,"ax",%progbits
 238              	 .align 1
 239              	 .thumb
 240              	 .thumb_func
 242              	get_ldnumber:
 243              	 
 244              	 
 245 0000 0368     	 ldr r3,[r0]
 246 0002 10B5     	 push {r4,lr}
 247 0004 BBB1     	 cbz r3,.L61
 248 0006 1A46     	 mov r2,r3
 249              	.L52:
 250 0008 12F8011B 	 ldrb r1,[r2],#1
 251 000c 2029     	 cmp r1,#32
 252 000e 02D9     	 bls .L51
 253 0010 3A29     	 cmp r1,#58
 254 0012 F9D1     	 bne .L52
 255 0014 02E0     	 b .L62
 256              	.L51:
 257 0016 094B     	 ldr r3,.L63
 258 0018 1878     	 ldrb r0,[r3]
 259 001a 10BD     	 pop {r4,pc}
 260              	.L62:
 261 001c 1978     	 ldrb r1,[r3]
 262 001e A1F13004 	 sub r4,r1,#48
 263 0022 092C     	 cmp r4,#9
 264 0024 07D8     	 bhi .L61
 265 0026 0233     	 adds r3,r3,#2
 266 0028 9342     	 cmp r3,r2
 267 002a 04D1     	 bne .L61
 268 002c 3029     	 cmp r1,#48
 269 002e 02D1     	 bne .L61
 270 0030 0260     	 str r2,[r0]
 271 0032 0020     	 movs r0,#0
 272 0034 10BD     	 pop {r4,pc}
 273              	.L61:
 274 0036 4FF0FF30 	 mov r0,#-1
 275 003a 10BD     	 pop {r4,pc}
 276              	.L64:
 277              	 .align 2
 278              	.L63:
 279 003c 00000000 	 .word .LANCHOR1
 281              	 .section .text.validate,"ax",%progbits
 282              	 .align 1
 283              	 .thumb
 284              	 .thumb_func
 286              	validate:
 287              	 
 288              	 
 289 0000 38B5     	 push {r3,r4,r5,lr}
 290 0002 0D46     	 mov r5,r1
 291 0004 0446     	 mov r4,r0
 292 0006 78B1     	 cbz r0,.L66
 293 0008 0368     	 ldr r3,[r0]
 294 000a 6BB1     	 cbz r3,.L66
 295 000c 1A78     	 ldrb r2,[r3]
 296 000e 5AB1     	 cbz r2,.L66
 297 0010 8188     	 ldrh r1,[r0,#4]
 298 0012 DA88     	 ldrh r2,[r3,#6]
 299 0014 9142     	 cmp r1,r2
 300 0016 07D1     	 bne .L66
 301 0018 5878     	 ldrb r0,[r3,#1]
 302 001a FFF7FEFF 	 bl disk_status
 303 001e 10F00100 	 ands r0,r0,#1
 304 0022 01D1     	 bne .L66
 305 0024 2368     	 ldr r3,[r4]
 306 0026 01E0     	 b .L68
 307              	.L66:
 308 0028 0920     	 movs r0,#9
 309 002a 0023     	 movs r3,#0
 310              	.L68:
 311 002c 2B60     	 str r3,[r5]
 312 002e 38BD     	 pop {r3,r4,r5,pc}
 314              	 .section .text.mem_cpy.part.0,"ax",%progbits
 315              	 .align 1
 316              	 .thumb
 317              	 .thumb_func
 319              	mem_cpy.part.0:
 320              	 
 321              	 
 322              	 
 323 0000 0138     	 subs r0,r0,#1
 324 0002 0A44     	 add r2,r2,r1
 325              	.L80:
 326 0004 11F8013B 	 ldrb r3,[r1],#1
 327 0008 00F8013F 	 strb r3,[r0,#1]!
 328 000c 9142     	 cmp r1,r2
 329 000e F9D1     	 bne .L80
 330 0010 7047     	 bx lr
 332              	 .section .text.ld_clust.isra.3,"ax",%progbits
 333              	 .align 1
 334              	 .thumb
 335              	 .thumb_func
 337              	ld_clust.isra.3:
 338              	 
 339              	 
 340              	 
 341 0000 CA7E     	 ldrb r2,[r1,#27]
 342 0002 8B7E     	 ldrb r3,[r1,#26]
 343 0004 0328     	 cmp r0,#3
 344 0006 43EA0223 	 orr r3,r3,r2,lsl#8
 345 000a 01BF     	 itttt eq
 346 000c 487D     	 ldrbeq r0,[r1,#21]
 347 000e 0A7D     	 ldrbeq r2,[r1,#20]
 348 0010 42EA0022 	 orreq r2,r2,r0,lsl#8
 349 0014 43EA0243 	 orreq r3,r3,r2,lsl#16
 350 0018 1846     	 mov r0,r3
 351 001a 7047     	 bx lr
 353              	 .section .text.st_clust.isra.4,"ax",%progbits
 354              	 .align 1
 355              	 .thumb
 356              	 .thumb_func
 358              	st_clust.isra.4:
 359              	 
 360              	 
 361              	 
 362 0000 C2F30723 	 ubfx r3,r2,#8,#8
 363 0004 8A76     	 strb r2,[r1,#26]
 364 0006 CB76     	 strb r3,[r1,#27]
 365 0008 0378     	 ldrb r3,[r0]
 366 000a 032B     	 cmp r3,#3
 367 000c 01BF     	 itttt eq
 368 000e 120C     	 lsreq r2,r2,#16
 369 0010 0A75     	 strbeq r2,[r1,#20]
 370 0012 120A     	 lsreq r2,r2,#8
 371 0014 4A75     	 strbeq r2,[r1,#21]
 372 0016 7047     	 bx lr
 374              	 .section .text.get_fileinfo.part.5,"ax",%progbits
 375              	 .align 1
 376              	 .thumb
 377              	 .thumb_func
 379              	get_fileinfo.part.5:
 380              	 
 381              	 
 382 0000 0023     	 movs r3,#0
 383 0002 70B5     	 push {r4,r5,r6,lr}
 384 0004 1A46     	 mov r2,r3
 385 0006 0C46     	 mov r4,r1
 386              	.L90:
 387 0008 056A     	 ldr r5,[r0,#32]
 388 000a 511C     	 adds r1,r2,#1
 389 000c AA5C     	 ldrb r2,[r5,r2]
 390 000e 202A     	 cmp r2,#32
 391 0010 0BD0     	 beq .L87
 392 0012 052A     	 cmp r2,#5
 393 0014 08BF     	 it eq
 394 0016 E522     	 moveq r2,#229
 395 0018 0929     	 cmp r1,#9
 396 001a 01BF     	 itttt eq
 397 001c E518     	 addeq r5,r4,r3
 398 001e 2E26     	 moveq r6,#46
 399 0020 0133     	 addeq r3,r3,#1
 400 0022 6E72     	 strbeq r6,[r5,#9]
 401 0024 E518     	 adds r5,r4,r3
 402 0026 0133     	 adds r3,r3,#1
 403 0028 6A72     	 strb r2,[r5,#9]
 404              	.L87:
 405 002a 0B29     	 cmp r1,#11
 406 002c 0A46     	 mov r2,r1
 407 002e EBD1     	 bne .L90
 408 0030 2344     	 add r3,r3,r4
 409 0032 0022     	 movs r2,#0
 410 0034 5A72     	 strb r2,[r3,#9]
 411 0036 036A     	 ldr r3,[r0,#32]
 412 0038 DB7A     	 ldrb r3,[r3,#11]
 413 003a 2372     	 strb r3,[r4,#8]
 414 003c 056A     	 ldr r5,[r0,#32]
 415 003e 05F11C00 	 add r0,r5,#28
 416 0042 FFF7FEFF 	 bl ld_dword
 417 0046 2060     	 str r0,[r4]
 418 0048 EA7D     	 ldrb r2,[r5,#23]
 419 004a AB7D     	 ldrb r3,[r5,#22]
 420 004c 43EA0223 	 orr r3,r3,r2,lsl#8
 421 0050 E380     	 strh r3,[r4,#6]
 422 0052 6A7E     	 ldrb r2,[r5,#25]
 423 0054 2B7E     	 ldrb r3,[r5,#24]
 424 0056 43EA0223 	 orr r3,r3,r2,lsl#8
 425 005a A380     	 strh r3,[r4,#4]
 426 005c 70BD     	 pop {r4,r5,r6,pc}
 428              	 .section .text.sync_window.part.6,"ax",%progbits
 429              	 .align 1
 430              	 .thumb
 431              	 .thumb_func
 433              	sync_window.part.6:
 434              	 
 435              	 
 436 0000 F8B5     	 push {r3,r4,r5,r6,r7,lr}
 437 0002 0546     	 mov r5,r0
 438 0004 00F13407 	 add r7,r0,#52
 439 0008 3946     	 mov r1,r7
 440 000a 4078     	 ldrb r0,[r0,#1]
 441 000c 2A6B     	 ldr r2,[r5,#48]
 442 000e 0123     	 movs r3,#1
 443 0010 FFF7FEFF 	 bl disk_write
 444 0014 0446     	 mov r4,r0
 445 0016 80B9     	 cbnz r0,.L97
 446 0018 2A6B     	 ldr r2,[r5,#48]
 447 001a 6B6A     	 ldr r3,[r5,#36]
 448 001c EE69     	 ldr r6,[r5,#28]
 449 001e E870     	 strb r0,[r5,#3]
 450 0020 D31A     	 subs r3,r2,r3
 451 0022 B342     	 cmp r3,r6
 452 0024 0BD2     	 bcs .L99
 453 0026 AB78     	 ldrb r3,[r5,#2]
 454 0028 022B     	 cmp r3,#2
 455 002a 08D1     	 bne .L99
 456 002c 6878     	 ldrb r0,[r5,#1]
 457 002e 3946     	 mov r1,r7
 458 0030 3244     	 add r2,r2,r6
 459 0032 0123     	 movs r3,#1
 460 0034 FFF7FEFF 	 bl disk_write
 461 0038 01E0     	 b .L99
 462              	.L97:
 463 003a 0120     	 movs r0,#1
 464 003c F8BD     	 pop {r3,r4,r5,r6,r7,pc}
 465              	.L99:
 466 003e 2046     	 mov r0,r4
 467 0040 F8BD     	 pop {r3,r4,r5,r6,r7,pc}
 469              	 .section .text.move_window,"ax",%progbits
 470              	 .align 1
 471              	 .thumb
 472              	 .thumb_func
 474              	move_window:
 475              	 
 476              	 
 477 0000 38B5     	 push {r3,r4,r5,lr}
 478 0002 036B     	 ldr r3,[r0,#48]
 479 0004 9942     	 cmp r1,r3
 480 0006 0446     	 mov r4,r0
 481 0008 0D46     	 mov r5,r1
 482 000a 14D0     	 beq .L105
 483 000c C378     	 ldrb r3,[r0,#3]
 484 000e 73B9     	 cbnz r3,.L102
 485              	.L104:
 486 0010 2A46     	 mov r2,r5
 487 0012 6078     	 ldrb r0,[r4,#1]
 488 0014 04F13401 	 add r1,r4,#52
 489 0018 0123     	 movs r3,#1
 490 001a FFF7FEFF 	 bl disk_read
 491 001e 0028     	 cmp r0,#0
 492 0020 16BF     	 itet ne
 493 0022 4FF0FF35 	 movne r5,#-1
 494 0026 0020     	 moveq r0,#0
 495 0028 0120     	 movne r0,#1
 496 002a 2563     	 str r5,[r4,#48]
 497 002c 38BD     	 pop {r3,r4,r5,pc}
 498              	.L102:
 499 002e FFF7FEFF 	 bl sync_window.part.6
 500 0032 08B9     	 cbnz r0,.L101
 501 0034 ECE7     	 b .L104
 502              	.L105:
 503 0036 0020     	 movs r0,#0
 504              	.L101:
 505 0038 38BD     	 pop {r3,r4,r5,pc}
 507              	 .section .text.check_fs,"ax",%progbits
 508              	 .align 1
 509              	 .thumb
 510              	 .thumb_func
 512              	check_fs:
 513              	 
 514              	 
 515 0000 0023     	 movs r3,#0
 516 0002 10B5     	 push {r4,lr}
 517 0004 C370     	 strb r3,[r0,#3]
 518 0006 4FF0FF33 	 mov r3,#-1
 519 000a 0363     	 str r3,[r0,#48]
 520 000c 0446     	 mov r4,r0
 521 000e FFF7FEFF 	 bl move_window
 522 0012 18BB     	 cbnz r0,.L113
 523 0014 94F83322 	 ldrb r2,[r4,#563]
 524 0018 94F83232 	 ldrb r3,[r4,#562]
 525 001c 43EA0223 	 orr r3,r3,r2,lsl#8
 526 0020 4AF65522 	 movw r2,#43605
 527 0024 9342     	 cmp r3,r2
 528 0026 1BD1     	 bne .L114
 529 0028 94F83430 	 ldrb r3,[r4,#52]
 530 002c EB2B     	 cmp r3,#235
 531 002e 03D0     	 beq .L112
 532 0030 1833     	 adds r3,r3,#24
 533 0032 DBB2     	 uxtb r3,r3
 534 0034 012B     	 cmp r3,#1
 535 0036 15D8     	 bhi .L115
 536              	.L112:
 537 0038 04F16A00 	 add r0,r4,#106
 538 003c 0A49     	 ldr r1,.L121
 539 003e 0322     	 movs r2,#3
 540 0040 FFF7FEFF 	 bl mem_cmp
 541 0044 78B1     	 cbz r0,.L111
 542 0046 04F18600 	 add r0,r4,#134
 543 004a 0849     	 ldr r1,.L121+4
 544 004c 0522     	 movs r2,#5
 545 004e FFF7FEFF 	 bl mem_cmp
 546 0052 0028     	 cmp r0,#0
 547 0054 14BF     	 ite ne
 548 0056 0220     	 movne r0,#2
 549 0058 0020     	 moveq r0,#0
 550 005a 10BD     	 pop {r4,pc}
 551              	.L113:
 552 005c 0420     	 movs r0,#4
 553 005e 10BD     	 pop {r4,pc}
 554              	.L114:
 555 0060 0320     	 movs r0,#3
 556 0062 10BD     	 pop {r4,pc}
 557              	.L115:
 558 0064 0220     	 movs r0,#2
 559              	.L111:
 560 0066 10BD     	 pop {r4,pc}
 561              	.L122:
 562              	 .align 2
 563              	.L121:
 564 0068 00000000 	 .word .LC0
 565 006c 04000000 	 .word .LC1
 567              	 .section .text.find_volume,"ax",%progbits
 568              	 .align 1
 569              	 .thumb
 570              	 .thumb_func
 572              	find_volume:
 573              	 
 574              	 
 575 0000 2DE9F043 	 push {r4,r5,r6,r7,r8,r9,lr}
 576 0004 0023     	 movs r3,#0
 577 0006 85B0     	 sub sp,sp,#20
 578 0008 0B60     	 str r3,[r1]
 579 000a 0F46     	 mov r7,r1
 580 000c 1546     	 mov r5,r2
 581 000e FFF7FEFF 	 bl get_ldnumber
 582 0012 061E     	 subs r6,r0,#0
 583 0014 C0F22981 	 blt .L146
 584 0018 9B4B     	 ldr r3,.L181
 585 001a 53F82640 	 ldr r4,[r3,r6,lsl#2]
 586 001e 002C     	 cmp r4,#0
 587 0020 00F02581 	 beq .L147
 588 0024 3C60     	 str r4,[r7]
 589 0026 2378     	 ldrb r3,[r4]
 590 0028 05F0FE05 	 and r5,r5,#254
 591 002c 83B1     	 cbz r3,.L125
 592 002e 6078     	 ldrb r0,[r4,#1]
 593 0030 FFF7FEFF 	 bl disk_status
 594 0034 C107     	 lsls r1,r0,#31
 595 0036 0BD4     	 bmi .L125
 596 0038 002D     	 cmp r5,#0
 597 003a 00F01A81 	 beq .L148
 598 003e 00F00403 	 and r3,r0,#4
 599 0042 03F0FF00 	 and r0,r3,#255
 600 0046 002B     	 cmp r3,#0
 601 0048 00F01B81 	 beq .L178
 602              	.L127:
 603 004c 0A20     	 movs r0,#10
 604 004e 18E1     	 b .L178
 605              	.L125:
 606 0050 0023     	 movs r3,#0
 607 0052 F0B2     	 uxtb r0,r6
 608 0054 2370     	 strb r3,[r4]
 609 0056 6070     	 strb r0,[r4,#1]
 610 0058 FFF7FEFF 	 bl disk_initialize
 611 005c C207     	 lsls r2,r0,#31
 612 005e 00F10A81 	 bmi .L150
 613 0062 0DB1     	 cbz r5,.L126
 614 0064 4307     	 lsls r3,r0,#29
 615 0066 F1D4     	 bmi .L127
 616              	.L126:
 617 0068 2046     	 mov r0,r4
 618 006a 0021     	 movs r1,#0
 619 006c FFF7FEFF 	 bl check_fs
 620 0070 0228     	 cmp r0,#2
 621 0072 1FD1     	 bne .L128
 622 0074 04F5FD76 	 add r6,r4,#506
 623 0078 0025     	 movs r5,#0
 624              	.L130:
 625 007a 16F8040C 	 ldrb r0,[r6,#-4]
 626 007e 10B1     	 cbz r0,.L129
 627 0080 3046     	 mov r0,r6
 628 0082 FFF7FEFF 	 bl ld_dword
 629              	.L129:
 630 0086 4DF82500 	 str r0,[sp,r5,lsl#2]
 631 008a 0135     	 adds r5,r5,#1
 632 008c 042D     	 cmp r5,#4
 633 008e 06F11006 	 add r6,r6,#16
 634 0092 F2D1     	 bne .L130
 635 0094 0025     	 movs r5,#0
 636              	.L133:
 637 0096 5DF82560 	 ldr r6,[sp,r5,lsl#2]
 638 009a 36B1     	 cbz r6,.L152
 639 009c 2046     	 mov r0,r4
 640 009e 3146     	 mov r1,r6
 641 00a0 FFF7FEFF 	 bl check_fs
 642 00a4 0128     	 cmp r0,#1
 643 00a6 01D8     	 bhi .L131
 644 00a8 0DE0     	 b .L132
 645              	.L152:
 646 00aa 0320     	 movs r0,#3
 647              	.L131:
 648 00ac 0135     	 adds r5,r5,#1
 649 00ae 042D     	 cmp r5,#4
 650 00b0 F1D1     	 bne .L133
 651 00b2 E2E0     	 b .L180
 652              	.L128:
 653 00b4 0428     	 cmp r0,#4
 654 00b6 4FF00006 	 mov r6,#0
 655 00ba 00F0E180 	 beq .L157
 656 00be 0128     	 cmp r0,#1
 657 00c0 01D9     	 bls .L132
 658              	.L135:
 659 00c2 0D20     	 movs r0,#13
 660 00c4 DDE0     	 b .L178
 661              	.L132:
 662 00c6 94F84020 	 ldrb r2,[r4,#64]
 663 00ca 94F83F30 	 ldrb r3,[r4,#63]
 664 00ce 43EA0223 	 orr r3,r3,r2,lsl#8
 665 00d2 B3F5007F 	 cmp r3,#512
 666 00d6 F4D1     	 bne .L135
 667 00d8 94F84B80 	 ldrb r8,[r4,#75]
 668 00dc 94F84A30 	 ldrb r3,[r4,#74]
 669 00e0 53EA0828 	 orrs r8,r3,r8,lsl#8
 670 00e4 04D1     	 bne .L137
 671 00e6 04F15800 	 add r0,r4,#88
 672 00ea FFF7FEFF 	 bl ld_dword
 673 00ee 8046     	 mov r8,r0
 674              	.L137:
 675 00f0 94F84470 	 ldrb r7,[r4,#68]
 676 00f4 C4F81C80 	 str r8,[r4,#28]
 677 00f8 7B1E     	 subs r3,r7,#1
 678 00fa 012B     	 cmp r3,#1
 679 00fc A770     	 strb r7,[r4,#2]
 680 00fe E0D8     	 bhi .L135
 681 0100 94F84150 	 ldrb r5,[r4,#65]
 682 0104 ABB2     	 uxth r3,r5
 683 0106 6381     	 strh r3,[r4,#10]
 684 0108 002B     	 cmp r3,#0
 685 010a DAD0     	 beq .L135
 686 010c 6B1E     	 subs r3,r5,#1
 687 010e 2B42     	 tst r3,r5
 688 0110 D7D1     	 bne .L135
 689 0112 94F84690 	 ldrb r9,[r4,#70]
 690 0116 94F84530 	 ldrb r3,[r4,#69]
 691 011a 43EA0929 	 orr r9,r3,r9,lsl#8
 692 011e 19F00F0F 	 tst r9,#15
 693 0122 A4F80890 	 strh r9,[r4,#8]
 694 0126 CCD1     	 bne .L135
 695 0128 94F84800 	 ldrb r0,[r4,#72]
 696 012c 94F84730 	 ldrb r3,[r4,#71]
 697 0130 53EA0020 	 orrs r0,r3,r0,lsl#8
 698 0134 03D1     	 bne .L138
 699 0136 04F15400 	 add r0,r4,#84
 700 013a FFF7FEFF 	 bl ld_dword
 701              	.L138:
 702 013e 94F84330 	 ldrb r3,[r4,#67]
 703 0142 94F84220 	 ldrb r2,[r4,#66]
 704 0146 52EA0323 	 orrs r3,r2,r3,lsl#8
 705 014a BAD0     	 beq .L135
 706 014c 07FB08F1 	 mul r1,r7,r8
 707 0150 03EB1912 	 add r2,r3,r9,lsr#4
 708 0154 0A44     	 add r2,r2,r1
 709 0156 9042     	 cmp r0,r2
 710 0158 B3D3     	 bcc .L135
 711 015a 801A     	 subs r0,r0,r2
 712 015c B0FBF5F5 	 udiv r5,r0,r5
 713 0160 002D     	 cmp r5,#0
 714 0162 AED0     	 beq .L135
 715 0164 4948     	 ldr r0,.L181+4
 716 0166 8542     	 cmp r5,r0
 717 0168 ABD8     	 bhi .L135
 718 016a 4FF6F570 	 movw r0,#65525
 719 016e 8542     	 cmp r5,r0
 720 0170 06D8     	 bhi .L154
 721 0172 40F6F577 	 movw r7,#4085
 722 0176 BD42     	 cmp r5,r7
 723 0178 8CBF     	 ite hi
 724 017a 0227     	 movhi r7,#2
 725 017c 0127     	 movls r7,#1
 726 017e 00E0     	 b .L139
 727              	.L154:
 728 0180 0327     	 movs r7,#3
 729              	.L139:
 730 0182 0235     	 adds r5,r5,#2
 731 0184 3344     	 add r3,r3,r6
 732 0186 3244     	 add r2,r2,r6
 733 0188 032F     	 cmp r7,#3
 734 018a A561     	 str r5,[r4,#24]
 735 018c 2662     	 str r6,[r4,#32]
 736 018e 6362     	 str r3,[r4,#36]
 737 0190 E262     	 str r2,[r4,#44]
 738 0192 10D1     	 bne .L140
 739 0194 94F85F20 	 ldrb r2,[r4,#95]
 740 0198 94F85E30 	 ldrb r3,[r4,#94]
 741 019c 53EA0223 	 orrs r3,r3,r2,lsl#8
 742 01a0 8FD1     	 bne .L135
 743 01a2 B9F1000F 	 cmp r9,#0
 744 01a6 8CD1     	 bne .L135
 745 01a8 04F16000 	 add r0,r4,#96
 746 01ac FFF7FEFF 	 bl ld_dword
 747 01b0 AD00     	 lsls r5,r5,#2
 748 01b2 A062     	 str r0,[r4,#40]
 749 01b4 10E0     	 b .L141
 750              	.L140:
 751 01b6 B9F1000F 	 cmp r9,#0
 752 01ba 82D0     	 beq .L135
 753 01bc 022F     	 cmp r7,#2
 754 01be 4FEA4500 	 lsl r0,r5,#1
 755 01c2 18BF     	 it ne
 756 01c4 4019     	 addne r0,r0,r5
 757 01c6 0B44     	 add r3,r3,r1
 758 01c8 18BF     	 it ne
 759 01ca 05F00105 	 andne r5,r5,#1
 760 01ce A362     	 str r3,[r4,#40]
 761 01d0 0CBF     	 ite eq
 762 01d2 0546     	 moveq r5,r0
 763 01d4 05EB5005 	 addne r5,r5,r0,lsr#1
 764              	.L141:
 765 01d8 05F2FF15 	 addw r5,r5,#511
 766 01dc B8EB552F 	 cmp r8,r5,lsr#9
 767 01e0 FFF46FAF 	 bcc .L135
 768 01e4 4FF0FF33 	 mov r3,#-1
 769 01e8 2361     	 str r3,[r4,#16]
 770 01ea E360     	 str r3,[r4,#12]
 771 01ec 032F     	 cmp r7,#3
 772 01ee 4FF08003 	 mov r3,#128
 773 01f2 2371     	 strb r3,[r4,#4]
 774 01f4 2AD1     	 bne .L144
 775 01f6 94F86520 	 ldrb r2,[r4,#101]
 776 01fa 94F86430 	 ldrb r3,[r4,#100]
 777 01fe 43EA0223 	 orr r3,r3,r2,lsl#8
 778 0202 012B     	 cmp r3,#1
 779 0204 22D1     	 bne .L144
 780 0206 2046     	 mov r0,r4
 781 0208 711C     	 adds r1,r6,#1
 782 020a FFF7FEFF 	 bl move_window
 783 020e E8B9     	 cbnz r0,.L144
 784 0210 94F83322 	 ldrb r2,[r4,#563]
 785 0214 94F83232 	 ldrb r3,[r4,#562]
 786 0218 2071     	 strb r0,[r4,#4]
 787 021a 43EA0223 	 orr r3,r3,r2,lsl#8
 788 021e 4AF65522 	 movw r2,#43605
 789 0222 9342     	 cmp r3,r2
 790 0224 12D1     	 bne .L144
 791 0226 04F13400 	 add r0,r4,#52
 792 022a FFF7FEFF 	 bl ld_dword
 793 022e 184B     	 ldr r3,.L181+8
 794 0230 9842     	 cmp r0,r3
 795 0232 0BD1     	 bne .L144
 796 0234 04F50670 	 add r0,r4,#536
 797 0238 FFF7FEFF 	 bl ld_dword
 798 023c 154B     	 ldr r3,.L181+12
 799 023e 9842     	 cmp r0,r3
 800 0240 04D1     	 bne .L144
 801 0242 04F50770 	 add r0,r4,#540
 802 0246 FFF7FEFF 	 bl ld_dword
 803 024a 2061     	 str r0,[r4,#16]
 804              	.L144:
 805 024c 124A     	 ldr r2,.L181+16
 806 024e 2770     	 strb r7,[r4]
 807 0250 1388     	 ldrh r3,[r2]
 808 0252 0133     	 adds r3,r3,#1
 809 0254 9BB2     	 uxth r3,r3
 810 0256 1380     	 strh r3,[r2]
 811 0258 E380     	 strh r3,[r4,#6]
 812 025a 104B     	 ldr r3,.L181+20
 813 025c 1A68     	 ldr r2,[r3]
 814 025e 0020     	 movs r0,#0
 815 0260 A242     	 cmp r2,r4
 816 0262 6061     	 str r0,[r4,#20]
 817 0264 0DD1     	 bne .L178
 818 0266 1860     	 str r0,[r3]
 819 0268 0BE0     	 b .L178
 820              	.L146:
 821 026a 0B20     	 movs r0,#11
 822 026c 09E0     	 b .L178
 823              	.L147:
 824 026e 0C20     	 movs r0,#12
 825 0270 07E0     	 b .L178
 826              	.L148:
 827 0272 2846     	 mov r0,r5
 828 0274 05E0     	 b .L178
 829              	.L150:
 830 0276 0320     	 movs r0,#3
 831 0278 03E0     	 b .L178
 832              	.L180:
 833 027a 0428     	 cmp r0,#4
 834 027c 7FF421AF 	 bne .L135
 835              	.L157:
 836 0280 0120     	 movs r0,#1
 837              	.L178:
 838 0282 05B0     	 add sp,sp,#20
 839              	 
 840 0284 BDE8F083 	 pop {r4,r5,r6,r7,r8,r9,pc}
 841              	.L182:
 842              	 .align 2
 843              	.L181:
 844 0288 00000000 	 .word .LANCHOR2
 845 028c F5FFFF0F 	 .word 268435445
 846 0290 52526141 	 .word 1096897106
 847 0294 72724161 	 .word 1631679090
 848 0298 00000000 	 .word .LANCHOR3
 849 029c 00000000 	 .word .LANCHOR0
 851              	 .section .text.put_fat,"ax",%progbits
 852              	 .align 1
 853              	 .thumb
 854              	 .thumb_func
 856              	put_fat:
 857              	 
 858              	 
 859 0000 0129     	 cmp r1,#1
 860 0002 2DE9F843 	 push {r3,r4,r5,r6,r7,r8,r9,lr}
 861 0006 0546     	 mov r5,r0
 862 0008 0C46     	 mov r4,r1
 863 000a 1646     	 mov r6,r2
 864 000c 6DD9     	 bls .L195
 865 000e 8369     	 ldr r3,[r0,#24]
 866 0010 9942     	 cmp r1,r3
 867 0012 6AD2     	 bcs .L195
 868 0014 0378     	 ldrb r3,[r0]
 869 0016 022B     	 cmp r3,#2
 870 0018 3BD0     	 beq .L185
 871 001a 032B     	 cmp r3,#3
 872 001c 4BD0     	 beq .L186
 873 001e 012B     	 cmp r3,#1
 874 0020 63D1     	 bne .L195
 875 0022 01EB5108 	 add r8,r1,r1,lsr#1
 876 0026 416A     	 ldr r1,[r0,#36]
 877 0028 01EB5821 	 add r1,r1,r8,lsr#9
 878 002c FFF7FEFF 	 bl move_window
 879 0030 0746     	 mov r7,r0
 880 0032 0028     	 cmp r0,#0
 881 0034 5AD1     	 bne .L184
 882 0036 08F10109 	 add r9,r8,#1
 883 003a C8F30808 	 ubfx r8,r8,#0,#9
 884 003e A844     	 add r8,r8,r5
 885 0040 14F00104 	 ands r4,r4,#1
 886 0044 18BF     	 it ne
 887 0046 98F83420 	 ldrbne r2,[r8,#52]
 888 004a 696A     	 ldr r1,[r5,#36]
 889 004c F3B2     	 uxtb r3,r6
 890 004e 1EBF     	 ittt ne
 891 0050 02F00F02 	 andne r2,r2,#15
 892 0054 42EA0313 	 orrne r3,r2,r3,lsl#4
 893 0058 DBB2     	 uxtbne r3,r3
 894 005a 88F83430 	 strb r3,[r8,#52]
 895 005e 0123     	 movs r3,#1
 896 0060 EB70     	 strb r3,[r5,#3]
 897 0062 2846     	 mov r0,r5
 898 0064 01EB5921 	 add r1,r1,r9,lsr#9
 899 0068 FFF7FEFF 	 bl move_window
 900 006c 0746     	 mov r7,r0
 901 006e E8BB     	 cbnz r0,.L184
 902 0070 C9F30803 	 ubfx r3,r9,#0,#9
 903 0074 2B44     	 add r3,r3,r5
 904 0076 14B1     	 cbz r4,.L190
 905 0078 C6F30716 	 ubfx r6,r6,#4,#8
 906 007c 06E0     	 b .L191
 907              	.L190:
 908 007e 93F83410 	 ldrb r1,[r3,#52]
 909 0082 C6F30326 	 ubfx r6,r6,#8,#4
 910 0086 21F00F01 	 bic r1,r1,#15
 911 008a 0E43     	 orrs r6,r6,r1
 912              	.L191:
 913 008c 83F83460 	 strb r6,[r3,#52]
 914 0090 28E0     	 b .L196
 915              	.L185:
 916 0092 416A     	 ldr r1,[r0,#36]
 917 0094 01EB1421 	 add r1,r1,r4,lsr#8
 918 0098 FFF7FEFF 	 bl move_window
 919 009c 0746     	 mov r7,r0
 920 009e 28BB     	 cbnz r0,.L184
 921 00a0 6400     	 lsls r4,r4,#1
 922 00a2 04F4FF74 	 and r4,r4,#510
 923 00a6 2B19     	 adds r3,r5,r4
 924 00a8 83F83460 	 strb r6,[r3,#52]
 925 00ac C6F30726 	 ubfx r6,r6,#8,#8
 926 00b0 83F83560 	 strb r6,[r3,#53]
 927 00b4 16E0     	 b .L196
 928              	.L186:
 929 00b6 416A     	 ldr r1,[r0,#36]
 930 00b8 01EBD411 	 add r1,r1,r4,lsr#7
 931 00bc FFF7FEFF 	 bl move_window
 932 00c0 0746     	 mov r7,r0
 933 00c2 98B9     	 cbnz r0,.L184
 934 00c4 A400     	 lsls r4,r4,#2
 935 00c6 04F4FE74 	 and r4,r4,#508
 936 00ca 2C44     	 add r4,r4,r5
 937 00cc 3434     	 adds r4,r4,#52
 938 00ce 2046     	 mov r0,r4
 939 00d0 FFF7FEFF 	 bl ld_dword
 940 00d4 26F07046 	 bic r6,r6,#-268435456
 941 00d8 00F07041 	 and r1,r0,#-268435456
 942 00dc 3143     	 orrs r1,r1,r6
 943 00de 2046     	 mov r0,r4
 944 00e0 FFF7FEFF 	 bl st_dword
 945              	.L196:
 946 00e4 0123     	 movs r3,#1
 947 00e6 EB70     	 strb r3,[r5,#3]
 948 00e8 00E0     	 b .L184
 949              	.L195:
 950 00ea 0227     	 movs r7,#2
 951              	.L184:
 952 00ec 3846     	 mov r0,r7
 953 00ee BDE8F883 	 pop {r3,r4,r5,r6,r7,r8,r9,pc}
 955              	 .section .text.get_fat.isra.10,"ax",%progbits
 956              	 .align 1
 957              	 .thumb
 958              	 .thumb_func
 960              	get_fat.isra.10:
 961              	 
 962              	 
 963 0000 0129     	 cmp r1,#1
 964 0002 F8B5     	 push {r3,r4,r5,r6,r7,lr}
 965 0004 0646     	 mov r6,r0
 966 0006 0C46     	 mov r4,r1
 967 0008 53D9     	 bls .L208
 968 000a 8369     	 ldr r3,[r0,#24]
 969 000c 9942     	 cmp r1,r3
 970 000e 50D2     	 bcs .L208
 971 0010 0378     	 ldrb r3,[r0]
 972 0012 022B     	 cmp r3,#2
 973 0014 29D0     	 beq .L199
 974 0016 032B     	 cmp r3,#3
 975 0018 3AD0     	 beq .L200
 976 001a 012B     	 cmp r3,#1
 977 001c 49D1     	 bne .L208
 978 001e 01EB5105 	 add r5,r1,r1,lsr#1
 979 0022 416A     	 ldr r1,[r0,#36]
 980 0024 01EB5521 	 add r1,r1,r5,lsr#9
 981 0028 FFF7FEFF 	 bl move_window
 982 002c 10B1     	 cbz r0,.L202
 983              	.L203:
 984 002e 4FF0FF30 	 mov r0,#-1
 985 0032 F8BD     	 pop {r3,r4,r5,r6,r7,pc}
 986              	.L202:
 987 0034 6F1C     	 adds r7,r5,#1
 988 0036 716A     	 ldr r1,[r6,#36]
 989 0038 C5F30805 	 ubfx r5,r5,#0,#9
 990 003c 3544     	 add r5,r5,r6
 991 003e 3046     	 mov r0,r6
 992 0040 01EB5721 	 add r1,r1,r7,lsr#9
 993 0044 95F83450 	 ldrb r5,[r5,#52]
 994 0048 FFF7FEFF 	 bl move_window
 995 004c 0028     	 cmp r0,#0
 996 004e EED1     	 bne .L203
 997 0050 C7F30800 	 ubfx r0,r7,#0,#9
 998 0054 3044     	 add r0,r0,r6
 999 0056 E307     	 lsls r3,r4,#31
 1000 0058 90F83400 	 ldrb r0,[r0,#52]
 1001 005c 45EA0020 	 orr r0,r5,r0,lsl#8
 1002 0060 4CBF     	 ite mi
 1003 0062 0009     	 lsrmi r0,r0,#4
 1004 0064 C0F30B00 	 ubfxpl r0,r0,#0,#12
 1005 0068 F8BD     	 pop {r3,r4,r5,r6,r7,pc}
 1006              	.L199:
 1007 006a 416A     	 ldr r1,[r0,#36]
 1008 006c 01EB1421 	 add r1,r1,r4,lsr#8
 1009 0070 FFF7FEFF 	 bl move_window
 1010 0074 0028     	 cmp r0,#0
 1011 0076 DAD1     	 bne .L203
 1012 0078 6000     	 lsls r0,r4,#1
 1013 007a 00F4FF74 	 and r4,r0,#510
 1014 007e 3319     	 adds r3,r6,r4
 1015 0080 3444     	 add r4,r4,r6
 1016 0082 93F83430 	 ldrb r3,[r3,#52]
 1017 0086 94F83500 	 ldrb r0,[r4,#53]
 1018 008a 43EA0020 	 orr r0,r3,r0,lsl#8
 1019 008e F8BD     	 pop {r3,r4,r5,r6,r7,pc}
 1020              	.L200:
 1021 0090 416A     	 ldr r1,[r0,#36]
 1022 0092 01EBD411 	 add r1,r1,r4,lsr#7
 1023 0096 FFF7FEFF 	 bl move_window
 1024 009a 0028     	 cmp r0,#0
 1025 009c C7D1     	 bne .L203
 1026 009e A000     	 lsls r0,r4,#2
 1027 00a0 00F4FE70 	 and r0,r0,#508
 1028 00a4 3044     	 add r0,r0,r6
 1029 00a6 3430     	 adds r0,r0,#52
 1030 00a8 FFF7FEFF 	 bl ld_dword
 1031 00ac 20F07040 	 bic r0,r0,#-268435456
 1032 00b0 F8BD     	 pop {r3,r4,r5,r6,r7,pc}
 1033              	.L208:
 1034 00b2 0120     	 movs r0,#1
 1035 00b4 F8BD     	 pop {r3,r4,r5,r6,r7,pc}
 1037              	 .section .text.dir_sdi,"ax",%progbits
 1038              	 .align 1
 1039              	 .thumb
 1040              	 .thumb_func
 1042              	dir_sdi:
 1043              	 
 1044              	 
 1045 0000 B1F5001F 	 cmp r1,#2097152
 1046 0004 2DE9F041 	 push {r4,r5,r6,r7,r8,lr}
 1047 0008 0646     	 mov r6,r0
 1048 000a 0C46     	 mov r4,r1
 1049 000c 0768     	 ldr r7,[r0]
 1050 000e 02D3     	 bcc .L210
 1051              	.L212:
 1052 0010 0220     	 movs r0,#2
 1053 0012 BDE8F081 	 pop {r4,r5,r6,r7,r8,pc}
 1054              	.L210:
 1055 0016 CA06     	 lsls r2,r1,#27
 1056 0018 FAD1     	 bne .L212
 1057 001a 8568     	 ldr r5,[r0,#8]
 1058 001c 7161     	 str r1,[r6,#20]
 1059 001e 65B9     	 cbnz r5,.L213
 1060 0020 3B78     	 ldrb r3,[r7]
 1061 0022 022B     	 cmp r3,#2
 1062 0024 01D9     	 bls .L214
 1063 0026 BB6A     	 ldr r3,[r7,#40]
 1064 0028 33B9     	 cbnz r3,.L218
 1065              	.L214:
 1066 002a 3B89     	 ldrh r3,[r7,#8]
 1067 002c B3EB541F 	 cmp r3,r4,lsr#5
 1068 0030 EED9     	 bls .L212
 1069 0032 BB6A     	 ldr r3,[r7,#40]
 1070 0034 F361     	 str r3,[r6,#28]
 1071 0036 1AE0     	 b .L215
 1072              	.L218:
 1073 0038 1D46     	 mov r5,r3
 1074              	.L213:
 1075 003a B7F80A80 	 ldrh r8,[r7,#10]
 1076 003e 2946     	 mov r1,r5
 1077 0040 4FEA4828 	 lsl r8,r8,#9
 1078              	.L216:
 1079 0044 4445     	 cmp r4,r8
 1080 0046 0DD3     	 bcc .L223
 1081 0048 3068     	 ldr r0,[r6]
 1082 004a FFF7FEFF 	 bl get_fat.isra.10
 1083 004e 431C     	 adds r3,r0,#1
 1084 0050 0146     	 mov r1,r0
 1085 0052 1BD0     	 beq .L219
 1086 0054 0128     	 cmp r0,#1
 1087 0056 DBD9     	 bls .L212
 1088 0058 BB69     	 ldr r3,[r7,#24]
 1089 005a 9842     	 cmp r0,r3
 1090 005c D8D2     	 bcs .L212
 1091 005e C8EB0404 	 rsb r4,r8,r4
 1092 0062 EFE7     	 b .L216
 1093              	.L223:
 1094 0064 3846     	 mov r0,r7
 1095 0066 0D46     	 mov r5,r1
 1096 0068 FFF7FEFF 	 bl clst2sect
 1097 006c F061     	 str r0,[r6,#28]
 1098              	.L215:
 1099 006e F369     	 ldr r3,[r6,#28]
 1100 0070 B561     	 str r5,[r6,#24]
 1101 0072 002B     	 cmp r3,#0
 1102 0074 CCD0     	 beq .L212
 1103 0076 03EB5423 	 add r3,r3,r4,lsr#9
 1104 007a C4F30804 	 ubfx r4,r4,#0,#9
 1105 007e 3C44     	 add r4,r4,r7
 1106 0080 3434     	 adds r4,r4,#52
 1107 0082 F361     	 str r3,[r6,#28]
 1108 0084 3462     	 str r4,[r6,#32]
 1109 0086 0020     	 movs r0,#0
 1110 0088 BDE8F081 	 pop {r4,r5,r6,r7,r8,pc}
 1111              	.L219:
 1112 008c 0120     	 movs r0,#1
 1113 008e BDE8F081 	 pop {r4,r5,r6,r7,r8,pc}
 1115              	 .section .text.create_chain,"ax",%progbits
 1116              	 .align 1
 1117              	 .thumb
 1118              	 .thumb_func
 1120              	create_chain:
 1121              	 
 1122              	 
 1123 0000 2DE9F041 	 push {r4,r5,r6,r7,r8,lr}
 1124 0004 8046     	 mov r8,r0
 1125 0006 0568     	 ldr r5,[r0]
 1126 0008 0F46     	 mov r7,r1
 1127 000a 31B9     	 cbnz r1,.L225
 1128 000c EE68     	 ldr r6,[r5,#12]
 1129 000e A6B1     	 cbz r6,.L248
 1130 0010 AB69     	 ldr r3,[r5,#24]
 1131 0012 9E42     	 cmp r6,r3
 1132 0014 28BF     	 it cs
 1133 0016 0126     	 movcs r6,#1
 1134 0018 10E0     	 b .L226
 1135              	.L225:
 1136 001a 2846     	 mov r0,r5
 1137 001c FFF7FEFF 	 bl get_fat.isra.10
 1138 0020 0128     	 cmp r0,#1
 1139 0022 61D9     	 bls .L268
 1140 0024 411C     	 adds r1,r0,#1
 1141 0026 03D1     	 bne .L229
 1142              	.L234:
 1143 0028 4FF0FF30 	 mov r0,#-1
 1144 002c BDE8F081 	 pop {r4,r5,r6,r7,r8,pc}
 1145              	.L229:
 1146 0030 AB69     	 ldr r3,[r5,#24]
 1147 0032 9842     	 cmp r0,r3
 1148 0034 59D3     	 bcc .L228
 1149 0036 3E46     	 mov r6,r7
 1150 0038 00E0     	 b .L226
 1151              	.L248:
 1152 003a 0126     	 movs r6,#1
 1153              	.L226:
 1154 003c 2B69     	 ldr r3,[r5,#16]
 1155 003e 13B9     	 cbnz r3,.L230
 1156              	.L238:
 1157 0040 0020     	 movs r0,#0
 1158 0042 BDE8F081 	 pop {r4,r5,r6,r7,r8,pc}
 1159              	.L230:
 1160 0046 BE42     	 cmp r6,r7
 1161 0048 17D1     	 bne .L247
 1162 004a AB69     	 ldr r3,[r5,#24]
 1163 004c D8F80000 	 ldr r0,[r8]
 1164 0050 741C     	 adds r4,r6,#1
 1165 0052 9C42     	 cmp r4,r3
 1166 0054 28BF     	 it cs
 1167 0056 0224     	 movcs r4,#2
 1168 0058 2146     	 mov r1,r4
 1169 005a FFF7FEFF 	 bl get_fat.isra.10
 1170 005e 0128     	 cmp r0,#1
 1171 0060 42D0     	 beq .L268
 1172 0062 421C     	 adds r2,r0,#1
 1173 0064 E0D0     	 beq .L234
 1174 0066 38B1     	 cbz r0,.L235
 1175 0068 EB68     	 ldr r3,[r5,#12]
 1176 006a 012B     	 cmp r3,#1
 1177 006c 05D9     	 bls .L247
 1178 006e AA69     	 ldr r2,[r5,#24]
 1179 0070 9342     	 cmp r3,r2
 1180 0072 38BF     	 it cc
 1181 0074 1E46     	 movcc r6,r3
 1182 0076 00E0     	 b .L247
 1183              	.L235:
 1184 0078 A4B9     	 cbnz r4,.L236
 1185              	.L247:
 1186 007a 3446     	 mov r4,r6
 1187              	.L241:
 1188 007c AB69     	 ldr r3,[r5,#24]
 1189 007e 0134     	 adds r4,r4,#1
 1190 0080 9C42     	 cmp r4,r3
 1191 0082 02D3     	 bcc .L237
 1192 0084 012E     	 cmp r6,#1
 1193 0086 DBD9     	 bls .L238
 1194 0088 0224     	 movs r4,#2
 1195              	.L237:
 1196 008a D8F80000 	 ldr r0,[r8]
 1197 008e 2146     	 mov r1,r4
 1198 0090 FFF7FEFF 	 bl get_fat.isra.10
 1199 0094 30B1     	 cbz r0,.L236
 1200 0096 0128     	 cmp r0,#1
 1201 0098 27D0     	 beq .L228
 1202 009a 431C     	 adds r3,r0,#1
 1203 009c 25D0     	 beq .L228
 1204 009e B442     	 cmp r4,r6
 1205 00a0 ECD1     	 bne .L241
 1206 00a2 CDE7     	 b .L238
 1207              	.L236:
 1208 00a4 2846     	 mov r0,r5
 1209 00a6 2146     	 mov r1,r4
 1210 00a8 4FF0FF32 	 mov r2,#-1
 1211 00ac FFF7FEFF 	 bl put_fat
 1212 00b0 C0B9     	 cbnz r0,.L242
 1213 00b2 47B9     	 cbnz r7,.L243
 1214              	.L246:
 1215 00b4 AA69     	 ldr r2,[r5,#24]
 1216 00b6 2B69     	 ldr r3,[r5,#16]
 1217 00b8 EC60     	 str r4,[r5,#12]
 1218 00ba 023A     	 subs r2,r2,#2
 1219 00bc 9342     	 cmp r3,r2
 1220 00be 0AD8     	 bhi .L245
 1221 00c0 013B     	 subs r3,r3,#1
 1222 00c2 2B61     	 str r3,[r5,#16]
 1223 00c4 07E0     	 b .L245
 1224              	.L243:
 1225 00c6 2846     	 mov r0,r5
 1226 00c8 3946     	 mov r1,r7
 1227 00ca 2246     	 mov r2,r4
 1228 00cc FFF7FEFF 	 bl put_fat
 1229 00d0 0028     	 cmp r0,#0
 1230 00d2 EFD0     	 beq .L246
 1231 00d4 06E0     	 b .L242
 1232              	.L245:
 1233 00d6 2B79     	 ldrb r3,[r5,#4]
 1234 00d8 43F00103 	 orr r3,r3,#1
 1235 00dc 2B71     	 strb r3,[r5,#4]
 1236 00de 2046     	 mov r0,r4
 1237 00e0 BDE8F081 	 pop {r4,r5,r6,r7,r8,pc}
 1238              	.L242:
 1239 00e4 0128     	 cmp r0,#1
 1240 00e6 9FD0     	 beq .L234
 1241              	.L268:
 1242 00e8 0120     	 movs r0,#1
 1243              	.L228:
 1244 00ea BDE8F081 	 pop {r4,r5,r6,r7,r8,pc}
 1246              	 .section .text.remove_chain,"ax",%progbits
 1247              	 .align 1
 1248              	 .thumb
 1249              	 .thumb_func
 1251              	remove_chain:
 1252              	 
 1253              	 
 1254 0000 0129     	 cmp r1,#1
 1255 0002 F8B5     	 push {r3,r4,r5,r6,r7,lr}
 1256 0004 0746     	 mov r7,r0
 1257 0006 0D46     	 mov r5,r1
 1258 0008 0468     	 ldr r4,[r0]
 1259 000a 01D8     	 bhi .L270
 1260              	.L272:
 1261 000c 0220     	 movs r0,#2
 1262 000e F8BD     	 pop {r3,r4,r5,r6,r7,pc}
 1263              	.L270:
 1264 0010 A369     	 ldr r3,[r4,#24]
 1265 0012 9942     	 cmp r1,r3
 1266 0014 FAD2     	 bcs .L272
 1267 0016 32B1     	 cbz r2,.L274
 1268 0018 1146     	 mov r1,r2
 1269 001a 2046     	 mov r0,r4
 1270 001c 4FF0FF32 	 mov r2,#-1
 1271 0020 FFF7FEFF 	 bl put_fat
 1272 0024 10BB     	 cbnz r0,.L271
 1273              	.L274:
 1274 0026 3868     	 ldr r0,[r7]
 1275 0028 2946     	 mov r1,r5
 1276 002a FFF7FEFF 	 bl get_fat.isra.10
 1277 002e 0646     	 mov r6,r0
 1278 0030 08B9     	 cbnz r0,.L276
 1279              	.L278:
 1280 0032 0020     	 movs r0,#0
 1281 0034 F8BD     	 pop {r3,r4,r5,r6,r7,pc}
 1282              	.L276:
 1283 0036 0128     	 cmp r0,#1
 1284 0038 E8D0     	 beq .L272
 1285 003a 431C     	 adds r3,r0,#1
 1286 003c 15D0     	 beq .L280
 1287 003e 2046     	 mov r0,r4
 1288 0040 2946     	 mov r1,r5
 1289 0042 0022     	 movs r2,#0
 1290 0044 FFF7FEFF 	 bl put_fat
 1291 0048 80B9     	 cbnz r0,.L271
 1292 004a A269     	 ldr r2,[r4,#24]
 1293 004c 2369     	 ldr r3,[r4,#16]
 1294 004e 911E     	 subs r1,r2,#2
 1295 0050 8B42     	 cmp r3,r1
 1296 0052 3FBF     	 itttt cc
 1297 0054 0133     	 addcc r3,r3,#1
 1298 0056 2361     	 strcc r3,[r4,#16]
 1299 0058 2379     	 ldrbcc r3,[r4,#4]
 1300 005a 43F00103 	 orrcc r3,r3,#1
 1301 005e 38BF     	 it cc
 1302 0060 2371     	 strbcc r3,[r4,#4]
 1303 0062 9642     	 cmp r6,r2
 1304 0064 3546     	 mov r5,r6
 1305 0066 DED3     	 bcc .L274
 1306 0068 E3E7     	 b .L278
 1307              	.L280:
 1308 006a 0120     	 movs r0,#1
 1309              	.L271:
 1310 006c F8BD     	 pop {r3,r4,r5,r6,r7,pc}
 1312              	 .section .text.dir_clear,"ax",%progbits
 1313              	 .align 1
 1314              	 .thumb
 1315              	 .thumb_func
 1317              	dir_clear:
 1318              	 
 1319              	 
 1320 0000 F8B5     	 push {r3,r4,r5,r6,r7,lr}
 1321 0002 C378     	 ldrb r3,[r0,#3]
 1322 0004 0546     	 mov r5,r0
 1323 0006 0C46     	 mov r4,r1
 1324 0008 5BB9     	 cbnz r3,.L287
 1325              	.L290:
 1326 000a 2846     	 mov r0,r5
 1327 000c 2146     	 mov r1,r4
 1328 000e FFF7FEFF 	 bl clst2sect
 1329 0012 05F13407 	 add r7,r5,#52
 1330 0016 0646     	 mov r6,r0
 1331 0018 2863     	 str r0,[r5,#48]
 1332 001a 05F50D72 	 add r2,r5,#564
 1333 001e 3B46     	 mov r3,r7
 1334 0020 05E0     	 b .L288
 1335              	.L287:
 1336 0022 FFF7FEFF 	 bl sync_window.part.6
 1337 0026 0028     	 cmp r0,#0
 1338 0028 EFD0     	 beq .L290
 1339 002a 0120     	 movs r0,#1
 1340 002c F8BD     	 pop {r3,r4,r5,r6,r7,pc}
 1341              	.L288:
 1342 002e 0024     	 movs r4,#0
 1343 0030 03F8014B 	 strb r4,[r3],#1
 1344 0034 9342     	 cmp r3,r2
 1345 0036 FAD1     	 bne .L288
 1346              	.L291:
 1347 0038 6B89     	 ldrh r3,[r5,#10]
 1348 003a 9C42     	 cmp r4,r3
 1349 003c 04D3     	 bcc .L292
 1350              	.L294:
 1351 003e 6889     	 ldrh r0,[r5,#10]
 1352 0040 201A     	 subs r0,r4,r0
 1353 0042 18BF     	 it ne
 1354 0044 0120     	 movne r0,#1
 1355 0046 F8BD     	 pop {r3,r4,r5,r6,r7,pc}
 1356              	.L292:
 1357 0048 6878     	 ldrb r0,[r5,#1]
 1358 004a 3946     	 mov r1,r7
 1359 004c A219     	 adds r2,r4,r6
 1360 004e 0123     	 movs r3,#1
 1361 0050 FFF7FEFF 	 bl disk_write
 1362 0054 0028     	 cmp r0,#0
 1363 0056 F2D1     	 bne .L294
 1364 0058 0134     	 adds r4,r4,#1
 1365 005a EDE7     	 b .L291
 1367              	 .section .text.dir_next,"ax",%progbits
 1368              	 .align 1
 1369              	 .thumb
 1370              	 .thumb_func
 1372              	dir_next:
 1373              	 
 1374              	 
 1375 0000 2DE9F843 	 push {r3,r4,r5,r6,r7,r8,r9,lr}
 1376 0004 4769     	 ldr r7,[r0,#20]
 1377 0006 0668     	 ldr r6,[r0]
 1378 0008 2037     	 adds r7,r7,#32
 1379 000a B7F5001F 	 cmp r7,#2097152
 1380 000e 24BF     	 itt cs
 1381 0010 0023     	 movcs r3,#0
 1382 0012 C361     	 strcs r3,[r0,#28]
 1383 0014 C369     	 ldr r3,[r0,#28]
 1384 0016 0446     	 mov r4,r0
 1385 0018 8946     	 mov r9,r1
 1386 001a 002B     	 cmp r3,#0
 1387 001c 45D0     	 beq .L310
 1388 001e C7F30808 	 ubfx r8,r7,#0,#9
 1389 0022 B8F1000F 	 cmp r8,#0
 1390 0026 39D1     	 bne .L301
 1391 0028 8169     	 ldr r1,[r0,#24]
 1392 002a 0133     	 adds r3,r3,#1
 1393 002c C361     	 str r3,[r0,#28]
 1394 002e 31B9     	 cbnz r1,.L302
 1395 0030 3389     	 ldrh r3,[r6,#8]
 1396 0032 B3EB571F 	 cmp r3,r7,lsr#5
 1397 0036 31D8     	 bhi .L301
 1398              	.L307:
 1399 0038 0023     	 movs r3,#0
 1400 003a E361     	 str r3,[r4,#28]
 1401 003c 35E0     	 b .L310
 1402              	.L302:
 1403 003e 7389     	 ldrh r3,[r6,#10]
 1404 0040 013B     	 subs r3,r3,#1
 1405 0042 13EA5723 	 ands r3,r3,r7,lsr#9
 1406 0046 29D1     	 bne .L301
 1407 0048 3046     	 mov r0,r6
 1408 004a FFF7FEFF 	 bl get_fat.isra.10
 1409 004e 0128     	 cmp r0,#1
 1410 0050 0546     	 mov r5,r0
 1411 0052 02D8     	 bhi .L304
 1412              	.L308:
 1413 0054 0220     	 movs r0,#2
 1414 0056 BDE8F883 	 pop {r3,r4,r5,r6,r7,r8,r9,pc}
 1415              	.L304:
 1416 005a 421C     	 adds r2,r0,#1
 1417 005c 02D1     	 bne .L305
 1418              	.L309:
 1419 005e 0120     	 movs r0,#1
 1420 0060 BDE8F883 	 pop {r3,r4,r5,r6,r7,r8,r9,pc}
 1421              	.L305:
 1422 0064 B369     	 ldr r3,[r6,#24]
 1423 0066 9842     	 cmp r0,r3
 1424 0068 12D3     	 bcc .L306
 1425 006a B9F1000F 	 cmp r9,#0
 1426 006e E3D0     	 beq .L307
 1427 0070 2046     	 mov r0,r4
 1428 0072 A169     	 ldr r1,[r4,#24]
 1429 0074 FFF7FEFF 	 bl create_chain
 1430 0078 0546     	 mov r5,r0
 1431 007a C8B1     	 cbz r0,.L311
 1432 007c 0128     	 cmp r0,#1
 1433 007e E9D0     	 beq .L308
 1434 0080 431C     	 adds r3,r0,#1
 1435 0082 ECD0     	 beq .L309
 1436 0084 3046     	 mov r0,r6
 1437 0086 2946     	 mov r1,r5
 1438 0088 FFF7FEFF 	 bl dir_clear
 1439 008c 0028     	 cmp r0,#0
 1440 008e E6D1     	 bne .L309
 1441              	.L306:
 1442 0090 A561     	 str r5,[r4,#24]
 1443 0092 3046     	 mov r0,r6
 1444 0094 2946     	 mov r1,r5
 1445 0096 FFF7FEFF 	 bl clst2sect
 1446 009a E061     	 str r0,[r4,#28]
 1447              	.L301:
 1448 009c 4644     	 add r6,r6,r8
 1449 009e 3436     	 adds r6,r6,#52
 1450 00a0 6761     	 str r7,[r4,#20]
 1451 00a2 2662     	 str r6,[r4,#32]
 1452 00a4 0020     	 movs r0,#0
 1453 00a6 BDE8F883 	 pop {r3,r4,r5,r6,r7,r8,r9,pc}
 1454              	.L310:
 1455 00aa 0420     	 movs r0,#4
 1456 00ac BDE8F883 	 pop {r3,r4,r5,r6,r7,r8,r9,pc}
 1457              	.L311:
 1458 00b0 0720     	 movs r0,#7
 1459 00b2 BDE8F883 	 pop {r3,r4,r5,r6,r7,r8,r9,pc}
 1461              	 .section .text.follow_path,"ax",%progbits
 1462              	 .align 1
 1463              	 .thumb
 1464              	 .thumb_func
 1466              	follow_path:
 1467              	 
 1468              	 
 1469 0000 2DE9F843 	 push {r3,r4,r5,r6,r7,r8,r9,lr}
 1470 0004 0B78     	 ldrb r3,[r1]
 1471 0006 0768     	 ldr r7,[r0]
 1472 0008 2F2B     	 cmp r3,#47
 1473 000a 0446     	 mov r4,r0
 1474 000c 0E46     	 mov r6,r1
 1475 000e 01D0     	 beq .L322
 1476 0010 5C2B     	 cmp r3,#92
 1477 0012 01D1     	 bne .L323
 1478              	.L322:
 1479 0014 3246     	 mov r2,r6
 1480 0016 01E0     	 b .L324
 1481              	.L323:
 1482 0018 7B69     	 ldr r3,[r7,#20]
 1483 001a 08E0     	 b .L407
 1484              	.L324:
 1485 001c 1378     	 ldrb r3,[r2]
 1486 001e 2F2B     	 cmp r3,#47
 1487 0020 1646     	 mov r6,r2
 1488 0022 02F10102 	 add r2,r2,#1
 1489 0026 F9D0     	 beq .L324
 1490 0028 5C2B     	 cmp r3,#92
 1491 002a F7D0     	 beq .L324
 1492 002c 0023     	 movs r3,#0
 1493              	.L407:
 1494 002e A360     	 str r3,[r4,#8]
 1495 0030 3378     	 ldrb r3,[r6]
 1496 0032 1F2B     	 cmp r3,#31
 1497 0034 3ED8     	 bhi .L328
 1498 0036 8023     	 movs r3,#128
 1499 0038 84F82F30 	 strb r3,[r4,#47]
 1500 003c 2046     	 mov r0,r4
 1501 003e 0021     	 movs r1,#0
 1502 0040 BDE8F843 	 pop {r3,r4,r5,r6,r7,r8,r9,lr}
 1503 0044 FFF7FEBF 	 b dir_sdi
 1504              	.L330:
 1505 0048 04F12300 	 add r0,r4,#35
 1506 004c 0021     	 movs r1,#0
 1507              	.L334:
 1508 004e 13F8012F 	 ldrb r2,[r3,#1]!
 1509 0052 2E2A     	 cmp r2,#46
 1510 0054 01F10101 	 add r1,r1,#1
 1511 0058 40D0     	 beq .L410
 1512 005a 2F2A     	 cmp r2,#47
 1513 005c 43D1     	 bne .L411
 1514              	.L335:
 1515 005e 212A     	 cmp r2,#33
 1516 0060 0E44     	 add r6,r6,r1
 1517 0062 34BF     	 ite cc
 1518 0064 2423     	 movcc r3,#36
 1519 0066 2023     	 movcs r3,#32
 1520              	.L409:
 1521 0068 84F82F30 	 strb r3,[r4,#47]
 1522 006c 2046     	 mov r0,r4
 1523 006e 0021     	 movs r1,#0
 1524 0070 D4F80090 	 ldr r9,[r4]
 1525 0074 FFF7FEFF 	 bl dir_sdi
 1526              	.L408:
 1527 0078 0546     	 mov r5,r0
 1528 007a 30B9     	 cbnz r0,.L350
 1529 007c 4846     	 mov r0,r9
 1530 007e E169     	 ldr r1,[r4,#28]
 1531 0080 FFF7FEFF 	 bl move_window
 1532 0084 0546     	 mov r5,r0
 1533 0086 0028     	 cmp r0,#0
 1534 0088 77D0     	 beq .L412
 1535              	.L350:
 1536 008a 94F82F30 	 ldrb r3,[r4,#47]
 1537 008e 002D     	 cmp r5,#0
 1538 0090 40F08B80 	 bne .L413
 1539 0094 5A07     	 lsls r2,r3,#29
 1540 0096 00F1A580 	 bmi .L377
 1541 009a A379     	 ldrb r3,[r4,#6]
 1542 009c DB06     	 lsls r3,r3,#27
 1543 009e 40F19880 	 bpl .L362
 1544 00a2 6169     	 ldr r1,[r4,#20]
 1545 00a4 3878     	 ldrb r0,[r7]
 1546 00a6 C1F30801 	 ubfx r1,r1,#0,#9
 1547 00aa 3944     	 add r1,r1,r7
 1548 00ac 3431     	 adds r1,r1,#52
 1549 00ae FFF7FEFF 	 bl ld_clust.isra.3
 1550 00b2 A060     	 str r0,[r4,#8]
 1551              	.L328:
 1552 00b4 04F12408 	 add r8,r4,#36
 1553 00b8 04F12F02 	 add r2,r4,#47
 1554 00bc 4346     	 mov r3,r8
 1555              	.L329:
 1556 00be 2021     	 movs r1,#32
 1557 00c0 03F8011B 	 strb r1,[r3],#1
 1558 00c4 9342     	 cmp r3,r2
 1559 00c6 FAD1     	 bne .L329
 1560 00c8 3346     	 mov r3,r6
 1561 00ca 13F80129 	 ldrb r2,[r3],#-1
 1562 00ce 2E2A     	 cmp r2,#46
 1563 00d0 BAD0     	 beq .L330
 1564 00d2 0021     	 movs r1,#0
 1565 00d4 1A46     	 mov r2,r3
 1566 00d6 0846     	 mov r0,r1
 1567 00d8 0825     	 movs r5,#8
 1568 00da 2CE0     	 b .L331
 1569              	.L410:
 1570 00dc 0329     	 cmp r1,#3
 1571 00de 7AD0     	 beq .L333
 1572 00e0 00F8012F 	 strb r2,[r0,#1]!
 1573 00e4 B3E7     	 b .L334
 1574              	.L411:
 1575 00e6 5C2A     	 cmp r2,#92
 1576 00e8 B9D0     	 beq .L335
 1577 00ea 202A     	 cmp r2,#32
 1578 00ec 73D8     	 bhi .L333
 1579 00ee B6E7     	 b .L335
 1580              	.L415:
 1581 00f0 2F2B     	 cmp r3,#47
 1582 00f2 27D0     	 beq .L339
 1583 00f4 5C2B     	 cmp r3,#92
 1584 00f6 25D0     	 beq .L339
 1585 00f8 2E2B     	 cmp r3,#46
 1586 00fa 6ED0     	 beq .L343
 1587 00fc A942     	 cmp r1,r5
 1588 00fe 6AD2     	 bcs .L333
 1589 0100 13F0800F 	 tst r3,#128
 1590 0104 1CBF     	 itt ne
 1591 0106 03F07F03 	 andne r3,r3,#127
 1592 010a DFF8E0E0 	 ldrne lr,.L416
 1593 010e DFF8E0C0 	 ldr ip,.L416+4
 1594 0112 18BF     	 it ne
 1595 0114 1EF80330 	 ldrbne r3,[lr,r3]
 1596              	.L346:
 1597 0118 1CF801EF 	 ldrb lr,[ip,#1]!
 1598 011c BEF1000F 	 cmp lr,#0
 1599 0120 19D1     	 bne .L414
 1600 0122 A3F1610E 	 sub lr,r3,#97
 1601 0126 BEF1190F 	 cmp lr,#25
 1602 012a 01D8     	 bhi .L358
 1603 012c 203B     	 subs r3,r3,#32
 1604 012e DBB2     	 uxtb r3,r3
 1605              	.L358:
 1606 0130 08F80130 	 strb r3,[r8,r1]
 1607 0134 0131     	 adds r1,r1,#1
 1608              	.L331:
 1609 0136 12F8013F 	 ldrb r3,[r2,#1]!
 1610 013a 202B     	 cmp r3,#32
 1611 013c 00F10100 	 add r0,r0,#1
 1612 0140 D6D8     	 bhi .L415
 1613 0142 0BE0     	 b .L338
 1614              	.L339:
 1615 0144 3218     	 adds r2,r6,r0
 1616              	.L341:
 1617 0146 901B     	 subs r0,r2,r6
 1618 0148 12F8015B 	 ldrb r5,[r2],#1
 1619 014c 2F2D     	 cmp r5,#47
 1620 014e FAD0     	 beq .L341
 1621 0150 5C2D     	 cmp r5,#92
 1622 0152 F8D0     	 beq .L341
 1623 0154 02E0     	 b .L338
 1624              	.L414:
 1625 0156 9E45     	 cmp lr,r3
 1626 0158 DED1     	 bne .L346
 1627 015a 3CE0     	 b .L333
 1628              	.L338:
 1629 015c 0029     	 cmp r1,#0
 1630 015e 3AD0     	 beq .L333
 1631 0160 94F82420 	 ldrb r2,[r4,#36]
 1632 0164 E52A     	 cmp r2,#229
 1633 0166 04BF     	 itt eq
 1634 0168 0522     	 moveq r2,#5
 1635 016a 84F82420 	 strbeq r2,[r4,#36]
 1636 016e 212B     	 cmp r3,#33
 1637 0170 34BF     	 ite cc
 1638 0172 0423     	 movcc r3,#4
 1639 0174 0023     	 movcs r3,#0
 1640 0176 0644     	 add r6,r6,r0
 1641 0178 76E7     	 b .L409
 1642              	.L412:
 1643 017a 206A     	 ldr r0,[r4,#32]
 1644 017c 0378     	 ldrb r3,[r0]
 1645 017e 93B1     	 cbz r3,.L361
 1646 0180 C37A     	 ldrb r3,[r0,#11]
 1647 0182 03F03F03 	 and r3,r3,#63
 1648 0186 A371     	 strb r3,[r4,#6]
 1649 0188 C37A     	 ldrb r3,[r0,#11]
 1650 018a 1907     	 lsls r1,r3,#28
 1651 018c 06D4     	 bmi .L351
 1652 018e 4146     	 mov r1,r8
 1653 0190 0B22     	 movs r2,#11
 1654 0192 FFF7FEFF 	 bl mem_cmp
 1655 0196 0028     	 cmp r0,#0
 1656 0198 3FF477AF 	 beq .L350
 1657              	.L351:
 1658 019c 2046     	 mov r0,r4
 1659 019e 0021     	 movs r1,#0
 1660 01a0 FFF7FEFF 	 bl dir_next
 1661 01a4 68E7     	 b .L408
 1662              	.L361:
 1663 01a6 0425     	 movs r5,#4
 1664 01a8 6FE7     	 b .L350
 1665              	.L413:
 1666 01aa 042D     	 cmp r5,#4
 1667 01ac 1AD1     	 bne .L377
 1668 01ae 13F0200F 	 tst r3,#32
 1669 01b2 03F00403 	 and r3,r3,#4
 1670 01b6 07D0     	 beq .L355
 1671 01b8 002B     	 cmp r3,#0
 1672 01ba 3FF47BAF 	 beq .L328
 1673 01be 8023     	 movs r3,#128
 1674 01c0 84F82F30 	 strb r3,[r4,#47]
 1675 01c4 0025     	 movs r5,#0
 1676 01c6 0DE0     	 b .L377
 1677              	.L355:
 1678 01c8 002B     	 cmp r3,#0
 1679 01ca 14BF     	 ite ne
 1680 01cc 0425     	 movne r5,#4
 1681 01ce 0525     	 moveq r5,#5
 1682 01d0 08E0     	 b .L377
 1683              	.L362:
 1684 01d2 0525     	 movs r5,#5
 1685 01d4 06E0     	 b .L377
 1686              	.L333:
 1687 01d6 0625     	 movs r5,#6
 1688 01d8 04E0     	 b .L377
 1689              	.L343:
 1690 01da 0B2D     	 cmp r5,#11
 1691 01dc FBD0     	 beq .L333
 1692 01de 0821     	 movs r1,#8
 1693 01e0 0B25     	 movs r5,#11
 1694 01e2 A8E7     	 b .L331
 1695              	.L377:
 1696 01e4 2846     	 mov r0,r5
 1697 01e6 BDE8F883 	 pop {r3,r4,r5,r6,r7,r8,r9,pc}
 1698              	.L417:
 1699 01ea 00BF     	 .align 2
 1700              	.L416:
 1701 01ec 00000000 	 .word .LANCHOR4
 1702 01f0 FFFFFFFF 	 .word .LC2-1
 1704              	 .section .text.dir_read.constprop.12,"ax",%progbits
 1705              	 .align 1
 1706              	 .thumb
 1707              	 .thumb_func
 1709              	dir_read.constprop.12:
 1710              	 
 1711              	 
 1712 0000 38B5     	 push {r3,r4,r5,lr}
 1713 0002 0446     	 mov r4,r0
 1714 0004 0568     	 ldr r5,[r0]
 1715 0006 0420     	 movs r0,#4
 1716              	.L419:
 1717 0008 E169     	 ldr r1,[r4,#28]
 1718 000a E9B1     	 cbz r1,.L443
 1719 000c 2846     	 mov r0,r5
 1720 000e FFF7FEFF 	 bl move_window
 1721 0012 D8B9     	 cbnz r0,.L425
 1722 0014 236A     	 ldr r3,[r4,#32]
 1723 0016 1A78     	 ldrb r2,[r3]
 1724 0018 DAB1     	 cbz r2,.L426
 1725 001a DB7A     	 ldrb r3,[r3,#11]
 1726 001c E52A     	 cmp r2,#229
 1727 001e 03F03F03 	 and r3,r3,#63
 1728 0022 A371     	 strb r3,[r4,#6]
 1729 0024 09D0     	 beq .L421
 1730 0026 2E2A     	 cmp r2,#46
 1731 0028 07D0     	 beq .L421
 1732 002a 0F2B     	 cmp r3,#15
 1733 002c 05D0     	 beq .L421
 1734 002e 23F02003 	 bic r3,r3,#32
 1735 0032 082B     	 cmp r3,#8
 1736 0034 01D0     	 beq .L421
 1737              	.L424:
 1738 0036 0020     	 movs r0,#0
 1739 0038 38BD     	 pop {r3,r4,r5,pc}
 1740              	.L421:
 1741 003a 2046     	 mov r0,r4
 1742 003c 0021     	 movs r1,#0
 1743 003e FFF7FEFF 	 bl dir_next
 1744 0042 0028     	 cmp r0,#0
 1745 0044 E0D0     	 beq .L419
 1746 0046 01E0     	 b .L425
 1747              	.L443:
 1748 0048 0028     	 cmp r0,#0
 1749 004a F4D0     	 beq .L424
 1750              	.L425:
 1751 004c 0023     	 movs r3,#0
 1752 004e E361     	 str r3,[r4,#28]
 1753 0050 38BD     	 pop {r3,r4,r5,pc}
 1754              	.L426:
 1755 0052 0420     	 movs r0,#4
 1756 0054 FAE7     	 b .L425
 1758              	 .section .text.dir_register,"ax",%progbits
 1759              	 .align 1
 1760              	 .thumb
 1761              	 .thumb_func
 1763              	dir_register:
 1764              	 
 1765              	 
 1766 0000 70B5     	 push {r4,r5,r6,lr}
 1767 0002 0021     	 movs r1,#0
 1768 0004 0546     	 mov r5,r0
 1769 0006 0668     	 ldr r6,[r0]
 1770 0008 FFF7FEFF 	 bl dir_sdi
 1771              	.L461:
 1772 000c 0446     	 mov r4,r0
 1773 000e 78B9     	 cbnz r0,.L445
 1774 0010 3046     	 mov r0,r6
 1775 0012 E969     	 ldr r1,[r5,#28]
 1776 0014 FFF7FEFF 	 bl move_window
 1777 0018 0446     	 mov r4,r0
 1778 001a 48B9     	 cbnz r0,.L445
 1779 001c 2B6A     	 ldr r3,[r5,#32]
 1780 001e 1B78     	 ldrb r3,[r3]
 1781 0020 E52B     	 cmp r3,#229
 1782 0022 09D0     	 beq .L446
 1783 0024 43B1     	 cbz r3,.L446
 1784 0026 2846     	 mov r0,r5
 1785 0028 0121     	 movs r1,#1
 1786 002a FFF7FEFF 	 bl dir_next
 1787 002e EDE7     	 b .L461
 1788              	.L445:
 1789 0030 042C     	 cmp r4,#4
 1790 0032 08BF     	 it eq
 1791 0034 0724     	 moveq r4,#7
 1792 0036 15E0     	 b .L454
 1793              	.L446:
 1794 0038 3046     	 mov r0,r6
 1795 003a E969     	 ldr r1,[r5,#28]
 1796 003c FFF7FEFF 	 bl move_window
 1797 0040 0446     	 mov r4,r0
 1798 0042 78B9     	 cbnz r0,.L454
 1799 0044 2B6A     	 ldr r3,[r5,#32]
 1800 0046 03F12002 	 add r2,r3,#32
 1801              	.L448:
 1802 004a 0021     	 movs r1,#0
 1803 004c 03F8011B 	 strb r1,[r3],#1
 1804 0050 9342     	 cmp r3,r2
 1805 0052 FAD1     	 bne .L448
 1806 0054 286A     	 ldr r0,[r5,#32]
 1807 0056 05F12401 	 add r1,r5,#36
 1808 005a 0B22     	 movs r2,#11
 1809 005c FFF7FEFF 	 bl mem_cpy.part.0
 1810 0060 0123     	 movs r3,#1
 1811 0062 F370     	 strb r3,[r6,#3]
 1812              	.L454:
 1813 0064 2046     	 mov r0,r4
 1814 0066 70BD     	 pop {r4,r5,r6,pc}
 1816              	 .section .text.sync_fs,"ax",%progbits
 1817              	 .align 1
 1818              	 .thumb
 1819              	 .thumb_func
 1821              	sync_fs:
 1822              	 
 1823              	 
 1824 0000 70B5     	 push {r4,r5,r6,lr}
 1825 0002 C378     	 ldrb r3,[r0,#3]
 1826 0004 0446     	 mov r4,r0
 1827 0006 1BB9     	 cbnz r3,.L463
 1828              	.L466:
 1829 0008 2378     	 ldrb r3,[r4]
 1830 000a 032B     	 cmp r3,#3
 1831 000c 3FD1     	 bne .L465
 1832 000e 04E0     	 b .L473
 1833              	.L463:
 1834 0010 FFF7FEFF 	 bl sync_window.part.6
 1835 0014 0028     	 cmp r0,#0
 1836 0016 42D1     	 bne .L467
 1837 0018 F6E7     	 b .L466
 1838              	.L473:
 1839 001a 2379     	 ldrb r3,[r4,#4]
 1840 001c 012B     	 cmp r3,#1
 1841 001e 36D1     	 bne .L465
 1842 0020 04F13406 	 add r6,r4,#52
 1843 0024 04F50D72 	 add r2,r4,#564
 1844 0028 3346     	 mov r3,r6
 1845              	.L468:
 1846 002a 0025     	 movs r5,#0
 1847 002c 03F8015B 	 strb r5,[r3],#1
 1848 0030 9342     	 cmp r3,r2
 1849 0032 FAD1     	 bne .L468
 1850 0034 5523     	 movs r3,#85
 1851 0036 84F83232 	 strb r3,[r4,#562]
 1852 003a AA23     	 movs r3,#170
 1853 003c 84F83332 	 strb r3,[r4,#563]
 1854 0040 5223     	 movs r3,#82
 1855 0042 4122     	 movs r2,#65
 1856 0044 7221     	 movs r1,#114
 1857 0046 84F83430 	 strb r3,[r4,#52]
 1858 004a 84F83530 	 strb r3,[r4,#53]
 1859 004e 6123     	 movs r3,#97
 1860 0050 84F83630 	 strb r3,[r4,#54]
 1861 0054 84F83720 	 strb r2,[r4,#55]
 1862 0058 84F81A22 	 strb r2,[r4,#538]
 1863 005c 84F81B32 	 strb r3,[r4,#539]
 1864 0060 84F81812 	 strb r1,[r4,#536]
 1865 0064 84F81912 	 strb r1,[r4,#537]
 1866 0068 04F50770 	 add r0,r4,#540
 1867 006c 2169     	 ldr r1,[r4,#16]
 1868 006e FFF7FEFF 	 bl st_dword
 1869 0072 04F50870 	 add r0,r4,#544
 1870 0076 E168     	 ldr r1,[r4,#12]
 1871 0078 FFF7FEFF 	 bl st_dword
 1872 007c 226A     	 ldr r2,[r4,#32]
 1873 007e 6078     	 ldrb r0,[r4,#1]
 1874 0080 0132     	 adds r2,r2,#1
 1875 0082 2263     	 str r2,[r4,#48]
 1876 0084 3146     	 mov r1,r6
 1877 0086 0123     	 movs r3,#1
 1878 0088 FFF7FEFF 	 bl disk_write
 1879 008c 2571     	 strb r5,[r4,#4]
 1880              	.L465:
 1881 008e 0021     	 movs r1,#0
 1882 0090 6078     	 ldrb r0,[r4,#1]
 1883 0092 0A46     	 mov r2,r1
 1884 0094 FFF7FEFF 	 bl disk_ioctl
 1885 0098 0030     	 adds r0,r0,#0
 1886 009a 18BF     	 it ne
 1887 009c 0120     	 movne r0,#1
 1888              	.L467:
 1889 009e 70BD     	 pop {r4,r5,r6,pc}
 1891              	 .section .text.f_mount,"ax",%progbits
 1892              	 .align 1
 1893              	 .global f_mount
 1894              	 .thumb
 1895              	 .thumb_func
 1897              	f_mount:
 1898              	 
 1899              	 
 1900 0000 30B5     	 push {r4,r5,lr}
 1901 0002 85B0     	 sub sp,sp,#20
 1902 0004 1446     	 mov r4,r2
 1903 0006 0190     	 str r0,[sp,#4]
 1904 0008 04A8     	 add r0,sp,#16
 1905 000a 0091     	 str r1,[sp]
 1906 000c 40F8041D 	 str r1,[r0,#-4]!
 1907 0010 FFF7FEFF 	 bl get_ldnumber
 1908 0014 0028     	 cmp r0,#0
 1909 0016 18DB     	 blt .L479
 1910 0018 0E4B     	 ldr r3,.L487
 1911 001a 53F82020 	 ldr r2,[r3,r0,lsl#2]
 1912 001e 3AB1     	 cbz r2,.L476
 1913 0020 0D4D     	 ldr r5,.L487+4
 1914 0022 2968     	 ldr r1,[r5]
 1915 0024 9142     	 cmp r1,r2
 1916 0026 4FF00001 	 mov r1,#0
 1917 002a 08BF     	 it eq
 1918 002c 2960     	 streq r1,[r5]
 1919 002e 1170     	 strb r1,[r2]
 1920              	.L476:
 1921 0030 019A     	 ldr r2,[sp,#4]
 1922 0032 0AB1     	 cbz r2,.L478
 1923 0034 0021     	 movs r1,#0
 1924 0036 1170     	 strb r1,[r2]
 1925              	.L478:
 1926 0038 43F82020 	 str r2,[r3,r0,lsl#2]
 1927 003c 3CB1     	 cbz r4,.L480
 1928 003e 6846     	 mov r0,sp
 1929 0040 01A9     	 add r1,sp,#4
 1930 0042 0022     	 movs r2,#0
 1931 0044 FFF7FEFF 	 bl find_volume
 1932 0048 02E0     	 b .L475
 1933              	.L479:
 1934 004a 0B20     	 movs r0,#11
 1935 004c 00E0     	 b .L475
 1936              	.L480:
 1937 004e 2046     	 mov r0,r4
 1938              	.L475:
 1939 0050 05B0     	 add sp,sp,#20
 1940              	 
 1941 0052 30BD     	 pop {r4,r5,pc}
 1942              	.L488:
 1943              	 .align 2
 1944              	.L487:
 1945 0054 00000000 	 .word .LANCHOR2
 1946 0058 00000000 	 .word .LANCHOR0
 1948              	 .section .text.f_open,"ax",%progbits
 1949              	 .align 1
 1950              	 .global f_open
 1951              	 .thumb
 1952              	 .thumb_func
 1954              	f_open:
 1955              	 
 1956              	 
 1957 0000 2DE9F041 	 push {r4,r5,r6,r7,r8,lr}
 1958 0004 90B0     	 sub sp,sp,#64
 1959 0006 1746     	 mov r7,r2
 1960 0008 0191     	 str r1,[sp,#4]
 1961 000a 0446     	 mov r4,r0
 1962 000c 0028     	 cmp r0,#0
 1963 000e 00F0DA80 	 beq .L512
 1964 0012 02F03F05 	 and r5,r2,#63
 1965 0016 01A8     	 add r0,sp,#4
 1966 0018 03A9     	 add r1,sp,#12
 1967 001a 2A46     	 mov r2,r5
 1968 001c FFF7FEFF 	 bl find_volume
 1969 0020 0028     	 cmp r0,#0
 1970 0022 40F0E180 	 bne .L491
 1971 0026 10AE     	 add r6,sp,#64
 1972 0028 039B     	 ldr r3,[sp,#12]
 1973 002a 46F8303D 	 str r3,[r6,#-48]!
 1974 002e 0199     	 ldr r1,[sp,#4]
 1975 0030 3046     	 mov r0,r6
 1976 0032 FFF7FEFF 	 bl follow_path
 1977 0036 68B9     	 cbnz r0,.L492
 1978 0038 9DF93F30 	 ldrsb r3,[sp,#63]
 1979 003c 002B     	 cmp r3,#0
 1980 003e 08DB     	 blt .L514
 1981 0040 15F03E0F 	 tst r5,#62
 1982 0044 3046     	 mov r0,r6
 1983 0046 14BF     	 ite ne
 1984 0048 0121     	 movne r1,#1
 1985 004a 0021     	 moveq r1,#0
 1986 004c FFF7FEFF 	 bl chk_lock
 1987 0050 00E0     	 b .L492
 1988              	.L514:
 1989 0052 0620     	 movs r0,#6
 1990              	.L492:
 1991 0054 17F01C0F 	 tst r7,#28
 1992 0058 4AD0     	 beq .L493
 1993 005a 58B1     	 cbz r0,.L494
 1994 005c 0428     	 cmp r0,#4
 1995 005e 05D1     	 bne .L495
 1996 0060 644B     	 ldr r3,.L555
 1997 0062 1B68     	 ldr r3,[r3]
 1998 0064 002B     	 cmp r3,#0
 1999 0066 00F0B080 	 beq .L496
 2000 006a 1220     	 movs r0,#18
 2001              	.L495:
 2002 006c 45F00805 	 orr r5,r5,#8
 2003 0070 48B1     	 cbz r0,.L497
 2004 0072 B9E0     	 b .L491
 2005              	.L494:
 2006 0074 9DF81630 	 ldrb r3,[sp,#22]
 2007 0078 13F0110F 	 tst r3,#17
 2008 007c 40F0AD80 	 bne .L518
 2009 0080 7B07     	 lsls r3,r7,#29
 2010 0082 00F1A680 	 bmi .L516
 2011              	.L497:
 2012 0086 2F07     	 lsls r7,r5,#28
 2013 0088 3CD5     	 bpl .L501
 2014 008a 039B     	 ldr r3,[sp,#12]
 2015 008c DDF83080 	 ldr r8,[sp,#48]
 2016 0090 1878     	 ldrb r0,[r3]
 2017 0092 4146     	 mov r1,r8
 2018 0094 FFF7FEFF 	 bl ld_clust.isra.3
 2019 0098 0746     	 mov r7,r0
 2020 009a FFF7FEFF 	 bl get_fattime
 2021 009e 0146     	 mov r1,r0
 2022 00a0 08F10E00 	 add r0,r8,#14
 2023 00a4 FFF7FEFF 	 bl st_dword
 2024 00a8 0C9B     	 ldr r3,[sp,#48]
 2025 00aa 0398     	 ldr r0,[sp,#12]
 2026 00ac 2022     	 movs r2,#32
 2027 00ae DA72     	 strb r2,[r3,#11]
 2028 00b0 0C99     	 ldr r1,[sp,#48]
 2029 00b2 0022     	 movs r2,#0
 2030 00b4 FFF7FEFF 	 bl st_clust.isra.4
 2031 00b8 0C9B     	 ldr r3,[sp,#48]
 2032 00ba 0022     	 movs r2,#0
 2033 00bc 1A77     	 strb r2,[r3,#28]
 2034 00be 5A77     	 strb r2,[r3,#29]
 2035 00c0 9A77     	 strb r2,[r3,#30]
 2036 00c2 DA77     	 strb r2,[r3,#31]
 2037 00c4 039B     	 ldr r3,[sp,#12]
 2038 00c6 0121     	 movs r1,#1
 2039 00c8 D970     	 strb r1,[r3,#3]
 2040 00ca DFB1     	 cbz r7,.L501
 2041 00cc 3046     	 mov r0,r6
 2042 00ce 3946     	 mov r1,r7
 2043 00d0 D3F83080 	 ldr r8,[r3,#48]
 2044 00d4 FFF7FEFF 	 bl remove_chain
 2045 00d8 0028     	 cmp r0,#0
 2046 00da 40F08580 	 bne .L491
 2047 00de 0398     	 ldr r0,[sp,#12]
 2048 00e0 4146     	 mov r1,r8
 2049 00e2 FFF7FEFF 	 bl move_window
 2050 00e6 039B     	 ldr r3,[sp,#12]
 2051 00e8 013F     	 subs r7,r7,#1
 2052 00ea DF60     	 str r7,[r3,#12]
 2053 00ec 50B1     	 cbz r0,.L501
 2054 00ee 7BE0     	 b .L491
 2055              	.L493:
 2056 00f0 0028     	 cmp r0,#0
 2057 00f2 79D1     	 bne .L491
 2058 00f4 9DF81630 	 ldrb r3,[sp,#22]
 2059 00f8 D806     	 lsls r0,r3,#27
 2060 00fa 6CD4     	 bmi .L517
 2061 00fc BA07     	 lsls r2,r7,#30
 2062 00fe 01D5     	 bpl .L501
 2063 0100 DF07     	 lsls r7,r3,#31
 2064 0102 6AD4     	 bmi .L518
 2065              	.L501:
 2066 0104 039B     	 ldr r3,[sp,#12]
 2067 0106 2807     	 lsls r0,r5,#28
 2068 0108 1B6B     	 ldr r3,[r3,#48]
 2069 010a 6362     	 str r3,[r4,#36]
 2070 010c 48BF     	 it mi
 2071 010e 45F04005 	 orrmi r5,r5,#64
 2072 0112 15F0FE0F 	 tst r5,#254
 2073 0116 0C9B     	 ldr r3,[sp,#48]
 2074 0118 A362     	 str r3,[r4,#40]
 2075 011a 3046     	 mov r0,r6
 2076 011c 14BF     	 ite ne
 2077 011e 0121     	 movne r1,#1
 2078 0120 0021     	 moveq r1,#0
 2079 0122 FFF7FEFF 	 bl inc_lock
 2080 0126 2061     	 str r0,[r4,#16]
 2081 0128 0028     	 cmp r0,#0
 2082 012a 5AD0     	 beq .L522
 2083 012c 039F     	 ldr r7,[sp,#12]
 2084 012e 0C9E     	 ldr r6,[sp,#48]
 2085 0130 3878     	 ldrb r0,[r7]
 2086 0132 3146     	 mov r1,r6
 2087 0134 FFF7FEFF 	 bl ld_clust.isra.3
 2088 0138 A060     	 str r0,[r4,#8]
 2089 013a 06F11C00 	 add r0,r6,#28
 2090 013e FFF7FEFF 	 bl ld_dword
 2091 0142 FB88     	 ldrh r3,[r7,#6]
 2092 0144 A380     	 strh r3,[r4,#4]
 2093 0146 04F12C06 	 add r6,r4,#44
 2094 014a 0023     	 movs r3,#0
 2095 014c 6375     	 strb r3,[r4,#21]
 2096 014e 2362     	 str r3,[r4,#32]
 2097 0150 A361     	 str r3,[r4,#24]
 2098 0152 E060     	 str r0,[r4,#12]
 2099 0154 2760     	 str r7,[r4]
 2100 0156 2575     	 strb r5,[r4,#20]
 2101 0158 04F50B72 	 add r2,r4,#556
 2102 015c 3346     	 mov r3,r6
 2103              	.L505:
 2104 015e 0021     	 movs r1,#0
 2105 0160 03F8011B 	 strb r1,[r3],#1
 2106 0164 9342     	 cmp r3,r2
 2107 0166 FAD1     	 bne .L505
 2108 0168 AA06     	 lsls r2,r5,#26
 2109 016a 38D5     	 bpl .L506
 2110 016c E568     	 ldr r5,[r4,#12]
 2111 016e 002D     	 cmp r5,#0
 2112 0170 35D0     	 beq .L506
 2113 0172 7F89     	 ldrh r7,[r7,#10]
 2114 0174 A168     	 ldr r1,[r4,#8]
 2115 0176 A561     	 str r5,[r4,#24]
 2116 0178 7F02     	 lsls r7,r7,#9
 2117              	.L507:
 2118 017a BD42     	 cmp r5,r7
 2119 017c 0ED9     	 bls .L554
 2120 017e 2068     	 ldr r0,[r4]
 2121 0180 FFF7FEFF 	 bl get_fat.isra.10
 2122 0184 0128     	 cmp r0,#1
 2123 0186 0146     	 mov r1,r0
 2124 0188 03D9     	 bls .L520
 2125 018a 431C     	 adds r3,r0,#1
 2126 018c 5842     	 rsbs r0,r3,#0
 2127 018e 5841     	 adcs r0,r0,r3
 2128 0190 00E0     	 b .L509
 2129              	.L520:
 2130 0192 0220     	 movs r0,#2
 2131              	.L509:
 2132 0194 ED1B     	 subs r5,r5,r7
 2133 0196 0028     	 cmp r0,#0
 2134 0198 EFD0     	 beq .L507
 2135 019a 00E0     	 b .L510
 2136              	.L554:
 2137 019c 0020     	 movs r0,#0
 2138              	.L510:
 2139 019e E161     	 str r1,[r4,#28]
 2140 01a0 10BB     	 cbnz r0,.L491
 2141 01a2 C5F30803 	 ubfx r3,r5,#0,#9
 2142 01a6 D3B1     	 cbz r3,.L506
 2143 01a8 039F     	 ldr r7,[sp,#12]
 2144 01aa 3846     	 mov r0,r7
 2145 01ac FFF7FEFF 	 bl clst2sect
 2146 01b0 B8B1     	 cbz r0,.L522
 2147 01b2 00EB5522 	 add r2,r0,r5,lsr#9
 2148 01b6 2262     	 str r2,[r4,#32]
 2149 01b8 7878     	 ldrb r0,[r7,#1]
 2150 01ba 3146     	 mov r1,r6
 2151 01bc 0123     	 movs r3,#1
 2152 01be FFF7FEFF 	 bl disk_read
 2153 01c2 80B9     	 cbnz r0,.L523
 2154 01c4 0BE0     	 b .L506
 2155              	.L512:
 2156 01c6 0920     	 movs r0,#9
 2157 01c8 10E0     	 b .L553
 2158              	.L496:
 2159 01ca 3046     	 mov r0,r6
 2160 01cc FFF7FEFF 	 bl dir_register
 2161 01d0 4CE7     	 b .L495
 2162              	.L516:
 2163 01d2 0820     	 movs r0,#8
 2164 01d4 08E0     	 b .L491
 2165              	.L517:
 2166 01d6 0420     	 movs r0,#4
 2167 01d8 06E0     	 b .L491
 2168              	.L518:
 2169 01da 0720     	 movs r0,#7
 2170 01dc 04E0     	 b .L491
 2171              	.L506:
 2172 01de 0020     	 movs r0,#0
 2173 01e0 04E0     	 b .L553
 2174              	.L522:
 2175 01e2 0220     	 movs r0,#2
 2176 01e4 00E0     	 b .L491
 2177              	.L523:
 2178 01e6 0120     	 movs r0,#1
 2179              	.L491:
 2180 01e8 0023     	 movs r3,#0
 2181 01ea 2360     	 str r3,[r4]
 2182              	.L553:
 2183 01ec 10B0     	 add sp,sp,#64
 2184              	 
 2185 01ee BDE8F081 	 pop {r4,r5,r6,r7,r8,pc}
 2186              	.L556:
 2187 01f2 00BF     	 .align 2
 2188              	.L555:
 2189 01f4 00000000 	 .word .LANCHOR0
 2191              	 .section .text.f_read,"ax",%progbits
 2192              	 .align 1
 2193              	 .global f_read
 2194              	 .thumb
 2195              	 .thumb_func
 2197              	f_read:
 2198              	 
 2199              	 
 2200 0000 2DE9F74F 	 push {r0,r1,r2,r4,r5,r6,r7,r8,r9,r10,fp,lr}
 2201 0004 9846     	 mov r8,r3
 2202 0006 0023     	 movs r3,#0
 2203 0008 0F46     	 mov r7,r1
 2204 000a C8F80030 	 str r3,[r8]
 2205 000e 01A9     	 add r1,sp,#4
 2206 0010 0546     	 mov r5,r0
 2207 0012 1446     	 mov r4,r2
 2208 0014 FFF7FEFF 	 bl validate
 2209 0018 0028     	 cmp r0,#0
 2210 001a 40F09B80 	 bne .L558
 2211 001e 687D     	 ldrb r0,[r5,#21]
 2212 0020 0028     	 cmp r0,#0
 2213 0022 40F09780 	 bne .L558
 2214 0026 2B7D     	 ldrb r3,[r5,#20]
 2215 0028 DA07     	 lsls r2,r3,#31
 2216 002a 40F19280 	 bpl .L577
 2217 002e EB68     	 ldr r3,[r5,#12]
 2218 0030 A869     	 ldr r0,[r5,#24]
 2219 0032 181A     	 subs r0,r3,r0
 2220 0034 8442     	 cmp r4,r0
 2221 0036 28BF     	 it cs
 2222 0038 0446     	 movcs r4,r0
 2223              	.L559:
 2224 003a 002C     	 cmp r4,#0
 2225 003c 00F08780 	 beq .L582
 2226 0040 AB69     	 ldr r3,[r5,#24]
 2227 0042 C3F30802 	 ubfx r2,r3,#0,#9
 2228 0046 002A     	 cmp r2,#0
 2229 0048 68D1     	 bne .L560
 2230 004a 019A     	 ldr r2,[sp,#4]
 2231 004c B2F80AA0 	 ldrh r10,[r2,#10]
 2232 0050 0AF1FF3A 	 add r10,r10,#-1
 2233 0054 1AEA532A 	 ands r10,r10,r3,lsr#9
 2234 0058 10D1     	 bne .L561
 2235 005a 0BB9     	 cbnz r3,.L562
 2236 005c A868     	 ldr r0,[r5,#8]
 2237 005e 03E0     	 b .L563
 2238              	.L562:
 2239 0060 2868     	 ldr r0,[r5]
 2240 0062 E969     	 ldr r1,[r5,#28]
 2241 0064 FFF7FEFF 	 bl get_fat.isra.10
 2242              	.L563:
 2243 0068 0128     	 cmp r0,#1
 2244 006a 01D8     	 bhi .L564
 2245              	.L566:
 2246 006c 0220     	 movs r0,#2
 2247 006e 02E0     	 b .L581
 2248              	.L564:
 2249 0070 431C     	 adds r3,r0,#1
 2250 0072 02D1     	 bne .L565
 2251              	.L569:
 2252 0074 0120     	 movs r0,#1
 2253              	.L581:
 2254 0076 6875     	 strb r0,[r5,#21]
 2255 0078 6CE0     	 b .L558
 2256              	.L565:
 2257 007a E861     	 str r0,[r5,#28]
 2258              	.L561:
 2259 007c DDF804B0 	 ldr fp,[sp,#4]
 2260 0080 E969     	 ldr r1,[r5,#28]
 2261 0082 5846     	 mov r0,fp
 2262 0084 FFF7FEFF 	 bl clst2sect
 2263 0088 0028     	 cmp r0,#0
 2264 008a EFD0     	 beq .L566
 2265 008c 660A     	 lsrs r6,r4,#9
 2266 008e 00EB0A09 	 add r9,r0,r10
 2267 0092 23D0     	 beq .L567
 2268 0094 BBF80A30 	 ldrh r3,[fp,#10]
 2269 0098 9BF80100 	 ldrb r0,[fp,#1]
 2270 009c 06EB0A02 	 add r2,r6,r10
 2271 00a0 9A42     	 cmp r2,r3
 2272 00a2 88BF     	 it hi
 2273 00a4 CAEB0306 	 rsbhi r6,r10,r3
 2274 00a8 3946     	 mov r1,r7
 2275 00aa 4A46     	 mov r2,r9
 2276 00ac 3346     	 mov r3,r6
 2277 00ae FFF7FEFF 	 bl disk_read
 2278 00b2 0028     	 cmp r0,#0
 2279 00b4 DED1     	 bne .L569
 2280 00b6 95F91430 	 ldrsb r3,[r5,#20]
 2281 00ba 002B     	 cmp r3,#0
 2282 00bc 0CDA     	 bge .L570
 2283 00be 286A     	 ldr r0,[r5,#32]
 2284 00c0 C9EB0000 	 rsb r0,r9,r0
 2285 00c4 B042     	 cmp r0,r6
 2286 00c6 07D2     	 bcs .L570
 2287 00c8 07EB4020 	 add r0,r7,r0,lsl#9
 2288 00cc 05F12C01 	 add r1,r5,#44
 2289 00d0 4FF40072 	 mov r2,#512
 2290 00d4 FFF7FEFF 	 bl mem_cpy.part.0
 2291              	.L570:
 2292 00d8 7602     	 lsls r6,r6,#9
 2293 00da 2DE0     	 b .L571
 2294              	.L567:
 2295 00dc 2A6A     	 ldr r2,[r5,#32]
 2296 00de 4A45     	 cmp r2,r9
 2297 00e0 1AD0     	 beq .L572
 2298 00e2 95F91430 	 ldrsb r3,[r5,#20]
 2299 00e6 002B     	 cmp r3,#0
 2300 00e8 05F12C06 	 add r6,r5,#44
 2301 00ec 0BDA     	 bge .L573
 2302 00ee 9BF80100 	 ldrb r0,[fp,#1]
 2303 00f2 3146     	 mov r1,r6
 2304 00f4 0123     	 movs r3,#1
 2305 00f6 FFF7FEFF 	 bl disk_write
 2306 00fa 0028     	 cmp r0,#0
 2307 00fc BAD1     	 bne .L569
 2308 00fe 2B7D     	 ldrb r3,[r5,#20]
 2309 0100 03F07F03 	 and r3,r3,#127
 2310 0104 2B75     	 strb r3,[r5,#20]
 2311              	.L573:
 2312 0106 019B     	 ldr r3,[sp,#4]
 2313 0108 3146     	 mov r1,r6
 2314 010a 5878     	 ldrb r0,[r3,#1]
 2315 010c 4A46     	 mov r2,r9
 2316 010e 0123     	 movs r3,#1
 2317 0110 FFF7FEFF 	 bl disk_read
 2318 0114 0028     	 cmp r0,#0
 2319 0116 ADD1     	 bne .L569
 2320              	.L572:
 2321 0118 C5F82090 	 str r9,[r5,#32]
 2322              	.L560:
 2323 011c A969     	 ldr r1,[r5,#24]
 2324 011e C1F30801 	 ubfx r1,r1,#0,#9
 2325 0122 C1F50076 	 rsb r6,r1,#512
 2326 0126 A642     	 cmp r6,r4
 2327 0128 28BF     	 it cs
 2328 012a 2646     	 movcs r6,r4
 2329 012c 2944     	 add r1,r1,r5
 2330 012e 3846     	 mov r0,r7
 2331 0130 2C31     	 adds r1,r1,#44
 2332 0132 3246     	 mov r2,r6
 2333 0134 FFF7FEFF 	 bl mem_cpy.part.0
 2334              	.L571:
 2335 0138 D8F80030 	 ldr r3,[r8]
 2336 013c 3344     	 add r3,r3,r6
 2337 013e C8F80030 	 str r3,[r8]
 2338 0142 AB69     	 ldr r3,[r5,#24]
 2339 0144 A41B     	 subs r4,r4,r6
 2340 0146 3744     	 add r7,r7,r6
 2341 0148 1E44     	 add r6,r6,r3
 2342 014a AE61     	 str r6,[r5,#24]
 2343 014c 75E7     	 b .L559
 2344              	.L582:
 2345 014e 2046     	 mov r0,r4
 2346 0150 00E0     	 b .L558
 2347              	.L577:
 2348 0152 0720     	 movs r0,#7
 2349              	.L558:
 2350 0154 03B0     	 add sp,sp,#12
 2351              	 
 2352 0156 BDE8F08F 	 pop {r4,r5,r6,r7,r8,r9,r10,fp,pc}
 2354              	 .section .text.f_write,"ax",%progbits
 2355              	 .align 1
 2356              	 .global f_write
 2357              	 .thumb
 2358              	 .thumb_func
 2360              	f_write:
 2361              	 
 2362              	 
 2363 0000 2DE9F74F 	 push {r0,r1,r2,r4,r5,r6,r7,r8,r9,r10,fp,lr}
 2364 0004 9846     	 mov r8,r3
 2365 0006 0023     	 movs r3,#0
 2366 0008 0F46     	 mov r7,r1
 2367 000a C8F80030 	 str r3,[r8]
 2368 000e 01A9     	 add r1,sp,#4
 2369 0010 0446     	 mov r4,r0
 2370 0012 1646     	 mov r6,r2
 2371 0014 FFF7FEFF 	 bl validate
 2372 0018 0028     	 cmp r0,#0
 2373 001a 40F0B680 	 bne .L584
 2374 001e 607D     	 ldrb r0,[r4,#21]
 2375 0020 0028     	 cmp r0,#0
 2376 0022 40F0B280 	 bne .L584
 2377 0026 237D     	 ldrb r3,[r4,#20]
 2378 0028 9A07     	 lsls r2,r3,#30
 2379 002a 40F1AD80 	 bpl .L608
 2380 002e A369     	 ldr r3,[r4,#24]
 2381 0030 DE42     	 cmn r6,r3
 2382 0032 51D3     	 bcc .L586
 2383 0034 DE43     	 mvns r6,r3
 2384 0036 4FE0     	 b .L586
 2385              	.L604:
 2386 0038 A369     	 ldr r3,[r4,#24]
 2387 003a C3F30802 	 ubfx r2,r3,#0,#9
 2388 003e 002A     	 cmp r2,#0
 2389 0040 40F08F80 	 bne .L587
 2390 0044 019A     	 ldr r2,[sp,#4]
 2391 0046 B2F80AA0 	 ldrh r10,[r2,#10]
 2392 004a 0AF1FF3A 	 add r10,r10,#-1
 2393 004e 1AEA532A 	 ands r10,r10,r3,lsr#9
 2394 0052 44D0     	 beq .L614
 2395              	.L589:
 2396 0054 94F91430 	 ldrsb r3,[r4,#20]
 2397 0058 002B     	 cmp r3,#0
 2398 005a 60DB     	 blt .L615
 2399              	.L596:
 2400 005c DDF804B0 	 ldr fp,[sp,#4]
 2401 0060 E169     	 ldr r1,[r4,#28]
 2402 0062 5846     	 mov r0,fp
 2403 0064 FFF7FEFF 	 bl clst2sect
 2404 0068 0028     	 cmp r0,#0
 2405 006a 4BD0     	 beq .L598
 2406 006c 750A     	 lsrs r5,r6,#9
 2407 006e 00EB0A09 	 add r9,r0,r10
 2408 0072 63D0     	 beq .L599
 2409 0074 BBF80A30 	 ldrh r3,[fp,#10]
 2410 0078 9BF80100 	 ldrb r0,[fp,#1]
 2411 007c 05EB0A02 	 add r2,r5,r10
 2412 0080 9A42     	 cmp r2,r3
 2413 0082 88BF     	 it hi
 2414 0084 CAEB0305 	 rsbhi r5,r10,r3
 2415 0088 3946     	 mov r1,r7
 2416 008a 4A46     	 mov r2,r9
 2417 008c 2B46     	 mov r3,r5
 2418 008e FFF7FEFF 	 bl disk_write
 2419 0092 0028     	 cmp r0,#0
 2420 0094 3AD1     	 bne .L597
 2421 0096 216A     	 ldr r1,[r4,#32]
 2422 0098 C9EB0101 	 rsb r1,r9,r1
 2423 009c A942     	 cmp r1,r5
 2424 009e 0BD2     	 bcs .L601
 2425 00a0 04F12C00 	 add r0,r4,#44
 2426 00a4 07EB4121 	 add r1,r7,r1,lsl#9
 2427 00a8 4FF40072 	 mov r2,#512
 2428 00ac FFF7FEFF 	 bl mem_cpy.part.0
 2429 00b0 237D     	 ldrb r3,[r4,#20]
 2430 00b2 03F07F03 	 and r3,r3,#127
 2431 00b6 2375     	 strb r3,[r4,#20]
 2432              	.L601:
 2433 00b8 6D02     	 lsls r5,r5,#9
 2434              	.L602:
 2435 00ba D8F80030 	 ldr r3,[r8]
 2436 00be 2B44     	 add r3,r3,r5
 2437 00c0 C8F80030 	 str r3,[r8]
 2438 00c4 A369     	 ldr r3,[r4,#24]
 2439 00c6 761B     	 subs r6,r6,r5
 2440 00c8 2F44     	 add r7,r7,r5
 2441 00ca 1D44     	 add r5,r5,r3
 2442 00cc E368     	 ldr r3,[r4,#12]
 2443 00ce A561     	 str r5,[r4,#24]
 2444 00d0 AB42     	 cmp r3,r5
 2445 00d2 2CBF     	 ite cs
 2446 00d4 E360     	 strcs r3,[r4,#12]
 2447 00d6 E560     	 strcc r5,[r4,#12]
 2448              	.L586:
 2449 00d8 002E     	 cmp r6,#0
 2450 00da ADD1     	 bne .L604
 2451 00dc 0AE0     	 b .L605
 2452              	.L614:
 2453 00de 1BB9     	 cbnz r3,.L590
 2454 00e0 A168     	 ldr r1,[r4,#8]
 2455 00e2 69B9     	 cbnz r1,.L591
 2456 00e4 2046     	 mov r0,r4
 2457 00e6 01E0     	 b .L612
 2458              	.L590:
 2459 00e8 E169     	 ldr r1,[r4,#28]
 2460 00ea 2046     	 mov r0,r4
 2461              	.L612:
 2462 00ec FFF7FEFF 	 bl create_chain
 2463 00f0 0146     	 mov r1,r0
 2464 00f2 28B9     	 cbnz r0,.L591
 2465              	.L605:
 2466 00f4 237D     	 ldrb r3,[r4,#20]
 2467 00f6 43F04003 	 orr r3,r3,#64
 2468 00fa 2375     	 strb r3,[r4,#20]
 2469 00fc 0020     	 movs r0,#0
 2470 00fe 44E0     	 b .L584
 2471              	.L591:
 2472 0100 0129     	 cmp r1,#1
 2473 0102 01D1     	 bne .L593
 2474              	.L598:
 2475 0104 0220     	 movs r0,#2
 2476 0106 02E0     	 b .L613
 2477              	.L593:
 2478 0108 4B1C     	 adds r3,r1,#1
 2479 010a 02D1     	 bne .L594
 2480              	.L597:
 2481 010c 0120     	 movs r0,#1
 2482              	.L613:
 2483 010e 6075     	 strb r0,[r4,#21]
 2484 0110 3BE0     	 b .L584
 2485              	.L594:
 2486 0112 A368     	 ldr r3,[r4,#8]
 2487 0114 E161     	 str r1,[r4,#28]
 2488 0116 002B     	 cmp r3,#0
 2489 0118 9CD1     	 bne .L589
 2490 011a A160     	 str r1,[r4,#8]
 2491 011c 9AE7     	 b .L589
 2492              	.L615:
 2493 011e 019B     	 ldr r3,[sp,#4]
 2494 0120 226A     	 ldr r2,[r4,#32]
 2495 0122 5878     	 ldrb r0,[r3,#1]
 2496 0124 04F12C01 	 add r1,r4,#44
 2497 0128 0123     	 movs r3,#1
 2498 012a FFF7FEFF 	 bl disk_write
 2499 012e 0028     	 cmp r0,#0
 2500 0130 ECD1     	 bne .L597
 2501 0132 237D     	 ldrb r3,[r4,#20]
 2502 0134 03F07F03 	 and r3,r3,#127
 2503 0138 2375     	 strb r3,[r4,#20]
 2504 013a 8FE7     	 b .L596
 2505              	.L599:
 2506 013c 236A     	 ldr r3,[r4,#32]
 2507 013e 4B45     	 cmp r3,r9
 2508 0140 0DD0     	 beq .L603
 2509 0142 A269     	 ldr r2,[r4,#24]
 2510 0144 E368     	 ldr r3,[r4,#12]
 2511 0146 9A42     	 cmp r2,r3
 2512 0148 09D2     	 bcs .L603
 2513 014a 9BF80100 	 ldrb r0,[fp,#1]
 2514 014e 04F12C01 	 add r1,r4,#44
 2515 0152 4A46     	 mov r2,r9
 2516 0154 0123     	 movs r3,#1
 2517 0156 FFF7FEFF 	 bl disk_read
 2518 015a 0028     	 cmp r0,#0
 2519 015c D6D1     	 bne .L597
 2520              	.L603:
 2521 015e C4F82090 	 str r9,[r4,#32]
 2522              	.L587:
 2523 0162 A069     	 ldr r0,[r4,#24]
 2524 0164 C0F30800 	 ubfx r0,r0,#0,#9
 2525 0168 C0F50075 	 rsb r5,r0,#512
 2526 016c B542     	 cmp r5,r6
 2527 016e 28BF     	 it cs
 2528 0170 3546     	 movcs r5,r6
 2529 0172 2044     	 add r0,r0,r4
 2530 0174 2C30     	 adds r0,r0,#44
 2531 0176 3946     	 mov r1,r7
 2532 0178 2A46     	 mov r2,r5
 2533 017a FFF7FEFF 	 bl mem_cpy.part.0
 2534 017e 237D     	 ldrb r3,[r4,#20]
 2535 0180 63F07F03 	 orn r3,r3,#127
 2536 0184 2375     	 strb r3,[r4,#20]
 2537 0186 98E7     	 b .L602
 2538              	.L608:
 2539 0188 0720     	 movs r0,#7
 2540              	.L584:
 2541 018a 03B0     	 add sp,sp,#12
 2542              	 
 2543 018c BDE8F08F 	 pop {r4,r5,r6,r7,r8,r9,r10,fp,pc}
 2545              	 .section .text.putc_bfd,"ax",%progbits
 2546              	 .align 1
 2547              	 .thumb
 2548              	 .thumb_func
 2550              	putc_bfd:
 2551              	 
 2552              	 
 2553 0000 0A29     	 cmp r1,#10
 2554 0002 F7B5     	 push {r0,r1,r2,r4,r5,r6,r7,lr}
 2555 0004 0446     	 mov r4,r0
 2556 0006 0F46     	 mov r7,r1
 2557 0008 02D1     	 bne .L617
 2558 000a 0D21     	 movs r1,#13
 2559 000c FFF7F8FF 	 bl putc_bfd
 2560              	.L617:
 2561 0010 6368     	 ldr r3,[r4,#4]
 2562 0012 002B     	 cmp r3,#0
 2563 0014 14DB     	 blt .L616
 2564 0016 5D1C     	 adds r5,r3,#1
 2565 0018 2344     	 add r3,r3,r4
 2566 001a 3B2D     	 cmp r5,#59
 2567 001c A668     	 ldr r6,[r4,#8]
 2568 001e 1F73     	 strb r7,[r3,#12]
 2569 0020 0BDD     	 ble .L619
 2570 0022 2A46     	 mov r2,r5
 2571 0024 01AB     	 add r3,sp,#4
 2572 0026 2068     	 ldr r0,[r4]
 2573 0028 04F10C01 	 add r1,r4,#12
 2574 002c FFF7FEFF 	 bl f_write
 2575 0030 019B     	 ldr r3,[sp,#4]
 2576 0032 5D1B     	 subs r5,r3,r5
 2577 0034 18BF     	 it ne
 2578 0036 4FF0FF35 	 movne r5,#-1
 2579              	.L619:
 2580 003a 0136     	 adds r6,r6,#1
 2581 003c 6560     	 str r5,[r4,#4]
 2582 003e A660     	 str r6,[r4,#8]
 2583              	.L616:
 2584 0040 03B0     	 add sp,sp,#12
 2585              	 
 2586 0042 F0BD     	 pop {r4,r5,r6,r7,pc}
 2588              	 .section .text.putc_flush,"ax",%progbits
 2589              	 .align 1
 2590              	 .thumb
 2591              	 .thumb_func
 2593              	putc_flush:
 2594              	 
 2595              	 
 2596 0000 4268     	 ldr r2,[r0,#4]
 2597 0002 002A     	 cmp r2,#0
 2598 0004 13B5     	 push {r0,r1,r4,lr}
 2599 0006 0446     	 mov r4,r0
 2600 0008 02DA     	 bge .L622
 2601              	.L624:
 2602 000a 4FF0FF30 	 mov r0,#-1
 2603 000e 0CE0     	 b .L623
 2604              	.L622:
 2605 0010 0068     	 ldr r0,[r0]
 2606 0012 04F10C01 	 add r1,r4,#12
 2607 0016 01AB     	 add r3,sp,#4
 2608 0018 FFF7FEFF 	 bl f_write
 2609 001c 0028     	 cmp r0,#0
 2610 001e F4D1     	 bne .L624
 2611 0020 6268     	 ldr r2,[r4,#4]
 2612 0022 019B     	 ldr r3,[sp,#4]
 2613 0024 9A42     	 cmp r2,r3
 2614 0026 F0D1     	 bne .L624
 2615 0028 A068     	 ldr r0,[r4,#8]
 2616              	.L623:
 2617 002a 02B0     	 add sp,sp,#8
 2618              	 
 2619 002c 10BD     	 pop {r4,pc}
 2621              	 .section .text.f_sync,"ax",%progbits
 2622              	 .align 1
 2623              	 .global f_sync
 2624              	 .thumb
 2625              	 .thumb_func
 2627              	f_sync:
 2628              	 
 2629              	 
 2630 0000 F7B5     	 push {r0,r1,r2,r4,r5,r6,r7,lr}
 2631 0002 01A9     	 add r1,sp,#4
 2632 0004 0546     	 mov r5,r0
 2633 0006 FFF7FEFF 	 bl validate
 2634 000a 0028     	 cmp r0,#0
 2635 000c 3FD1     	 bne .L626
 2636 000e 2B7D     	 ldrb r3,[r5,#20]
 2637 0010 03F04002 	 and r2,r3,#64
 2638 0014 02F0FF00 	 and r0,r2,#255
 2639 0018 002A     	 cmp r2,#0
 2640 001a 38D0     	 beq .L626
 2641 001c 1B06     	 lsls r3,r3,#24
 2642 001e 0CD5     	 bpl .L627
 2643 0020 019B     	 ldr r3,[sp,#4]
 2644 0022 2A6A     	 ldr r2,[r5,#32]
 2645 0024 5878     	 ldrb r0,[r3,#1]
 2646 0026 05F12C01 	 add r1,r5,#44
 2647 002a 0123     	 movs r3,#1
 2648 002c FFF7FEFF 	 bl disk_write
 2649 0030 60BB     	 cbnz r0,.L630
 2650 0032 2B7D     	 ldrb r3,[r5,#20]
 2651 0034 03F07F03 	 and r3,r3,#127
 2652 0038 2B75     	 strb r3,[r5,#20]
 2653              	.L627:
 2654 003a FFF7FEFF 	 bl get_fattime
 2655 003e 696A     	 ldr r1,[r5,#36]
 2656 0040 0746     	 mov r7,r0
 2657 0042 0198     	 ldr r0,[sp,#4]
 2658 0044 FFF7FEFF 	 bl move_window
 2659 0048 0446     	 mov r4,r0
 2660 004a 00BB     	 cbnz r0,.L626
 2661 004c AE6A     	 ldr r6,[r5,#40]
 2662 004e F37A     	 ldrb r3,[r6,#11]
 2663 0050 43F02003 	 orr r3,r3,#32
 2664 0054 F372     	 strb r3,[r6,#11]
 2665 0056 AA68     	 ldr r2,[r5,#8]
 2666 0058 2868     	 ldr r0,[r5]
 2667 005a 3146     	 mov r1,r6
 2668 005c FFF7FEFF 	 bl st_clust.isra.4
 2669 0060 06F11C00 	 add r0,r6,#28
 2670 0064 E968     	 ldr r1,[r5,#12]
 2671 0066 FFF7FEFF 	 bl st_dword
 2672 006a 06F11600 	 add r0,r6,#22
 2673 006e 3946     	 mov r1,r7
 2674 0070 FFF7FEFF 	 bl st_dword
 2675 0074 0198     	 ldr r0,[sp,#4]
 2676 0076 B474     	 strb r4,[r6,#18]
 2677 0078 0123     	 movs r3,#1
 2678 007a F474     	 strb r4,[r6,#19]
 2679 007c C370     	 strb r3,[r0,#3]
 2680 007e FFF7FEFF 	 bl sync_fs
 2681 0082 2B7D     	 ldrb r3,[r5,#20]
 2682 0084 23F04003 	 bic r3,r3,#64
 2683 0088 2B75     	 strb r3,[r5,#20]
 2684 008a 00E0     	 b .L626
 2685              	.L630:
 2686 008c 0120     	 movs r0,#1
 2687              	.L626:
 2688 008e 03B0     	 add sp,sp,#12
 2689              	 
 2690 0090 F0BD     	 pop {r4,r5,r6,r7,pc}
 2692              	 .section .text.f_close,"ax",%progbits
 2693              	 .align 1
 2694              	 .global f_close
 2695              	 .thumb
 2696              	 .thumb_func
 2698              	f_close:
 2699              	 
 2700              	 
 2701 0000 13B5     	 push {r0,r1,r4,lr}
 2702 0002 0446     	 mov r4,r0
 2703 0004 FFF7FEFF 	 bl f_sync
 2704 0008 48B9     	 cbnz r0,.L633
 2705 000a 2046     	 mov r0,r4
 2706 000c 01A9     	 add r1,sp,#4
 2707 000e FFF7FEFF 	 bl validate
 2708 0012 20B9     	 cbnz r0,.L633
 2709 0014 2069     	 ldr r0,[r4,#16]
 2710 0016 FFF7FEFF 	 bl dec_lock
 2711 001a 00B9     	 cbnz r0,.L633
 2712 001c 2060     	 str r0,[r4]
 2713              	.L633:
 2714 001e 02B0     	 add sp,sp,#8
 2715              	 
 2716 0020 10BD     	 pop {r4,pc}
 2718              	 .section .text.f_chdrive,"ax",%progbits
 2719              	 .align 1
 2720              	 .global f_chdrive
 2721              	 .thumb
 2722              	 .thumb_func
 2724              	f_chdrive:
 2725              	 
 2726              	 
 2727 0000 07B5     	 push {r0,r1,r2,lr}
 2728 0002 02AB     	 add r3,sp,#8
 2729 0004 43F8040D 	 str r0,[r3,#-4]!
 2730 0008 1846     	 mov r0,r3
 2731 000a FFF7FEFF 	 bl get_ldnumber
 2732 000e 0028     	 cmp r0,#0
 2733 0010 A9BF     	 itett ge
 2734 0012 034B     	 ldrge r3,.L637
 2735 0014 0B20     	 movlt r0,#11
 2736 0016 1870     	 strbge r0,[r3]
 2737 0018 0020     	 movge r0,#0
 2738 001a 03B0     	 add sp,sp,#12
 2739              	 
 2740 001c 5DF804FB 	 ldr pc,[sp],#4
 2741              	.L638:
 2742              	 .align 2
 2743              	.L637:
 2744 0020 00000000 	 .word .LANCHOR1
 2746              	 .section .text.f_chdir,"ax",%progbits
 2747              	 .align 1
 2748              	 .global f_chdir
 2749              	 .thumb
 2750              	 .thumb_func
 2752              	f_chdir:
 2753              	 
 2754              	 
 2755 0000 30B5     	 push {r4,r5,lr}
 2756 0002 91B0     	 sub sp,sp,#68
 2757 0004 10AB     	 add r3,sp,#64
 2758 0006 03A9     	 add r1,sp,#12
 2759 0008 43F83C0D 	 str r0,[r3,#-60]!
 2760 000c 0022     	 movs r2,#0
 2761 000e 1846     	 mov r0,r3
 2762 0010 FFF7FEFF 	 bl find_volume
 2763 0014 0446     	 mov r4,r0
 2764 0016 00BB     	 cbnz r0,.L647
 2765 0018 10A8     	 add r0,sp,#64
 2766 001a 039B     	 ldr r3,[sp,#12]
 2767 001c 40F8303D 	 str r3,[r0,#-48]!
 2768 0020 0199     	 ldr r1,[sp,#4]
 2769 0022 FFF7FEFF 	 bl follow_path
 2770 0026 0446     	 mov r4,r0
 2771 0028 90B9     	 cbnz r0,.L641
 2772 002a 9DF93F30 	 ldrsb r3,[sp,#63]
 2773 002e 002B     	 cmp r3,#0
 2774 0030 03DA     	 bge .L642
 2775 0032 039B     	 ldr r3,[sp,#12]
 2776 0034 069A     	 ldr r2,[sp,#24]
 2777 0036 5A61     	 str r2,[r3,#20]
 2778 0038 0FE0     	 b .L647
 2779              	.L642:
 2780 003a 9DF81630 	 ldrb r3,[sp,#22]
 2781 003e DB06     	 lsls r3,r3,#27
 2782 0040 0AD5     	 bpl .L645
 2783 0042 039D     	 ldr r5,[sp,#12]
 2784 0044 0C99     	 ldr r1,[sp,#48]
 2785 0046 2878     	 ldrb r0,[r5]
 2786 0048 FFF7FEFF 	 bl ld_clust.isra.3
 2787 004c 6861     	 str r0,[r5,#20]
 2788 004e 04E0     	 b .L647
 2789              	.L641:
 2790 0050 0428     	 cmp r0,#4
 2791 0052 08BF     	 it eq
 2792 0054 0524     	 moveq r4,#5
 2793 0056 00E0     	 b .L647
 2794              	.L645:
 2795 0058 0524     	 movs r4,#5
 2796              	.L647:
 2797 005a 2046     	 mov r0,r4
 2798 005c 11B0     	 add sp,sp,#68
 2799              	 
 2800 005e 30BD     	 pop {r4,r5,pc}
 2802              	 .section .text.f_getcwd,"ax",%progbits
 2803              	 .align 1
 2804              	 .global f_getcwd
 2805              	 .thumb
 2806              	 .thumb_func
 2808              	f_getcwd:
 2809              	 
 2810              	 
 2811 0000 2DE9F043 	 push {r4,r5,r6,r7,r8,r9,lr}
 2812 0004 97B0     	 sub sp,sp,#92
 2813 0006 16AB     	 add r3,sp,#88
 2814 0008 0022     	 movs r2,#0
 2815 000a 43F8540D 	 str r0,[r3,#-84]!
 2816 000e 8846     	 mov r8,r1
 2817 0010 0270     	 strb r2,[r0]
 2818 0012 0646     	 mov r6,r0
 2819 0014 03A9     	 add r1,sp,#12
 2820 0016 1846     	 mov r0,r3
 2821 0018 FFF7FEFF 	 bl find_volume
 2822 001c 0746     	 mov r7,r0
 2823 001e 0028     	 cmp r0,#0
 2824 0020 72D1     	 bne .L649
 2825 0022 039B     	 ldr r3,[sp,#12]
 2826 0024 0A93     	 str r3,[sp,#40]
 2827 0026 5B69     	 ldr r3,[r3,#20]
 2828 0028 0C93     	 str r3,[sp,#48]
 2829 002a 4546     	 mov r5,r8
 2830              	.L650:
 2831 002c DDF83090 	 ldr r9,[sp,#48]
 2832 0030 B9F1000F 	 cmp r9,#0
 2833 0034 2DD0     	 beq .L675
 2834 0036 0AA8     	 add r0,sp,#40
 2835 0038 2021     	 movs r1,#32
 2836 003a FFF7FEFF 	 bl dir_sdi
 2837 003e 0446     	 mov r4,r0
 2838 0040 0028     	 cmp r0,#0
 2839 0042 36D1     	 bne .L651
 2840 0044 0398     	 ldr r0,[sp,#12]
 2841 0046 1199     	 ldr r1,[sp,#68]
 2842 0048 FFF7FEFF 	 bl move_window
 2843 004c 0446     	 mov r4,r0
 2844 004e 0028     	 cmp r0,#0
 2845 0050 2FD1     	 bne .L651
 2846 0052 039B     	 ldr r3,[sp,#12]
 2847 0054 1299     	 ldr r1,[sp,#72]
 2848 0056 1878     	 ldrb r0,[r3]
 2849 0058 FFF7FEFF 	 bl ld_clust.isra.3
 2850 005c 2146     	 mov r1,r4
 2851 005e 0C90     	 str r0,[sp,#48]
 2852 0060 0AA8     	 add r0,sp,#40
 2853 0062 FFF7FEFF 	 bl dir_sdi
 2854 0066 0446     	 mov r4,r0
 2855 0068 18BB     	 cbnz r0,.L651
 2856              	.L654:
 2857 006a 0AA8     	 add r0,sp,#40
 2858 006c FFF7FEFF 	 bl dir_read.constprop.12
 2859 0070 0446     	 mov r4,r0
 2860 0072 00BB     	 cbnz r0,.L652
 2861 0074 039B     	 ldr r3,[sp,#12]
 2862 0076 1299     	 ldr r1,[sp,#72]
 2863 0078 1878     	 ldrb r0,[r3]
 2864 007a FFF7FEFF 	 bl ld_clust.isra.3
 2865 007e 8145     	 cmp r9,r0
 2866 0080 1DD0     	 beq .L653
 2867 0082 2146     	 mov r1,r4
 2868 0084 0AA8     	 add r0,sp,#40
 2869 0086 FFF7FEFF 	 bl dir_next
 2870 008a 0446     	 mov r4,r0
 2871 008c 0028     	 cmp r0,#0
 2872 008e ECD0     	 beq .L654
 2873 0090 11E0     	 b .L652
 2874              	.L675:
 2875 0092 4545     	 cmp r5,r8
 2876 0094 01BF     	 itttt eq
 2877 0096 05F1FF35 	 addeq r5,r5,#-1
 2878 009a 019B     	 ldreq r3,[sp,#4]
 2879 009c 2F22     	 moveq r2,#47
 2880 009e 5A55     	 strbeq r2,[r3,r5]
 2881              	.L661:
 2882 00a0 019B     	 ldr r3,[sp,#4]
 2883 00a2 5B5D     	 ldrb r3,[r3,r5]
 2884 00a4 06F8013B 	 strb r3,[r6],#1
 2885 00a8 0135     	 adds r5,r5,#1
 2886 00aa 4545     	 cmp r5,r8
 2887 00ac F8D3     	 bcc .L661
 2888 00ae 2BE0     	 b .L649
 2889              	.L666:
 2890 00b0 1124     	 movs r4,#17
 2891              	.L651:
 2892 00b2 2746     	 mov r7,r4
 2893 00b4 28E0     	 b .L649
 2894              	.L652:
 2895 00b6 042C     	 cmp r4,#4
 2896 00b8 08BF     	 it eq
 2897 00ba 0224     	 moveq r4,#2
 2898 00bc F9E7     	 b .L651
 2899              	.L653:
 2900 00be 119B     	 ldr r3,[sp,#68]
 2901 00c0 8DF81940 	 strb r4,[sp,#25]
 2902 00c4 1BB1     	 cbz r3,.L664
 2903 00c6 0AA8     	 add r0,sp,#40
 2904 00c8 04A9     	 add r1,sp,#16
 2905 00ca FFF7FEFF 	 bl get_fileinfo.part.5
 2906              	.L664:
 2907 00ce 0023     	 movs r3,#0
 2908              	.L655:
 2909 00d0 04AA     	 add r2,sp,#16
 2910 00d2 1A44     	 add r2,r2,r3
 2911 00d4 517A     	 ldrb r1,[r2,#9]
 2912 00d6 5A1C     	 adds r2,r3,#1
 2913 00d8 09B1     	 cbz r1,.L676
 2914 00da 1346     	 mov r3,r2
 2915 00dc F8E7     	 b .L655
 2916              	.L676:
 2917 00de 9542     	 cmp r5,r2
 2918 00e0 E6D3     	 bcc .L666
 2919 00e2 EC1A     	 subs r4,r5,r3
 2920 00e4 2A46     	 mov r2,r5
 2921              	.L657:
 2922 00e6 A242     	 cmp r2,r4
 2923 00e8 0198     	 ldr r0,[sp,#4]
 2924 00ea 08D0     	 beq .L677
 2925 00ec 013A     	 subs r2,r2,#1
 2926 00ee 591B     	 subs r1,r3,r5
 2927 00f0 1144     	 add r1,r1,r2
 2928 00f2 0DF1100E 	 add lr,sp,#16
 2929 00f6 7144     	 add r1,r1,lr
 2930 00f8 497A     	 ldrb r1,[r1,#9]
 2931 00fa 8154     	 strb r1,[r0,r2]
 2932 00fc F3E7     	 b .L657
 2933              	.L677:
 2934 00fe DB43     	 mvns r3,r3
 2935 0100 1D44     	 add r5,r5,r3
 2936 0102 2F23     	 movs r3,#47
 2937 0104 4355     	 strb r3,[r0,r5]
 2938 0106 91E7     	 b .L650
 2939              	.L649:
 2940 0108 0023     	 movs r3,#0
 2941 010a 3846     	 mov r0,r7
 2942 010c 3370     	 strb r3,[r6]
 2943 010e 17B0     	 add sp,sp,#92
 2944              	 
 2945 0110 BDE8F083 	 pop {r4,r5,r6,r7,r8,r9,pc}
 2947              	 .section .text.f_lseek,"ax",%progbits
 2948              	 .align 1
 2949              	 .global f_lseek
 2950              	 .thumb
 2951              	 .thumb_func
 2953              	f_lseek:
 2954              	 
 2955              	 
 2956 0000 73B5     	 push {r0,r1,r4,r5,r6,lr}
 2957 0002 0D46     	 mov r5,r1
 2958 0004 01A9     	 add r1,sp,#4
 2959 0006 0446     	 mov r4,r0
 2960 0008 FFF7FEFF 	 bl validate
 2961 000c 0028     	 cmp r0,#0
 2962 000e 40F09280 	 bne .L679
 2963 0012 607D     	 ldrb r0,[r4,#21]
 2964 0014 0028     	 cmp r0,#0
 2965 0016 40F08E80 	 bne .L679
 2966 001a E368     	 ldr r3,[r4,#12]
 2967 001c 9D42     	 cmp r5,r3
 2968 001e 04D9     	 bls .L680
 2969 0020 227D     	 ldrb r2,[r4,#20]
 2970 0022 12F0020F 	 tst r2,#2
 2971 0026 08BF     	 it eq
 2972 0028 1D46     	 moveq r5,r3
 2973              	.L680:
 2974 002a 0022     	 movs r2,#0
 2975 002c A369     	 ldr r3,[r4,#24]
 2976 002e A261     	 str r2,[r4,#24]
 2977 0030 0DB9     	 cbnz r5,.L681
 2978              	.L688:
 2979 0032 0025     	 movs r5,#0
 2980 0034 51E0     	 b .L682
 2981              	.L681:
 2982 0036 019A     	 ldr r2,[sp,#4]
 2983 0038 5689     	 ldrh r6,[r2,#10]
 2984 003a 7602     	 lsls r6,r6,#9
 2985 003c 6BB1     	 cbz r3,.L683
 2986 003e 013B     	 subs r3,r3,#1
 2987 0040 6A1E     	 subs r2,r5,#1
 2988 0042 B3FBF6F1 	 udiv r1,r3,r6
 2989 0046 B2FBF6F2 	 udiv r2,r2,r6
 2990 004a 8A42     	 cmp r2,r1
 2991 004c 05D3     	 bcc .L683
 2992 004e 7242     	 negs r2,r6
 2993 0050 1340     	 ands r3,r3,r2
 2994 0052 A361     	 str r3,[r4,#24]
 2995 0054 ED1A     	 subs r5,r5,r3
 2996 0056 E169     	 ldr r1,[r4,#28]
 2997 0058 10E0     	 b .L684
 2998              	.L683:
 2999 005a A168     	 ldr r1,[r4,#8]
 3000 005c 69B9     	 cbnz r1,.L685
 3001 005e 2046     	 mov r0,r4
 3002 0060 FFF7FEFF 	 bl create_chain
 3003 0064 0128     	 cmp r0,#1
 3004 0066 0146     	 mov r1,r0
 3005 0068 01D1     	 bne .L686
 3006              	.L694:
 3007 006a 0220     	 movs r0,#2
 3008 006c 02E0     	 b .L718
 3009              	.L686:
 3010 006e 0130     	 adds r0,r0,#1
 3011 0070 02D1     	 bne .L687
 3012              	.L693:
 3013 0072 0120     	 movs r0,#1
 3014              	.L718:
 3015 0074 6075     	 strb r0,[r4,#21]
 3016 0076 5EE0     	 b .L679
 3017              	.L687:
 3018 0078 A160     	 str r1,[r4,#8]
 3019              	.L685:
 3020 007a E161     	 str r1,[r4,#28]
 3021              	.L684:
 3022 007c 0029     	 cmp r1,#0
 3023 007e D8D0     	 beq .L688
 3024              	.L689:
 3025 0080 B542     	 cmp r5,r6
 3026 0082 1CD9     	 bls .L691
 3027 0084 A369     	 ldr r3,[r4,#24]
 3028 0086 3344     	 add r3,r3,r6
 3029 0088 A361     	 str r3,[r4,#24]
 3030 008a 237D     	 ldrb r3,[r4,#20]
 3031 008c 9A07     	 lsls r2,r3,#30
 3032 008e A5EB0605 	 sub r5,r5,r6
 3033 0092 05D5     	 bpl .L690
 3034 0094 2046     	 mov r0,r4
 3035 0096 FFF7FEFF 	 bl create_chain
 3036 009a 0146     	 mov r1,r0
 3037 009c 20B9     	 cbnz r0,.L692
 3038 009e 0DE0     	 b .L719
 3039              	.L690:
 3040 00a0 2068     	 ldr r0,[r4]
 3041 00a2 FFF7FEFF 	 bl get_fat.isra.10
 3042 00a6 0146     	 mov r1,r0
 3043              	.L692:
 3044 00a8 4B1C     	 adds r3,r1,#1
 3045 00aa E2D0     	 beq .L693
 3046 00ac 0129     	 cmp r1,#1
 3047 00ae DCD9     	 bls .L694
 3048 00b0 019B     	 ldr r3,[sp,#4]
 3049 00b2 9B69     	 ldr r3,[r3,#24]
 3050 00b4 9942     	 cmp r1,r3
 3051 00b6 D8D2     	 bcs .L694
 3052 00b8 E161     	 str r1,[r4,#28]
 3053 00ba E1E7     	 b .L689
 3054              	.L719:
 3055 00bc 0546     	 mov r5,r0
 3056              	.L691:
 3057 00be A369     	 ldr r3,[r4,#24]
 3058 00c0 2B44     	 add r3,r3,r5
 3059 00c2 A361     	 str r3,[r4,#24]
 3060 00c4 C5F30803 	 ubfx r3,r5,#0,#9
 3061 00c8 002B     	 cmp r3,#0
 3062 00ca B2D0     	 beq .L688
 3063 00cc 0198     	 ldr r0,[sp,#4]
 3064 00ce FFF7FEFF 	 bl clst2sect
 3065 00d2 0028     	 cmp r0,#0
 3066 00d4 C9D0     	 beq .L694
 3067 00d6 00EB5525 	 add r5,r0,r5,lsr#9
 3068              	.L682:
 3069 00da E368     	 ldr r3,[r4,#12]
 3070 00dc A069     	 ldr r0,[r4,#24]
 3071 00de 9842     	 cmp r0,r3
 3072 00e0 82BF     	 ittt hi
 3073 00e2 237D     	 ldrbhi r3,[r4,#20]
 3074 00e4 E060     	 strhi r0,[r4,#12]
 3075 00e6 43F04003 	 orrhi r3,r3,#64
 3076 00ea C0F30800 	 ubfx r0,r0,#0,#9
 3077 00ee 88BF     	 it hi
 3078 00f0 2375     	 strbhi r3,[r4,#20]
 3079 00f2 00B3     	 cbz r0,.L679
 3080 00f4 226A     	 ldr r2,[r4,#32]
 3081 00f6 9542     	 cmp r5,r2
 3082 00f8 1CD0     	 beq .L702
 3083 00fa 94F91430 	 ldrsb r3,[r4,#20]
 3084 00fe 002B     	 cmp r3,#0
 3085 0100 04F12C06 	 add r6,r4,#44
 3086 0104 0BDA     	 bge .L697
 3087 0106 019B     	 ldr r3,[sp,#4]
 3088 0108 3146     	 mov r1,r6
 3089 010a 5878     	 ldrb r0,[r3,#1]
 3090 010c 0123     	 movs r3,#1
 3091 010e FFF7FEFF 	 bl disk_write
 3092 0112 0028     	 cmp r0,#0
 3093 0114 ADD1     	 bne .L693
 3094 0116 237D     	 ldrb r3,[r4,#20]
 3095 0118 03F07F03 	 and r3,r3,#127
 3096 011c 2375     	 strb r3,[r4,#20]
 3097              	.L697:
 3098 011e 019B     	 ldr r3,[sp,#4]
 3099 0120 3146     	 mov r1,r6
 3100 0122 5878     	 ldrb r0,[r3,#1]
 3101 0124 2A46     	 mov r2,r5
 3102 0126 0123     	 movs r3,#1
 3103 0128 FFF7FEFF 	 bl disk_read
 3104 012c 0028     	 cmp r0,#0
 3105 012e A0D1     	 bne .L693
 3106 0130 2562     	 str r5,[r4,#32]
 3107 0132 00E0     	 b .L679
 3108              	.L702:
 3109 0134 0020     	 movs r0,#0
 3110              	.L679:
 3111 0136 02B0     	 add sp,sp,#8
 3112              	 
 3113 0138 70BD     	 pop {r4,r5,r6,pc}
 3115              	 .section .text.f_opendir,"ax",%progbits
 3116              	 .align 1
 3117              	 .global f_opendir
 3118              	 .thumb
 3119              	 .thumb_func
 3121              	f_opendir:
 3122              	 
 3123              	 
 3124 0000 1FB5     	 push {r0,r1,r2,r3,r4,lr}
 3125 0002 0446     	 mov r4,r0
 3126 0004 0191     	 str r1,[sp,#4]
 3127 0006 08B3     	 cbz r0,.L730
 3128 0008 03A9     	 add r1,sp,#12
 3129 000a 01A8     	 add r0,sp,#4
 3130 000c 0022     	 movs r2,#0
 3131 000e FFF7FEFF 	 bl find_volume
 3132 0012 0146     	 mov r1,r0
 3133 0014 B0B9     	 cbnz r0,.L725
 3134 0016 039B     	 ldr r3,[sp,#12]
 3135 0018 0199     	 ldr r1,[sp,#4]
 3136 001a 2360     	 str r3,[r4]
 3137 001c 2046     	 mov r0,r4
 3138 001e FFF7FEFF 	 bl follow_path
 3139 0022 0146     	 mov r1,r0
 3140 0024 40BB     	 cbnz r0,.L723
 3141 0026 94F92F30 	 ldrsb r3,[r4,#47]
 3142 002a 002B     	 cmp r3,#0
 3143 002c 10DB     	 blt .L724
 3144 002e A379     	 ldrb r3,[r4,#6]
 3145 0030 DB06     	 lsls r3,r3,#27
 3146 0032 06D5     	 bpl .L731
 3147 0034 039B     	 ldr r3,[sp,#12]
 3148 0036 216A     	 ldr r1,[r4,#32]
 3149 0038 1878     	 ldrb r0,[r3]
 3150 003a FFF7FEFF 	 bl ld_clust.isra.3
 3151 003e A060     	 str r0,[r4,#8]
 3152 0040 06E0     	 b .L724
 3153              	.L731:
 3154 0042 0521     	 movs r1,#5
 3155              	.L725:
 3156 0044 0023     	 movs r3,#0
 3157 0046 2360     	 str r3,[r4]
 3158 0048 0846     	 mov r0,r1
 3159 004a 1AE0     	 b .L733
 3160              	.L730:
 3161 004c 0920     	 movs r0,#9
 3162 004e 18E0     	 b .L733
 3163              	.L724:
 3164 0050 039B     	 ldr r3,[sp,#12]
 3165 0052 DB88     	 ldrh r3,[r3,#6]
 3166 0054 A380     	 strh r3,[r4,#4]
 3167 0056 0021     	 movs r1,#0
 3168 0058 2046     	 mov r0,r4
 3169 005a FFF7FEFF 	 bl dir_sdi
 3170 005e 0146     	 mov r1,r0
 3171 0060 50B9     	 cbnz r0,.L723
 3172 0062 A368     	 ldr r3,[r4,#8]
 3173 0064 33B1     	 cbz r3,.L726
 3174 0066 2046     	 mov r0,r4
 3175 0068 FFF7FEFF 	 bl inc_lock
 3176 006c 2061     	 str r0,[r4,#16]
 3177 006e 38B9     	 cbnz r0,.L728
 3178 0070 1221     	 movs r1,#18
 3179 0072 E7E7     	 b .L725
 3180              	.L726:
 3181 0074 2361     	 str r3,[r4,#16]
 3182 0076 03E0     	 b .L728
 3183              	.L723:
 3184 0078 0429     	 cmp r1,#4
 3185 007a 08BF     	 it eq
 3186 007c 0521     	 moveq r1,#5
 3187 007e E1E7     	 b .L725
 3188              	.L728:
 3189 0080 0020     	 movs r0,#0
 3190              	.L733:
 3191 0082 04B0     	 add sp,sp,#16
 3192              	 
 3193 0084 10BD     	 pop {r4,pc}
 3195              	 .section .text.f_closedir,"ax",%progbits
 3196              	 .align 1
 3197              	 .global f_closedir
 3198              	 .thumb
 3199              	 .thumb_func
 3201              	f_closedir:
 3202              	 
 3203              	 
 3204 0000 37B5     	 push {r0,r1,r2,r4,r5,lr}
 3205 0002 01A9     	 add r1,sp,#4
 3206 0004 0546     	 mov r5,r0
 3207 0006 FFF7FEFF 	 bl validate
 3208 000a 0446     	 mov r4,r0
 3209 000c 48B9     	 cbnz r0,.L735
 3210 000e 2869     	 ldr r0,[r5,#16]
 3211 0010 10B9     	 cbnz r0,.L736
 3212              	.L737:
 3213 0012 0023     	 movs r3,#0
 3214 0014 2B60     	 str r3,[r5]
 3215 0016 04E0     	 b .L735
 3216              	.L736:
 3217 0018 FFF7FEFF 	 bl dec_lock
 3218 001c 0028     	 cmp r0,#0
 3219 001e F8D0     	 beq .L737
 3220 0020 0446     	 mov r4,r0
 3221              	.L735:
 3222 0022 2046     	 mov r0,r4
 3223 0024 03B0     	 add sp,sp,#12
 3224              	 
 3225 0026 30BD     	 pop {r4,r5,pc}
 3227              	 .section .text.f_readdir,"ax",%progbits
 3228              	 .align 1
 3229              	 .global f_readdir
 3230              	 .thumb
 3231              	 .thumb_func
 3233              	f_readdir:
 3234              	 
 3235              	 
 3236 0000 37B5     	 push {r0,r1,r2,r4,r5,lr}
 3237 0002 0D46     	 mov r5,r1
 3238 0004 01A9     	 add r1,sp,#4
 3239 0006 0446     	 mov r4,r0
 3240 0008 FFF7FEFF 	 bl validate
 3241 000c 0146     	 mov r1,r0
 3242 000e D0B9     	 cbnz r0,.L742
 3243 0010 2046     	 mov r0,r4
 3244 0012 15B9     	 cbnz r5,.L743
 3245 0014 FFF7FEFF 	 bl dir_sdi
 3246 0018 14E0     	 b .L745
 3247              	.L743:
 3248 001a FFF7FEFF 	 bl dir_read.constprop.12
 3249 001e 10F0FB03 	 ands r3,r0,#251
 3250 0022 0FD1     	 bne .L745
 3251 0024 6B72     	 strb r3,[r5,#9]
 3252 0026 E369     	 ldr r3,[r4,#28]
 3253 0028 1BB1     	 cbz r3,.L744
 3254 002a 2046     	 mov r0,r4
 3255 002c 2946     	 mov r1,r5
 3256 002e FFF7FEFF 	 bl get_fileinfo.part.5
 3257              	.L744:
 3258 0032 0021     	 movs r1,#0
 3259 0034 2046     	 mov r0,r4
 3260 0036 FFF7FEFF 	 bl dir_next
 3261 003a 0428     	 cmp r0,#4
 3262 003c 14BF     	 ite ne
 3263 003e 0146     	 movne r1,r0
 3264 0040 0021     	 moveq r1,#0
 3265 0042 00E0     	 b .L742
 3266              	.L745:
 3267 0044 0146     	 mov r1,r0
 3268              	.L742:
 3269 0046 0846     	 mov r0,r1
 3270 0048 03B0     	 add sp,sp,#12
 3271              	 
 3272 004a 30BD     	 pop {r4,r5,pc}
 3274              	 .section .text.f_stat,"ax",%progbits
 3275              	 .align 1
 3276              	 .global f_stat
 3277              	 .thumb
 3278              	 .thumb_func
 3280              	f_stat:
 3281              	 
 3282              	 
 3283 0000 30B5     	 push {r4,r5,lr}
 3284 0002 8FB0     	 sub sp,sp,#60
 3285 0004 0EAB     	 add r3,sp,#56
 3286 0006 0D46     	 mov r5,r1
 3287 0008 43F8340D 	 str r0,[r3,#-52]!
 3288 000c 02A9     	 add r1,sp,#8
 3289 000e 1846     	 mov r0,r3
 3290 0010 0022     	 movs r2,#0
 3291 0012 FFF7FEFF 	 bl find_volume
 3292 0016 0446     	 mov r4,r0
 3293 0018 98B9     	 cbnz r0,.L751
 3294 001a 02A8     	 add r0,sp,#8
 3295 001c 0199     	 ldr r1,[sp,#4]
 3296 001e FFF7FEFF 	 bl follow_path
 3297 0022 0446     	 mov r4,r0
 3298 0024 68B9     	 cbnz r0,.L751
 3299 0026 9DF93730 	 ldrsb r3,[sp,#55]
 3300 002a 002B     	 cmp r3,#0
 3301 002c 08DB     	 blt .L754
 3302 002e 45B1     	 cbz r5,.L751
 3303 0030 099B     	 ldr r3,[sp,#36]
 3304 0032 6872     	 strb r0,[r5,#9]
 3305 0034 2BB1     	 cbz r3,.L751
 3306 0036 02A8     	 add r0,sp,#8
 3307 0038 2946     	 mov r1,r5
 3308 003a FFF7FEFF 	 bl get_fileinfo.part.5
 3309 003e 00E0     	 b .L751
 3310              	.L754:
 3311 0040 0624     	 movs r4,#6
 3312              	.L751:
 3313 0042 2046     	 mov r0,r4
 3314 0044 0FB0     	 add sp,sp,#60
 3315              	 
 3316 0046 30BD     	 pop {r4,r5,pc}
 3318              	 .section .text.f_getfree,"ax",%progbits
 3319              	 .align 1
 3320              	 .global f_getfree
 3321              	 .thumb
 3322              	 .thumb_func
 3324              	f_getfree:
 3325              	 
 3326              	 
 3327 0000 2DE9FF47 	 push {r0,r1,r2,r3,r4,r5,r6,r7,r8,r9,r10,lr}
 3328 0004 04AB     	 add r3,sp,#16
 3329 0006 0F46     	 mov r7,r1
 3330 0008 43F80C0D 	 str r0,[r3,#-12]!
 3331 000c 1446     	 mov r4,r2
 3332 000e 1846     	 mov r0,r3
 3333 0010 03A9     	 add r1,sp,#12
 3334 0012 0022     	 movs r2,#0
 3335 0014 FFF7FEFF 	 bl find_volume
 3336 0018 0646     	 mov r6,r0
 3337 001a 0028     	 cmp r0,#0
 3338 001c 5AD1     	 bne .L759
 3339 001e 039D     	 ldr r5,[sp,#12]
 3340 0020 2560     	 str r5,[r4]
 3341 0022 D5F81880 	 ldr r8,[r5,#24]
 3342 0026 2B69     	 ldr r3,[r5,#16]
 3343 0028 A8F10202 	 sub r2,r8,#2
 3344 002c 9342     	 cmp r3,r2
 3345 002e 01D8     	 bhi .L760
 3346 0030 3B60     	 str r3,[r7]
 3347 0032 4FE0     	 b .L759
 3348              	.L760:
 3349 0034 2B78     	 ldrb r3,[r5]
 3350 0036 012B     	 cmp r3,#1
 3351 0038 13D1     	 bne .L761
 3352 003a 4FF00208 	 mov r8,#2
 3353 003e 0446     	 mov r4,r0
 3354              	.L764:
 3355 0040 2846     	 mov r0,r5
 3356 0042 4146     	 mov r1,r8
 3357 0044 FFF7FEFF 	 bl get_fat.isra.10
 3358 0048 431C     	 adds r3,r0,#1
 3359 004a 37D0     	 beq .L771
 3360 004c 0128     	 cmp r0,#1
 3361 004e 37D0     	 beq .L772
 3362 0050 00B9     	 cbnz r0,.L763
 3363 0052 0134     	 adds r4,r4,#1
 3364              	.L763:
 3365 0054 039B     	 ldr r3,[sp,#12]
 3366 0056 9B69     	 ldr r3,[r3,#24]
 3367 0058 08F10108 	 add r8,r8,#1
 3368 005c 9845     	 cmp r8,r3
 3369 005e EFD3     	 bcc .L764
 3370 0060 31E0     	 b .L762
 3371              	.L761:
 3372 0062 D5F82490 	 ldr r9,[r5,#36]
 3373 0066 0446     	 mov r4,r0
 3374 0068 0546     	 mov r5,r0
 3375              	.L770:
 3376 006a 3DB9     	 cbnz r5,.L765
 3377 006c 0398     	 ldr r0,[sp,#12]
 3378 006e 4946     	 mov r1,r9
 3379 0070 09F1010A 	 add r10,r9,#1
 3380 0074 FFF7FEFF 	 bl move_window
 3381 0078 20BB     	 cbnz r0,.L773
 3382 007a D146     	 mov r9,r10
 3383              	.L765:
 3384 007c 039B     	 ldr r3,[sp,#12]
 3385 007e 1A78     	 ldrb r2,[r3]
 3386 0080 022A     	 cmp r2,#2
 3387 0082 05F13000 	 add r0,r5,#48
 3388 0086 0AD1     	 bne .L766
 3389 0088 5A19     	 adds r2,r3,r5
 3390 008a 1844     	 add r0,r0,r3
 3391 008c 92F83420 	 ldrb r2,[r2,#52]
 3392 0090 4379     	 ldrb r3,[r0,#5]
 3393 0092 52EA0323 	 orrs r3,r2,r3,lsl#8
 3394 0096 08BF     	 it eq
 3395 0098 0134     	 addeq r4,r4,#1
 3396 009a 0235     	 adds r5,r5,#2
 3397 009c 08E0     	 b .L768
 3398              	.L766:
 3399 009e 1844     	 add r0,r0,r3
 3400 00a0 0430     	 adds r0,r0,#4
 3401 00a2 FFF7FEFF 	 bl ld_dword
 3402 00a6 20F07040 	 bic r0,r0,#-268435456
 3403 00aa 00B9     	 cbnz r0,.L769
 3404 00ac 0134     	 adds r4,r4,#1
 3405              	.L769:
 3406 00ae 0435     	 adds r5,r5,#4
 3407              	.L768:
 3408 00b0 B8F10108 	 subs r8,r8,#1
 3409 00b4 C5F30805 	 ubfx r5,r5,#0,#9
 3410 00b8 D7D1     	 bne .L770
 3411 00ba 04E0     	 b .L762
 3412              	.L771:
 3413 00bc 0126     	 movs r6,#1
 3414 00be 02E0     	 b .L762
 3415              	.L772:
 3416 00c0 0226     	 movs r6,#2
 3417 00c2 00E0     	 b .L762
 3418              	.L773:
 3419 00c4 0646     	 mov r6,r0
 3420              	.L762:
 3421 00c6 039B     	 ldr r3,[sp,#12]
 3422 00c8 3C60     	 str r4,[r7]
 3423 00ca 1A79     	 ldrb r2,[r3,#4]
 3424 00cc 1C61     	 str r4,[r3,#16]
 3425 00ce 42F00102 	 orr r2,r2,#1
 3426 00d2 1A71     	 strb r2,[r3,#4]
 3427              	.L759:
 3428 00d4 3046     	 mov r0,r6
 3429 00d6 04B0     	 add sp,sp,#16
 3430              	 
 3431 00d8 BDE8F087 	 pop {r4,r5,r6,r7,r8,r9,r10,pc}
 3433              	 .section .text.f_truncate,"ax",%progbits
 3434              	 .align 1
 3435              	 .global f_truncate
 3436              	 .thumb
 3437              	 .thumb_func
 3439              	f_truncate:
 3440              	 
 3441              	 
 3442 0000 73B5     	 push {r0,r1,r4,r5,r6,lr}
 3443 0002 01A9     	 add r1,sp,#4
 3444 0004 0546     	 mov r5,r0
 3445 0006 FFF7FEFF 	 bl validate
 3446 000a 0028     	 cmp r0,#0
 3447 000c 46D1     	 bne .L792
 3448 000e 6C7D     	 ldrb r4,[r5,#21]
 3449 0010 002C     	 cmp r4,#0
 3450 0012 40D1     	 bne .L793
 3451 0014 2B7D     	 ldrb r3,[r5,#20]
 3452 0016 9907     	 lsls r1,r3,#30
 3453 0018 39D5     	 bpl .L786
 3454 001a AE69     	 ldr r6,[r5,#24]
 3455 001c EB68     	 ldr r3,[r5,#12]
 3456 001e 9E42     	 cmp r6,r3
 3457 0020 39D2     	 bcs .L793
 3458 0022 3EB9     	 cbnz r6,.L778
 3459 0024 2246     	 mov r2,r4
 3460 0026 2846     	 mov r0,r5
 3461 0028 A968     	 ldr r1,[r5,#8]
 3462 002a FFF7FEFF 	 bl remove_chain
 3463 002e AE60     	 str r6,[r5,#8]
 3464 0030 0446     	 mov r4,r0
 3465 0032 15E0     	 b .L779
 3466              	.L778:
 3467 0034 E969     	 ldr r1,[r5,#28]
 3468 0036 2868     	 ldr r0,[r5]
 3469 0038 FFF7FEFF 	 bl get_fat.isra.10
 3470 003c 421C     	 adds r2,r0,#1
 3471 003e 0146     	 mov r1,r0
 3472 0040 03D0     	 beq .L788
 3473 0042 0128     	 cmp r0,#1
 3474 0044 03D1     	 bne .L791
 3475 0046 0224     	 movs r4,#2
 3476 0048 0AE0     	 b .L779
 3477              	.L788:
 3478 004a 0124     	 movs r4,#1
 3479 004c 08E0     	 b .L779
 3480              	.L791:
 3481 004e 019B     	 ldr r3,[sp,#4]
 3482 0050 9B69     	 ldr r3,[r3,#24]
 3483 0052 9842     	 cmp r0,r3
 3484 0054 04D2     	 bcs .L779
 3485 0056 2846     	 mov r0,r5
 3486 0058 EA69     	 ldr r2,[r5,#28]
 3487 005a FFF7FEFF 	 bl remove_chain
 3488 005e 0446     	 mov r4,r0
 3489              	.L779:
 3490 0060 AB69     	 ldr r3,[r5,#24]
 3491 0062 EB60     	 str r3,[r5,#12]
 3492 0064 2B7D     	 ldrb r3,[r5,#20]
 3493 0066 43F04003 	 orr r3,r3,#64
 3494 006a 2B75     	 strb r3,[r5,#20]
 3495 006c 94B9     	 cbnz r4,.L781
 3496 006e 1B06     	 lsls r3,r3,#24
 3497 0070 13D5     	 bpl .L782
 3498 0072 019B     	 ldr r3,[sp,#4]
 3499 0074 2A6A     	 ldr r2,[r5,#32]
 3500 0076 5878     	 ldrb r0,[r3,#1]
 3501 0078 05F12C01 	 add r1,r5,#44
 3502 007c 0123     	 movs r3,#1
 3503 007e FFF7FEFF 	 bl disk_write
 3504 0082 30B9     	 cbnz r0,.L790
 3505 0084 2B7D     	 ldrb r3,[r5,#20]
 3506 0086 03F07F03 	 and r3,r3,#127
 3507 008a 2B75     	 strb r3,[r5,#20]
 3508 008c 05E0     	 b .L782
 3509              	.L786:
 3510 008e 0720     	 movs r0,#7
 3511 0090 04E0     	 b .L792
 3512              	.L790:
 3513 0092 0124     	 movs r4,#1
 3514              	.L781:
 3515 0094 6C75     	 strb r4,[r5,#21]
 3516              	.L793:
 3517 0096 2046     	 mov r0,r4
 3518 0098 00E0     	 b .L792
 3519              	.L782:
 3520 009a 0020     	 movs r0,#0
 3521              	.L792:
 3522 009c 02B0     	 add sp,sp,#8
 3523              	 
 3524 009e 70BD     	 pop {r4,r5,r6,pc}
 3526              	 .section .text.f_unlink,"ax",%progbits
 3527              	 .align 1
 3528              	 .global f_unlink
 3529              	 .thumb
 3530              	 .thumb_func
 3532              	f_unlink:
 3533              	 
 3534              	 
 3535 0000 2DE9F041 	 push {r4,r5,r6,r7,r8,lr}
 3536 0004 9CB0     	 sub sp,sp,#112
 3537 0006 1CAB     	 add r3,sp,#112
 3538 0008 03A9     	 add r1,sp,#12
 3539 000a 43F86C0D 	 str r0,[r3,#-108]!
 3540 000e 0222     	 movs r2,#2
 3541 0010 1846     	 mov r0,r3
 3542 0012 FFF7FEFF 	 bl find_volume
 3543 0016 0446     	 mov r4,r0
 3544 0018 0028     	 cmp r0,#0
 3545 001a 55D1     	 bne .L812
 3546 001c 1CAD     	 add r5,sp,#112
 3547 001e 039B     	 ldr r3,[sp,#12]
 3548 0020 45F8603D 	 str r3,[r5,#-96]!
 3549 0024 0199     	 ldr r1,[sp,#4]
 3550 0026 2846     	 mov r0,r5
 3551 0028 FFF7FEFF 	 bl follow_path
 3552 002c 0446     	 mov r4,r0
 3553 002e 0028     	 cmp r0,#0
 3554 0030 4AD1     	 bne .L812
 3555 0032 9DF83F60 	 ldrb r6,[sp,#63]
 3556 0036 B206     	 lsls r2,r6,#26
 3557 0038 0ED4     	 bmi .L808
 3558 003a 2846     	 mov r0,r5
 3559 003c 0221     	 movs r1,#2
 3560 003e FFF7FEFF 	 bl chk_lock
 3561 0042 0446     	 mov r4,r0
 3562 0044 0028     	 cmp r0,#0
 3563 0046 3FD1     	 bne .L812
 3564 0048 3306     	 lsls r3,r6,#24
 3565 004a 05D4     	 bmi .L808
 3566 004c 9DF81680 	 ldrb r8,[sp,#22]
 3567 0050 18F0010F 	 tst r8,#1
 3568 0054 37D1     	 bne .L800
 3569 0056 01E0     	 b .L819
 3570              	.L808:
 3571 0058 0624     	 movs r4,#6
 3572 005a 35E0     	 b .L812
 3573              	.L819:
 3574 005c 039F     	 ldr r7,[sp,#12]
 3575 005e 0C99     	 ldr r1,[sp,#48]
 3576 0060 3878     	 ldrb r0,[r7]
 3577 0062 FFF7FEFF 	 bl ld_clust.isra.3
 3578 0066 18F0100F 	 tst r8,#16
 3579 006a 0646     	 mov r6,r0
 3580 006c 11D0     	 beq .L806
 3581 006e 7B69     	 ldr r3,[r7,#20]
 3582 0070 9E42     	 cmp r6,r3
 3583 0072 28D0     	 beq .L800
 3584 0074 2146     	 mov r1,r4
 3585 0076 10A8     	 add r0,sp,#64
 3586 0078 1097     	 str r7,[sp,#64]
 3587 007a 1296     	 str r6,[sp,#72]
 3588 007c FFF7FEFF 	 bl dir_sdi
 3589 0080 0446     	 mov r4,r0
 3590 0082 08BB     	 cbnz r0,.L812
 3591 0084 10A8     	 add r0,sp,#64
 3592 0086 FFF7FEFF 	 bl dir_read.constprop.12
 3593 008a 0446     	 mov r4,r0
 3594 008c D8B1     	 cbz r0,.L800
 3595 008e 0428     	 cmp r0,#4
 3596 0090 1AD1     	 bne .L812
 3597              	.L806:
 3598 0092 049F     	 ldr r7,[sp,#16]
 3599 0094 0B99     	 ldr r1,[sp,#44]
 3600 0096 3846     	 mov r0,r7
 3601 0098 FFF7FEFF 	 bl move_window
 3602 009c 0446     	 mov r4,r0
 3603 009e 98B9     	 cbnz r0,.L812
 3604 00a0 0C9B     	 ldr r3,[sp,#48]
 3605 00a2 E522     	 movs r2,#229
 3606 00a4 1A70     	 strb r2,[r3]
 3607 00a6 0123     	 movs r3,#1
 3608 00a8 FB70     	 strb r3,[r7,#3]
 3609 00aa 26B9     	 cbnz r6,.L802
 3610              	.L803:
 3611 00ac 0398     	 ldr r0,[sp,#12]
 3612 00ae FFF7FEFF 	 bl sync_fs
 3613 00b2 0446     	 mov r4,r0
 3614 00b4 08E0     	 b .L812
 3615              	.L802:
 3616 00b6 2246     	 mov r2,r4
 3617 00b8 2846     	 mov r0,r5
 3618 00ba 3146     	 mov r1,r6
 3619 00bc FFF7FEFF 	 bl remove_chain
 3620 00c0 0446     	 mov r4,r0
 3621 00c2 08B9     	 cbnz r0,.L812
 3622 00c4 F2E7     	 b .L803
 3623              	.L800:
 3624 00c6 0724     	 movs r4,#7
 3625              	.L812:
 3626 00c8 2046     	 mov r0,r4
 3627 00ca 1CB0     	 add sp,sp,#112
 3628              	 
 3629 00cc BDE8F081 	 pop {r4,r5,r6,r7,r8,pc}
 3631              	 .section .text.f_mkdir,"ax",%progbits
 3632              	 .align 1
 3633              	 .global f_mkdir
 3634              	 .thumb
 3635              	 .thumb_func
 3637              	f_mkdir:
 3638              	 
 3639              	 
 3640 0000 2DE9F047 	 push {r4,r5,r6,r7,r8,r9,r10,lr}
 3641 0004 94B0     	 sub sp,sp,#80
 3642 0006 14AB     	 add r3,sp,#80
 3643 0008 02A9     	 add r1,sp,#8
 3644 000a 43F84C0D 	 str r0,[r3,#-76]!
 3645 000e 0222     	 movs r2,#2
 3646 0010 1846     	 mov r0,r3
 3647 0012 FFF7FEFF 	 bl find_volume
 3648 0016 0446     	 mov r4,r0
 3649 0018 0028     	 cmp r0,#0
 3650 001a 7ED1     	 bne .L836
 3651 001c 14AE     	 add r6,sp,#80
 3652 001e 029B     	 ldr r3,[sp,#8]
 3653 0020 46F8303D 	 str r3,[r6,#-48]!
 3654 0024 0199     	 ldr r1,[sp,#4]
 3655 0026 3046     	 mov r0,r6
 3656 0028 FFF7FEFF 	 bl follow_path
 3657 002c 38B1     	 cbz r0,.L831
 3658 002e 0428     	 cmp r0,#4
 3659 0030 72D1     	 bne .L840
 3660 0032 9DF84F30 	 ldrb r3,[sp,#79]
 3661 0036 9A06     	 lsls r2,r3,#26
 3662 0038 03D5     	 bpl .L841
 3663 003a 0620     	 movs r0,#6
 3664 003c 6CE0     	 b .L840
 3665              	.L831:
 3666 003e 0820     	 movs r0,#8
 3667 0040 6AE0     	 b .L840
 3668              	.L841:
 3669 0042 14AF     	 add r7,sp,#80
 3670 0044 029B     	 ldr r3,[sp,#8]
 3671 0046 47F8443D 	 str r3,[r7,#-68]!
 3672 004a 2146     	 mov r1,r4
 3673 004c 3846     	 mov r0,r7
 3674 004e FFF7FEFF 	 bl create_chain
 3675 0052 0546     	 mov r5,r0
 3676 0054 38B1     	 cbz r0,.L835
 3677 0056 012D     	 cmp r5,#1
 3678 0058 03D0     	 beq .L833
 3679 005a 6B1C     	 adds r3,r5,#1
 3680 005c 5C42     	 rsbs r4,r3,#0
 3681 005e 5C41     	 adcs r4,r4,r3
 3682 0060 02E0     	 b .L825
 3683              	.L833:
 3684 0062 0224     	 movs r4,#2
 3685 0064 00E0     	 b .L825
 3686              	.L835:
 3687 0066 0724     	 movs r4,#7
 3688              	.L825:
 3689 0068 FFF7FEFF 	 bl get_fattime
 3690 006c 8046     	 mov r8,r0
 3691 006e 002C     	 cmp r4,#0
 3692 0070 3AD1     	 bne .L830
 3693 0072 0298     	 ldr r0,[sp,#8]
 3694 0074 2946     	 mov r1,r5
 3695 0076 FFF7FEFF 	 bl dir_clear
 3696 007a 0446     	 mov r4,r0
 3697 007c A0BB     	 cbnz r0,.L830
 3698 007e 029B     	 ldr r3,[sp,#8]
 3699 0080 03F13402 	 add r2,r3,#52
 3700 0084 3F33     	 adds r3,r3,#63
 3701              	.L827:
 3702 0086 4FF02009 	 mov r9,#32
 3703 008a 02F8019B 	 strb r9,[r2],#1
 3704 008e 9A42     	 cmp r2,r3
 3705 0090 F9D1     	 bne .L827
 3706 0092 0298     	 ldr r0,[sp,#8]
 3707 0094 2E24     	 movs r4,#46
 3708 0096 4FF0100A 	 mov r10,#16
 3709 009a 80F83440 	 strb r4,[r0,#52]
 3710 009e 80F83FA0 	 strb r10,[r0,#63]
 3711 00a2 4146     	 mov r1,r8
 3712 00a4 4A30     	 adds r0,r0,#74
 3713 00a6 FFF7FEFF 	 bl st_dword
 3714 00aa 0298     	 ldr r0,[sp,#8]
 3715 00ac 2A46     	 mov r2,r5
 3716 00ae 00F13401 	 add r1,r0,#52
 3717 00b2 FFF7FEFF 	 bl st_clust.isra.4
 3718 00b6 0299     	 ldr r1,[sp,#8]
 3719 00b8 4A46     	 mov r2,r9
 3720 00ba 01F15400 	 add r0,r1,#84
 3721 00be 3431     	 adds r1,r1,#52
 3722 00c0 FFF7FEFF 	 bl mem_cpy.part.0
 3723 00c4 0298     	 ldr r0,[sp,#8]
 3724 00c6 0A9A     	 ldr r2,[sp,#40]
 3725 00c8 80F85540 	 strb r4,[r0,#85]
 3726 00cc 00F15401 	 add r1,r0,#84
 3727 00d0 FFF7FEFF 	 bl st_clust.isra.4
 3728 00d4 029B     	 ldr r3,[sp,#8]
 3729 00d6 4FF00109 	 mov r9,#1
 3730 00da 83F80390 	 strb r9,[r3,#3]
 3731 00de 3046     	 mov r0,r6
 3732 00e0 FFF7FEFF 	 bl dir_register
 3733 00e4 0446     	 mov r4,r0
 3734 00e6 28B1     	 cbz r0,.L828
 3735              	.L830:
 3736 00e8 3846     	 mov r0,r7
 3737 00ea 2946     	 mov r1,r5
 3738 00ec 0022     	 movs r2,#0
 3739 00ee FFF7FEFF 	 bl remove_chain
 3740 00f2 12E0     	 b .L836
 3741              	.L828:
 3742 00f4 1098     	 ldr r0,[sp,#64]
 3743 00f6 4146     	 mov r1,r8
 3744 00f8 1630     	 adds r0,r0,#22
 3745 00fa FFF7FEFF 	 bl st_dword
 3746 00fe 0298     	 ldr r0,[sp,#8]
 3747 0100 1099     	 ldr r1,[sp,#64]
 3748 0102 2A46     	 mov r2,r5
 3749 0104 FFF7FEFF 	 bl st_clust.isra.4
 3750 0108 109B     	 ldr r3,[sp,#64]
 3751 010a 0298     	 ldr r0,[sp,#8]
 3752 010c 83F80BA0 	 strb r10,[r3,#11]
 3753 0110 80F80390 	 strb r9,[r0,#3]
 3754 0114 FFF7FEFF 	 bl sync_fs
 3755              	.L840:
 3756 0118 0446     	 mov r4,r0
 3757              	.L836:
 3758 011a 2046     	 mov r0,r4
 3759 011c 14B0     	 add sp,sp,#80
 3760              	 
 3761 011e BDE8F087 	 pop {r4,r5,r6,r7,r8,r9,r10,pc}
 3763              	 .section .text.f_rename,"ax",%progbits
 3764              	 .align 1
 3765              	 .global f_rename
 3766              	 .thumb
 3767              	 .thumb_func
 3769              	f_rename:
 3770              	 
 3771              	 
 3772 0000 70B5     	 push {r4,r5,r6,lr}
 3773 0002 A4B0     	 sub sp,sp,#144
 3774 0004 0190     	 str r0,[sp,#4]
 3775 0006 24A8     	 add r0,sp,#144
 3776 0008 40F8901D 	 str r1,[r0,#-144]!
 3777 000c FFF7FEFF 	 bl get_ldnumber
 3778 0010 01A8     	 add r0,sp,#4
 3779 0012 03A9     	 add r1,sp,#12
 3780 0014 0222     	 movs r2,#2
 3781 0016 FFF7FEFF 	 bl find_volume
 3782 001a 0028     	 cmp r0,#0
 3783 001c 7CD1     	 bne .L859
 3784 001e 24AC     	 add r4,sp,#144
 3785 0020 039B     	 ldr r3,[sp,#12]
 3786 0022 44F8603D 	 str r3,[r4,#-96]!
 3787 0026 0199     	 ldr r1,[sp,#4]
 3788 0028 2046     	 mov r0,r4
 3789 002a FFF7FEFF 	 bl follow_path
 3790 002e 0028     	 cmp r0,#0
 3791 0030 72D1     	 bne .L859
 3792 0032 9DF85F30 	 ldrb r3,[sp,#95]
 3793 0036 13F0A00F 	 tst r3,#160
 3794 003a 59D1     	 bne .L855
 3795 003c 2046     	 mov r0,r4
 3796 003e 0221     	 movs r1,#2
 3797 0040 FFF7FEFF 	 bl chk_lock
 3798 0044 0028     	 cmp r0,#0
 3799 0046 67D1     	 bne .L859
 3800 0048 04A8     	 add r0,sp,#16
 3801 004a 1499     	 ldr r1,[sp,#80]
 3802 004c 2022     	 movs r2,#32
 3803 004e FFF7FEFF 	 bl mem_cpy.part.0
 3804 0052 18A8     	 add r0,sp,#96
 3805 0054 2146     	 mov r1,r4
 3806 0056 3022     	 movs r2,#48
 3807 0058 FFF7FEFF 	 bl mem_cpy.part.0
 3808 005c 18A8     	 add r0,sp,#96
 3809 005e 0099     	 ldr r1,[sp]
 3810 0060 FFF7FEFF 	 bl follow_path
 3811 0064 40B9     	 cbnz r0,.L846
 3812 0066 0E9B     	 ldr r3,[sp,#56]
 3813 0068 1A9A     	 ldr r2,[sp,#104]
 3814 006a 9A42     	 cmp r2,r3
 3815 006c 42D1     	 bne .L856
 3816 006e 119B     	 ldr r3,[sp,#68]
 3817 0070 1D9A     	 ldr r2,[sp,#116]
 3818 0072 9A42     	 cmp r2,r3
 3819 0074 3ED1     	 bne .L856
 3820 0076 01E0     	 b .L848
 3821              	.L846:
 3822 0078 0428     	 cmp r0,#4
 3823 007a 4DD1     	 bne .L859
 3824              	.L848:
 3825 007c 18A8     	 add r0,sp,#96
 3826 007e FFF7FEFF 	 bl dir_register
 3827 0082 0028     	 cmp r0,#0
 3828 0084 48D1     	 bne .L859
 3829 0086 209C     	 ldr r4,[sp,#128]
 3830 0088 1322     	 movs r2,#19
 3831 008a 04F10D00 	 add r0,r4,#13
 3832 008e 0DF11D01 	 add r1,sp,#29
 3833 0092 FFF7FEFF 	 bl mem_cpy.part.0
 3834 0096 9DF81B30 	 ldrb r3,[sp,#27]
 3835 009a 039D     	 ldr r5,[sp,#12]
 3836 009c DA06     	 lsls r2,r3,#27
 3837 009e 58BF     	 it pl
 3838 00a0 43F02003 	 orrpl r3,r3,#32
 3839 00a4 0126     	 movs r6,#1
 3840 00a6 E372     	 strb r3,[r4,#11]
 3841 00a8 EE70     	 strb r6,[r5,#3]
 3842 00aa E37A     	 ldrb r3,[r4,#11]
 3843 00ac DB06     	 lsls r3,r3,#27
 3844 00ae 25D5     	 bpl .L852
 3845 00b0 1A9B     	 ldr r3,[sp,#104]
 3846 00b2 0E9A     	 ldr r2,[sp,#56]
 3847 00b4 9A42     	 cmp r2,r3
 3848 00b6 21D0     	 beq .L852
 3849 00b8 2146     	 mov r1,r4
 3850 00ba 2878     	 ldrb r0,[r5]
 3851 00bc FFF7FEFF 	 bl ld_clust.isra.3
 3852 00c0 0146     	 mov r1,r0
 3853 00c2 2846     	 mov r0,r5
 3854 00c4 FFF7FEFF 	 bl clst2sect
 3855 00c8 0146     	 mov r1,r0
 3856 00ca A8B1     	 cbz r0,.L857
 3857 00cc 2846     	 mov r0,r5
 3858 00ce FFF7FEFF 	 bl move_window
 3859 00d2 039B     	 ldr r3,[sp,#12]
 3860 00d4 00BB     	 cbnz r0,.L859
 3861 00d6 93F85520 	 ldrb r2,[r3,#85]
 3862 00da 2E2A     	 cmp r2,#46
 3863 00dc 0ED1     	 bne .L852
 3864 00de 1846     	 mov r0,r3
 3865 00e0 03F15401 	 add r1,r3,#84
 3866 00e4 1A9A     	 ldr r2,[sp,#104]
 3867 00e6 FFF7FEFF 	 bl st_clust.isra.4
 3868 00ea 039B     	 ldr r3,[sp,#12]
 3869 00ec DE70     	 strb r6,[r3,#3]
 3870 00ee 05E0     	 b .L852
 3871              	.L855:
 3872 00f0 0620     	 movs r0,#6
 3873 00f2 11E0     	 b .L859
 3874              	.L856:
 3875 00f4 0820     	 movs r0,#8
 3876 00f6 0FE0     	 b .L859
 3877              	.L857:
 3878 00f8 0220     	 movs r0,#2
 3879 00fa 0DE0     	 b .L859
 3880              	.L852:
 3881 00fc 0C9C     	 ldr r4,[sp,#48]
 3882 00fe 1399     	 ldr r1,[sp,#76]
 3883 0100 2046     	 mov r0,r4
 3884 0102 FFF7FEFF 	 bl move_window
 3885 0106 38B9     	 cbnz r0,.L859
 3886 0108 149B     	 ldr r3,[sp,#80]
 3887 010a E522     	 movs r2,#229
 3888 010c 1A70     	 strb r2,[r3]
 3889 010e 0123     	 movs r3,#1
 3890 0110 E370     	 strb r3,[r4,#3]
 3891 0112 0398     	 ldr r0,[sp,#12]
 3892 0114 FFF7FEFF 	 bl sync_fs
 3893              	.L859:
 3894 0118 24B0     	 add sp,sp,#144
 3895              	 
 3896 011a 70BD     	 pop {r4,r5,r6,pc}
 3898              	 .section .text.f_gets,"ax",%progbits
 3899              	 .align 1
 3900              	 .global f_gets
 3901              	 .thumb
 3902              	 .thumb_func
 3904              	f_gets:
 3905              	 
 3906              	 
 3907 0000 2DE9F341 	 push {r0,r1,r4,r5,r6,r7,r8,lr}
 3908 0004 0646     	 mov r6,r0
 3909 0006 9046     	 mov r8,r2
 3910 0008 4F1E     	 subs r7,r1,#1
 3911 000a 0546     	 mov r5,r0
 3912 000c 0024     	 movs r4,#0
 3913              	.L867:
 3914 000e BC42     	 cmp r4,r7
 3915 0010 12DA     	 bge .L866
 3916 0012 01AB     	 add r3,sp,#4
 3917 0014 4046     	 mov r0,r8
 3918 0016 6946     	 mov r1,sp
 3919 0018 0122     	 movs r2,#1
 3920 001a FFF7FEFF 	 bl f_read
 3921 001e 019B     	 ldr r3,[sp,#4]
 3922 0020 012B     	 cmp r3,#1
 3923 0022 09D1     	 bne .L866
 3924 0024 9DF80030 	 ldrb r3,[sp]
 3925 0028 0D2B     	 cmp r3,#13
 3926 002a F0D0     	 beq .L867
 3927 002c 0A2B     	 cmp r3,#10
 3928 002e 05F8013B 	 strb r3,[r5],#1
 3929 0032 04F10104 	 add r4,r4,#1
 3930 0036 EAD1     	 bne .L867
 3931              	.L866:
 3932 0038 0023     	 movs r3,#0
 3933 003a 9C42     	 cmp r4,r3
 3934 003c 14BF     	 ite ne
 3935 003e 3046     	 movne r0,r6
 3936 0040 1846     	 moveq r0,r3
 3937 0042 2B70     	 strb r3,[r5]
 3938 0044 02B0     	 add sp,sp,#8
 3939              	 
 3940 0046 BDE8F081 	 pop {r4,r5,r6,r7,r8,pc}
 3942              	 .section .text.f_putc,"ax",%progbits
 3943              	 .align 1
 3944              	 .global f_putc
 3945              	 .thumb
 3946              	 .thumb_func
 3948              	f_putc:
 3949              	 
 3950              	 
 3951 0000 10B5     	 push {r4,lr}
 3952 0002 0246     	 mov r2,r0
 3953 0004 94B0     	 sub sp,sp,#80
 3954 0006 0023     	 movs r3,#0
 3955              	.L877:
 3956 0008 01AC     	 add r4,sp,#4
 3957 000a 0020     	 movs r0,#0
 3958 000c 1855     	 strb r0,[r3,r4]
 3959 000e 0133     	 adds r3,r3,#1
 3960 0010 4C2B     	 cmp r3,#76
 3961 0012 F9D1     	 bne .L877
 3962 0014 0191     	 str r1,[sp,#4]
 3963 0016 2046     	 mov r0,r4
 3964 0018 1146     	 mov r1,r2
 3965 001a FFF7FEFF 	 bl putc_bfd
 3966 001e 2046     	 mov r0,r4
 3967 0020 FFF7FEFF 	 bl putc_flush
 3968 0024 14B0     	 add sp,sp,#80
 3969              	 
 3970 0026 10BD     	 pop {r4,pc}
 3972              	 .section .text.f_puts,"ax",%progbits
 3973              	 .align 1
 3974              	 .global f_puts
 3975              	 .thumb
 3976              	 .thumb_func
 3978              	f_puts:
 3979              	 
 3980              	 
 3981 0000 30B5     	 push {r4,r5,lr}
 3982 0002 0023     	 movs r3,#0
 3983 0004 95B0     	 sub sp,sp,#84
 3984              	.L880:
 3985 0006 01AD     	 add r5,sp,#4
 3986 0008 0022     	 movs r2,#0
 3987 000a 5A55     	 strb r2,[r3,r5]
 3988 000c 0133     	 adds r3,r3,#1
 3989 000e 4C2B     	 cmp r3,#76
 3990 0010 F9D1     	 bne .L880
 3991 0012 0191     	 str r1,[sp,#4]
 3992 0014 441E     	 subs r4,r0,#1
 3993              	.L881:
 3994 0016 14F8011F 	 ldrb r1,[r4,#1]!
 3995 001a 2846     	 mov r0,r5
 3996 001c 11B1     	 cbz r1,.L884
 3997 001e FFF7FEFF 	 bl putc_bfd
 3998 0022 F8E7     	 b .L881
 3999              	.L884:
 4000 0024 FFF7FEFF 	 bl putc_flush
 4001 0028 15B0     	 add sp,sp,#84
 4002              	 
 4003 002a 30BD     	 pop {r4,r5,pc}
 4005              	 .section .text.f_printf,"ax",%progbits
 4006              	 .align 1
 4007              	 .global f_printf
 4008              	 .thumb
 4009              	 .thumb_func
 4011              	f_printf:
 4012              	 
 4013              	 
 4014 0000 0EB4     	 push {r1,r2,r3}
 4015 0002 2DE9F047 	 push {r4,r5,r6,r7,r8,r9,r10,lr}
 4016 0006 9DB0     	 sub sp,sp,#116
 4017 0008 0023     	 movs r3,#0
 4018 000a 259C     	 ldr r4,[sp,#148]
 4019              	.L886:
 4020 000c 09AE     	 add r6,sp,#36
 4021 000e 0022     	 movs r2,#0
 4022 0010 9A55     	 strb r2,[r3,r6]
 4023 0012 0133     	 adds r3,r3,#1
 4024 0014 4C2B     	 cmp r3,#76
 4025 0016 F9D1     	 bne .L886
 4026 0018 26AB     	 add r3,sp,#152
 4027 001a 0990     	 str r0,[sp,#36]
 4028 001c 0093     	 str r3,[sp]
 4029              	.L887:
 4030 001e 2178     	 ldrb r1,[r4]
 4031 0020 0029     	 cmp r1,#0
 4032 0022 00F0F180 	 beq .L888
 4033 0026 2529     	 cmp r1,#37
 4034 0028 01D0     	 beq .L889
 4035 002a 0134     	 adds r4,r4,#1
 4036 002c 7FE0     	 b .L900
 4037              	.L889:
 4038 002e 6178     	 ldrb r1,[r4,#1]
 4039 0030 3029     	 cmp r1,#48
 4040 0032 03D1     	 bne .L891
 4041 0034 E31C     	 adds r3,r4,#3
 4042 0036 A178     	 ldrb r1,[r4,#2]
 4043 0038 0122     	 movs r2,#1
 4044 003a 07E0     	 b .L892
 4045              	.L891:
 4046 003c 2D29     	 cmp r1,#45
 4047 003e 0DBF     	 iteet eq
 4048 0040 A178     	 ldrbeq r1,[r4,#2]
 4049 0042 A31C     	 addne r3,r4,#2
 4050 0044 0022     	 movne r2,#0
 4051 0046 E31C     	 addeq r3,r4,#3
 4052 0048 08BF     	 it eq
 4053 004a 0222     	 moveq r2,#2
 4054              	.L892:
 4055 004c 2A29     	 cmp r1,#42
 4056 004e 02D0     	 beq .L894
 4057 0050 1C46     	 mov r4,r3
 4058 0052 0027     	 movs r7,#0
 4059 0054 06E0     	 b .L895
 4060              	.L894:
 4061 0056 0099     	 ldr r1,[sp]
 4062 0058 081D     	 adds r0,r1,#4
 4063 005a 0F68     	 ldr r7,[r1]
 4064 005c 0090     	 str r0,[sp]
 4065 005e 5C1C     	 adds r4,r3,#1
 4066 0060 1978     	 ldrb r1,[r3]
 4067 0062 0AE0     	 b .L896
 4068              	.L895:
 4069 0064 A1F13003 	 sub r3,r1,#48
 4070 0068 092B     	 cmp r3,#9
 4071 006a 06D8     	 bhi .L896
 4072 006c 0A23     	 movs r3,#10
 4073 006e 03FB0717 	 mla r7,r3,r7,r1
 4074 0072 303F     	 subs r7,r7,#48
 4075 0074 14F8011B 	 ldrb r1,[r4],#1
 4076 0078 F4E7     	 b .L895
 4077              	.L896:
 4078 007a 01F0DF03 	 and r3,r1,#223
 4079 007e 4C2B     	 cmp r3,#76
 4080 0080 02BF     	 ittt eq
 4081 0082 2178     	 ldrbeq r1,[r4]
 4082 0084 42F00402 	 orreq r2,r2,#4
 4083 0088 0134     	 addeq r4,r4,#1
 4084 008a 0029     	 cmp r1,#0
 4085 008c 00F0BC80 	 beq .L888
 4086 0090 A1F16103 	 sub r3,r1,#97
 4087 0094 192B     	 cmp r3,#25
 4088 0096 9ABF     	 itte ls
 4089 0098 A1F12003 	 subls r3,r1,#32
 4090 009c DBB2     	 uxtbls r3,r3
 4091 009e 0B46     	 movhi r3,r1
 4092 00a0 4F2B     	 cmp r3,#79
 4093 00a2 14D0     	 beq .L901
 4094 00a4 06D8     	 bhi .L902
 4095 00a6 432B     	 cmp r3,#67
 4096 00a8 38D0     	 beq .L903
 4097 00aa 442B     	 cmp r3,#68
 4098 00ac 46D0     	 beq .L933
 4099 00ae 422B     	 cmp r3,#66
 4100 00b0 41D0     	 beq .L905
 4101 00b2 3CE0     	 b .L900
 4102              	.L902:
 4103 00b4 552B     	 cmp r3,#85
 4104 00b6 41D0     	 beq .L933
 4105 00b8 582B     	 cmp r3,#88
 4106 00ba 35D0     	 beq .L906
 4107 00bc 532B     	 cmp r3,#83
 4108 00be 36D1     	 bne .L900
 4109 00c0 009B     	 ldr r3,[sp]
 4110 00c2 D3F80080 	 ldr r8,[r3]
 4111 00c6 191D     	 adds r1,r3,#4
 4112 00c8 0091     	 str r1,[sp]
 4113 00ca 4146     	 mov r1,r8
 4114 00cc 02E0     	 b .L908
 4115              	.L901:
 4116 00ce 4FF0080E 	 mov lr,#8
 4117 00d2 35E0     	 b .L904
 4118              	.L908:
 4119 00d4 C8EB0103 	 rsb r3,r8,r1
 4120 00d8 11F8010B 	 ldrb r0,[r1],#1
 4121 00dc 0028     	 cmp r0,#0
 4122 00de F9D1     	 bne .L908
 4123 00e0 9007     	 lsls r0,r2,#30
 4124 00e2 1D46     	 mov r5,r3
 4125 00e4 09D4     	 bmi .L909
 4126              	.L910:
 4127 00e6 BB42     	 cmp r3,r7
 4128 00e8 03F10105 	 add r5,r3,#1
 4129 00ec 05D2     	 bcs .L909
 4130 00ee 3046     	 mov r0,r6
 4131 00f0 2021     	 movs r1,#32
 4132 00f2 FFF7FEFF 	 bl putc_bfd
 4133 00f6 2B46     	 mov r3,r5
 4134 00f8 F5E7     	 b .L910
 4135              	.L909:
 4136 00fa 08F1FF38 	 add r8,r8,#-1
 4137              	.L912:
 4138 00fe 18F8011F 	 ldrb r1,[r8,#1]!
 4139 0102 19B1     	 cbz r1,.L914
 4140 0104 3046     	 mov r0,r6
 4141 0106 FFF7FEFF 	 bl putc_bfd
 4142 010a F8E7     	 b .L912
 4143              	.L914:
 4144 010c BD42     	 cmp r5,r7
 4145 010e 86D2     	 bcs .L887
 4146 0110 3046     	 mov r0,r6
 4147 0112 2021     	 movs r1,#32
 4148 0114 FFF7FEFF 	 bl putc_bfd
 4149 0118 0135     	 adds r5,r5,#1
 4150 011a F7E7     	 b .L914
 4151              	.L903:
 4152 011c 009B     	 ldr r3,[sp]
 4153 011e 1A1D     	 adds r2,r3,#4
 4154 0120 0092     	 str r2,[sp]
 4155 0122 3046     	 mov r0,r6
 4156 0124 1978     	 ldrb r1,[r3]
 4157 0126 03E0     	 b .L962
 4158              	.L906:
 4159 0128 4FF0100E 	 mov lr,#16
 4160 012c 08E0     	 b .L904
 4161              	.L900:
 4162 012e 3046     	 mov r0,r6
 4163              	.L962:
 4164 0130 FFF7FEFF 	 bl putc_bfd
 4165 0134 73E7     	 b .L887
 4166              	.L905:
 4167 0136 4FF0020E 	 mov lr,#2
 4168 013a 01E0     	 b .L904
 4169              	.L933:
 4170 013c 4FF00A0E 	 mov lr,#10
 4171              	.L904:
 4172 0140 12F0040F 	 tst r2,#4
 4173 0144 0098     	 ldr r0,[sp]
 4174 0146 04D0     	 beq .L916
 4175 0148 051D     	 adds r5,r0,#4
 4176 014a 0095     	 str r5,[sp]
 4177 014c 0068     	 ldr r0,[r0]
 4178 014e 442B     	 cmp r3,#68
 4179 0150 04E0     	 b .L964
 4180              	.L916:
 4181 0152 442B     	 cmp r3,#68
 4182 0154 00F10403 	 add r3,r0,#4
 4183 0158 0068     	 ldr r0,[r0]
 4184 015a 0093     	 str r3,[sp]
 4185              	.L964:
 4186 015c 04D1     	 bne .L918
 4187 015e 0028     	 cmp r0,#0
 4188 0160 BCBF     	 itt lt
 4189 0162 4042     	 rsblt r0,r0,#0
 4190 0164 42F00802 	 orrlt r2,r2,#8
 4191              	.L918:
 4192 0168 0025     	 movs r5,#0
 4193              	.L923:
 4194 016a B0FBFEFC 	 udiv ip,r0,lr
 4195 016e 0EFB1C08 	 mls r8,lr,ip,r0
 4196 0172 B8F1090F 	 cmp r8,#9
 4197 0176 5FFA88F3 	 uxtb r3,r8
 4198 017a 6046     	 mov r0,ip
 4199 017c 07D9     	 bls .L920
 4200 017e 7829     	 cmp r1,#120
 4201 0180 0CBF     	 ite eq
 4202 0182 4FF02708 	 moveq r8,#39
 4203 0186 4FF00708 	 movne r8,#7
 4204 018a 4344     	 add r3,r3,r8
 4205 018c DBB2     	 uxtb r3,r3
 4206              	.L920:
 4207 018e 0135     	 adds r5,r5,#1
 4208 0190 0DF10408 	 add r8,sp,#4
 4209 0194 08EB0509 	 add r9,r8,r5
 4210 0198 3033     	 adds r3,r3,#48
 4211 019a 09F8013C 	 strb r3,[r9,#-1]
 4212 019e BCF1000F 	 cmp ip,#0
 4213 01a2 01D0     	 beq .L922
 4214 01a4 202D     	 cmp r5,#32
 4215 01a6 E0D1     	 bne .L923
 4216              	.L922:
 4217 01a8 1107     	 lsls r1,r2,#28
 4218 01aa 41BF     	 itttt mi
 4219 01ac 1CAB     	 addmi r3,sp,#112
 4220 01ae 5B19     	 addmi r3,r3,r5
 4221 01b0 2D21     	 movmi r1,#45
 4222 01b2 03F86C1C 	 strbmi r1,[r3,#-108]
 4223 01b6 48BF     	 it mi
 4224 01b8 0135     	 addmi r5,r5,#1
 4225 01ba 12F0010F 	 tst r2,#1
 4226 01be 14BF     	 ite ne
 4227 01c0 4FF03009 	 movne r9,#48
 4228 01c4 4FF02009 	 moveq r9,#32
 4229 01c8 9307     	 lsls r3,r2,#30
 4230 01ca 0AD4     	 bmi .L936
 4231 01cc 2B46     	 mov r3,r5
 4232              	.L927:
 4233 01ce BB42     	 cmp r3,r7
 4234 01d0 03F1010A 	 add r10,r3,#1
 4235 01d4 06D2     	 bcs .L929
 4236 01d6 3046     	 mov r0,r6
 4237 01d8 4946     	 mov r1,r9
 4238 01da FFF7FEFF 	 bl putc_bfd
 4239 01de 5346     	 mov r3,r10
 4240 01e0 F5E7     	 b .L927
 4241              	.L936:
 4242 01e2 AA46     	 mov r10,r5
 4243              	.L929:
 4244 01e4 013D     	 subs r5,r5,#1
 4245 01e6 3046     	 mov r0,r6
 4246 01e8 18F80510 	 ldrb r1,[r8,r5]
 4247 01ec FFF7FEFF 	 bl putc_bfd
 4248 01f0 002D     	 cmp r5,#0
 4249 01f2 F7D1     	 bne .L929
 4250 01f4 5546     	 mov r5,r10
 4251              	.L930:
 4252 01f6 BD42     	 cmp r5,r7
 4253 01f8 BFF411AF 	 bcs .L887
 4254 01fc 3046     	 mov r0,r6
 4255 01fe 4946     	 mov r1,r9
 4256 0200 FFF7FEFF 	 bl putc_bfd
 4257 0204 0135     	 adds r5,r5,#1
 4258 0206 F6E7     	 b .L930
 4259              	.L888:
 4260 0208 3046     	 mov r0,r6
 4261 020a FFF7FEFF 	 bl putc_flush
 4262 020e 1DB0     	 add sp,sp,#116
 4263              	 
 4264 0210 BDE8F047 	 pop {r4,r5,r6,r7,r8,r9,r10,lr}
 4265 0214 03B0     	 add sp,sp,#12
 4266 0216 7047     	 bx lr
 4268              	 .section .bss.CurrVol,"aw",%nobits
 4269              	 .set .LANCHOR1,.+0
 4272              	CurrVol:
 4273 0000 00       	 .space 1
 4274              	 .section .rodata.str1.1,"aMS",%progbits,1
 4275              	.LC0:
 4276 0000 46415400 	 .ascii "FAT\000"
 4277              	.LC1:
 4278 0004 46415433 	 .ascii "FAT32\000"
 4278      3200
 4279              	.LC2:
 4280 000a 222A2B2C 	 .ascii "\"*+,:;<=>?[]|\177\000"
 4280      3A3B3C3D 
 4280      3E3F5B5D 
 4280      7C7F00
 4281              	 .section .bss.Fsid,"aw",%nobits
 4282              	 .align 1
 4283              	 .set .LANCHOR3,.+0
 4286              	Fsid:
 4287 0000 0000     	 .space 2
 4288              	 .section .rodata.ExCvt,"a",%progbits
 4289              	 .set .LANCHOR4,.+0
 4292              	ExCvt:
 4293 0000 43       	 .byte 67
 4294 0001 55       	 .byte 85
 4295 0002 45       	 .byte 69
 4296 0003 41       	 .byte 65
 4297 0004 41       	 .byte 65
 4298 0005 41       	 .byte 65
 4299 0006 41       	 .byte 65
 4300 0007 43       	 .byte 67
 4301 0008 45       	 .byte 69
 4302 0009 45       	 .byte 69
 4303 000a 45       	 .byte 69
 4304 000b 49       	 .byte 73
 4305 000c 49       	 .byte 73
 4306 000d 49       	 .byte 73
 4307 000e 41       	 .byte 65
 4308 000f 41       	 .byte 65
 4309 0010 45       	 .byte 69
 4310 0011 92       	 .byte -110
 4311 0012 92       	 .byte -110
 4312 0013 4F       	 .byte 79
 4313 0014 4F       	 .byte 79
 4314 0015 4F       	 .byte 79
 4315 0016 55       	 .byte 85
 4316 0017 55       	 .byte 85
 4317 0018 59       	 .byte 89
 4318 0019 4F       	 .byte 79
 4319 001a 55       	 .byte 85
 4320 001b 4F       	 .byte 79
 4321 001c 9C       	 .byte -100
 4322 001d 4F       	 .byte 79
 4323 001e 9E       	 .byte -98
 4324 001f 9F       	 .byte -97
 4325 0020 41       	 .byte 65
 4326 0021 49       	 .byte 73
 4327 0022 4F       	 .byte 79
 4328 0023 55       	 .byte 85
 4329 0024 A5       	 .byte -91
 4330 0025 A5       	 .byte -91
 4331 0026 A6       	 .byte -90
 4332 0027 A7       	 .byte -89
 4333 0028 A8       	 .byte -88
 4334 0029 A9       	 .byte -87
 4335 002a AA       	 .byte -86
 4336 002b AB       	 .byte -85
 4337 002c AC       	 .byte -84
 4338 002d AD       	 .byte -83
 4339 002e AE       	 .byte -82
 4340 002f AF       	 .byte -81
 4341 0030 B0       	 .byte -80
 4342 0031 B1       	 .byte -79
 4343 0032 B2       	 .byte -78
 4344 0033 B3       	 .byte -77
 4345 0034 B4       	 .byte -76
 4346 0035 41       	 .byte 65
 4347 0036 41       	 .byte 65
 4348 0037 41       	 .byte 65
 4349 0038 B8       	 .byte -72
 4350 0039 B9       	 .byte -71
 4351 003a BA       	 .byte -70
 4352 003b BB       	 .byte -69
 4353 003c BC       	 .byte -68
 4354 003d BD       	 .byte -67
 4355 003e BE       	 .byte -66
 4356 003f BF       	 .byte -65
 4357 0040 C0       	 .byte -64
 4358 0041 C1       	 .byte -63
 4359 0042 C2       	 .byte -62
 4360 0043 C3       	 .byte -61
 4361 0044 C4       	 .byte -60
 4362 0045 C5       	 .byte -59
 4363 0046 41       	 .byte 65
 4364 0047 41       	 .byte 65
 4365 0048 C8       	 .byte -56
 4366 0049 C9       	 .byte -55
 4367 004a CA       	 .byte -54
 4368 004b CB       	 .byte -53
 4369 004c CC       	 .byte -52
 4370 004d CD       	 .byte -51
 4371 004e CE       	 .byte -50
 4372 004f CF       	 .byte -49
 4373 0050 D1       	 .byte -47
 4374 0051 D1       	 .byte -47
 4375 0052 45       	 .byte 69
 4376 0053 45       	 .byte 69
 4377 0054 45       	 .byte 69
 4378 0055 49       	 .byte 73
 4379 0056 49       	 .byte 73
 4380 0057 49       	 .byte 73
 4381 0058 49       	 .byte 73
 4382 0059 D9       	 .byte -39
 4383 005a DA       	 .byte -38
 4384 005b DB       	 .byte -37
 4385 005c DC       	 .byte -36
 4386 005d DD       	 .byte -35
 4387 005e 49       	 .byte 73
 4388 005f DF       	 .byte -33
 4389 0060 4F       	 .byte 79
 4390 0061 E1       	 .byte -31
 4391 0062 4F       	 .byte 79
 4392 0063 4F       	 .byte 79
 4393 0064 4F       	 .byte 79
 4394 0065 4F       	 .byte 79
 4395 0066 E6       	 .byte -26
 4396 0067 E8       	 .byte -24
 4397 0068 E8       	 .byte -24
 4398 0069 55       	 .byte 85
 4399 006a 55       	 .byte 85
 4400 006b 55       	 .byte 85
 4401 006c 59       	 .byte 89
 4402 006d 59       	 .byte 89
 4403 006e EE       	 .byte -18
 4404 006f EF       	 .byte -17
 4405 0070 F0       	 .byte -16
 4406 0071 F1       	 .byte -15
 4407 0072 F2       	 .byte -14
 4408 0073 F3       	 .byte -13
 4409 0074 F4       	 .byte -12
 4410 0075 F5       	 .byte -11
 4411 0076 F6       	 .byte -10
 4412 0077 F7       	 .byte -9
 4413 0078 F8       	 .byte -8
 4414 0079 F9       	 .byte -7
 4415 007a FA       	 .byte -6
 4416 007b FB       	 .byte -5
 4417 007c FC       	 .byte -4
 4418 007d FD       	 .byte -3
 4419 007e FE       	 .byte -2
 4420 007f FF       	 .byte -1
 4421              	 .section .bss.Files,"aw",%nobits
 4422              	 .align 2
 4423              	 .set .LANCHOR0,.+0
 4426              	Files:
 4427 0000 00000000 	 .space 16
 4427      00000000 
 4427      00000000 
 4427      00000000 
 4428              	 .section .bss.FatFs,"aw",%nobits
 4429              	 .align 2
 4430              	 .set .LANCHOR2,.+0
 4433              	FatFs:
 4434 0000 00000000 	 .space 4
 4435              	 .ident "GCC: (GNU Tools for ARM Embedded Processors) 4.9.3 20141119 (release) [ARM/embedded-4_9-branch revision 218278]"
DEFINED SYMBOLS
                            *ABS*:00000000 ff.c
    {standard input}:17     .text.ld_dword:00000000 $t
    {standard input}:21     .text.ld_dword:00000000 ld_dword
    {standard input}:35     .text.st_dword:00000000 $t
    {standard input}:39     .text.st_dword:00000000 st_dword
    {standard input}:53     .text.mem_cmp:00000000 $t
    {standard input}:57     .text.mem_cmp:00000000 mem_cmp
    {standard input}:76     .text.chk_lock:00000000 $t
    {standard input}:80     .text.chk_lock:00000000 chk_lock
    {standard input}:122    .text.chk_lock:00000044 $d
    {standard input}:125    .text.inc_lock:00000000 $t
    {standard input}:129    .text.inc_lock:00000000 inc_lock
    {standard input}:180    .text.inc_lock:00000054 $d
    {standard input}:183    .text.dec_lock:00000000 $t
    {standard input}:187    .text.dec_lock:00000000 dec_lock
    {standard input}:215    .text.dec_lock:00000028 $d
    {standard input}:218    .text.clst2sect:00000000 $t
    {standard input}:222    .text.clst2sect:00000000 clst2sect
    {standard input}:238    .text.get_ldnumber:00000000 $t
    {standard input}:242    .text.get_ldnumber:00000000 get_ldnumber
    {standard input}:279    .text.get_ldnumber:0000003c $d
    {standard input}:282    .text.validate:00000000 $t
    {standard input}:286    .text.validate:00000000 validate
    {standard input}:315    .text.mem_cpy.part.0:00000000 $t
    {standard input}:319    .text.mem_cpy.part.0:00000000 mem_cpy.part.0
    {standard input}:333    .text.ld_clust.isra.3:00000000 $t
    {standard input}:337    .text.ld_clust.isra.3:00000000 ld_clust.isra.3
    {standard input}:354    .text.st_clust.isra.4:00000000 $t
    {standard input}:358    .text.st_clust.isra.4:00000000 st_clust.isra.4
    {standard input}:375    .text.get_fileinfo.part.5:00000000 $t
    {standard input}:379    .text.get_fileinfo.part.5:00000000 get_fileinfo.part.5
    {standard input}:429    .text.sync_window.part.6:00000000 $t
    {standard input}:433    .text.sync_window.part.6:00000000 sync_window.part.6
    {standard input}:470    .text.move_window:00000000 $t
    {standard input}:474    .text.move_window:00000000 move_window
    {standard input}:508    .text.check_fs:00000000 $t
    {standard input}:512    .text.check_fs:00000000 check_fs
    {standard input}:564    .text.check_fs:00000068 $d
    {standard input}:568    .text.find_volume:00000000 $t
    {standard input}:572    .text.find_volume:00000000 find_volume
    {standard input}:844    .text.find_volume:00000288 $d
    {standard input}:852    .text.put_fat:00000000 $t
    {standard input}:856    .text.put_fat:00000000 put_fat
    {standard input}:956    .text.get_fat.isra.10:00000000 $t
    {standard input}:960    .text.get_fat.isra.10:00000000 get_fat.isra.10
    {standard input}:1038   .text.dir_sdi:00000000 $t
    {standard input}:1042   .text.dir_sdi:00000000 dir_sdi
    {standard input}:1116   .text.create_chain:00000000 $t
    {standard input}:1120   .text.create_chain:00000000 create_chain
    {standard input}:1247   .text.remove_chain:00000000 $t
    {standard input}:1251   .text.remove_chain:00000000 remove_chain
    {standard input}:1313   .text.dir_clear:00000000 $t
    {standard input}:1317   .text.dir_clear:00000000 dir_clear
    {standard input}:1368   .text.dir_next:00000000 $t
    {standard input}:1372   .text.dir_next:00000000 dir_next
    {standard input}:1462   .text.follow_path:00000000 $t
    {standard input}:1466   .text.follow_path:00000000 follow_path
    {standard input}:1701   .text.follow_path:000001ec $d
    {standard input}:1705   .text.dir_read.constprop.12:00000000 $t
    {standard input}:1709   .text.dir_read.constprop.12:00000000 dir_read.constprop.12
    {standard input}:1759   .text.dir_register:00000000 $t
    {standard input}:1763   .text.dir_register:00000000 dir_register
    {standard input}:1817   .text.sync_fs:00000000 $t
    {standard input}:1821   .text.sync_fs:00000000 sync_fs
    {standard input}:1892   .text.f_mount:00000000 $t
    {standard input}:1897   .text.f_mount:00000000 f_mount
    {standard input}:1945   .text.f_mount:00000054 $d
    {standard input}:1949   .text.f_open:00000000 $t
    {standard input}:1954   .text.f_open:00000000 f_open
    {standard input}:2189   .text.f_open:000001f4 $d
    {standard input}:2192   .text.f_read:00000000 $t
    {standard input}:2197   .text.f_read:00000000 f_read
    {standard input}:2355   .text.f_write:00000000 $t
    {standard input}:2360   .text.f_write:00000000 f_write
    {standard input}:2546   .text.putc_bfd:00000000 $t
    {standard input}:2550   .text.putc_bfd:00000000 putc_bfd
    {standard input}:2589   .text.putc_flush:00000000 $t
    {standard input}:2593   .text.putc_flush:00000000 putc_flush
    {standard input}:2622   .text.f_sync:00000000 $t
    {standard input}:2627   .text.f_sync:00000000 f_sync
    {standard input}:2693   .text.f_close:00000000 $t
    {standard input}:2698   .text.f_close:00000000 f_close
    {standard input}:2719   .text.f_chdrive:00000000 $t
    {standard input}:2724   .text.f_chdrive:00000000 f_chdrive
    {standard input}:2744   .text.f_chdrive:00000020 $d
    {standard input}:2747   .text.f_chdir:00000000 $t
    {standard input}:2752   .text.f_chdir:00000000 f_chdir
    {standard input}:2803   .text.f_getcwd:00000000 $t
    {standard input}:2808   .text.f_getcwd:00000000 f_getcwd
    {standard input}:2948   .text.f_lseek:00000000 $t
    {standard input}:2953   .text.f_lseek:00000000 f_lseek
    {standard input}:3116   .text.f_opendir:00000000 $t
    {standard input}:3121   .text.f_opendir:00000000 f_opendir
    {standard input}:3196   .text.f_closedir:00000000 $t
    {standard input}:3201   .text.f_closedir:00000000 f_closedir
    {standard input}:3228   .text.f_readdir:00000000 $t
    {standard input}:3233   .text.f_readdir:00000000 f_readdir
    {standard input}:3275   .text.f_stat:00000000 $t
    {standard input}:3280   .text.f_stat:00000000 f_stat
    {standard input}:3319   .text.f_getfree:00000000 $t
    {standard input}:3324   .text.f_getfree:00000000 f_getfree
    {standard input}:3434   .text.f_truncate:00000000 $t
    {standard input}:3439   .text.f_truncate:00000000 f_truncate
    {standard input}:3527   .text.f_unlink:00000000 $t
    {standard input}:3532   .text.f_unlink:00000000 f_unlink
    {standard input}:3632   .text.f_mkdir:00000000 $t
    {standard input}:3637   .text.f_mkdir:00000000 f_mkdir
    {standard input}:3764   .text.f_rename:00000000 $t
    {standard input}:3769   .text.f_rename:00000000 f_rename
    {standard input}:3899   .text.f_gets:00000000 $t
    {standard input}:3904   .text.f_gets:00000000 f_gets
    {standard input}:3943   .text.f_putc:00000000 $t
    {standard input}:3948   .text.f_putc:00000000 f_putc
    {standard input}:3973   .text.f_puts:00000000 $t
    {standard input}:3978   .text.f_puts:00000000 f_puts
    {standard input}:4006   .text.f_printf:00000000 $t
    {standard input}:4011   .text.f_printf:00000000 f_printf
    {standard input}:4272   .bss.CurrVol:00000000 CurrVol
    {standard input}:4273   .bss.CurrVol:00000000 $d
    {standard input}:4279   .rodata.str1.1:0000000a .LC2
    {standard input}:4282   .bss.Fsid:00000000 $d
    {standard input}:4286   .bss.Fsid:00000000 Fsid
    {standard input}:4292   .rodata.ExCvt:00000000 ExCvt
    {standard input}:4422   .bss.Files:00000000 $d
    {standard input}:4426   .bss.Files:00000000 Files
    {standard input}:4429   .bss.FatFs:00000000 $d
    {standard input}:4433   .bss.FatFs:00000000 FatFs

UNDEFINED SYMBOLS
disk_status
disk_write
disk_read
disk_initialize
disk_ioctl
get_fattime
