   1              	 .syntax unified
   2              	 .cpu cortex-m4
   3              	 .eabi_attribute 27,3
   4              	 .fpu fpv4-sp-d16
   5              	 .eabi_attribute 20,1
   6              	 .eabi_attribute 21,1
   7              	 .eabi_attribute 23,3
   8              	 .eabi_attribute 24,1
   9              	 .eabi_attribute 25,1
  10              	 .eabi_attribute 26,1
  11              	 .eabi_attribute 30,4
  12              	 .eabi_attribute 34,1
  13              	 .eabi_attribute 18,4
  14              	 .thumb
  15              	 .file "EVE_commands.c"
  16              	 .section .text.EVE_cs_set,"ax",%progbits
  17              	 .align 1
  18              	 .thumb
  19              	 .thumb_func
  21              	EVE_cs_set:
  22              	 
  23              	 
  24              	 
  25 0000 034B     	 ldr r3,.L2
  26 0002 197C     	 ldrb r1,[r3,#16]
  27 0004 1A68     	 ldr r2,[r3]
  28 0006 4FF48033 	 mov r3,#65536
  29 000a 8B40     	 lsls r3,r3,r1
  30 000c 5360     	 str r3,[r2,#4]
  31 000e 7047     	 bx lr
  32              	.L3:
  33              	 .align 2
  34              	.L2:
  35 0010 00000000 	 .word IO_DIO_DIGOUT_CS_TFT
  37              	 .section .text.spi_transmit,"ax",%progbits
  38              	 .align 1
  39              	 .thumb
  40              	 .thumb_func
  42              	spi_transmit:
  43              	 
  44              	 
  45 0000 13B5     	 push {r0,r1,r4,lr}
  46 0002 084C     	 ldr r4,.L9
  47 0004 02A9     	 add r1,sp,#8
  48 0006 0122     	 movs r2,#1
  49 0008 01F8010D 	 strb r0,[r1,#-1]!
  50 000c 2046     	 mov r0,r4
  51 000e FFF7FEFF 	 bl SPI_MASTER_Transmit
  52 0012 2268     	 ldr r2,[r4]
  53              	.L5:
  54 0014 936C     	 ldr r3,[r2,#72]
  55 0016 DB07     	 lsls r3,r3,#31
  56 0018 01D5     	 bpl .L8
  57              	
  58 001a 00BF     	 nop
  59              	
  60              	 .thumb
  61 001c FAE7     	 b .L5
  62              	.L8:
  63 001e 02B0     	 add sp,sp,#8
  64              	 
  65 0020 10BD     	 pop {r4,pc}
  66              	.L10:
  67 0022 00BF     	 .align 2
  68              	.L9:
  69 0024 00000000 	 .word SPI_MASTER_0
  71              	 .section .text.spi_transmit_32,"ax",%progbits
  72              	 .align 1
  73              	 .thumb
  74              	 .thumb_func
  76              	spi_transmit_32:
  77              	 
  78              	 
  79 0000 10B5     	 push {r4,lr}
  80 0002 0446     	 mov r4,r0
  81 0004 C0B2     	 uxtb r0,r0
  82 0006 FFF7FEFF 	 bl spi_transmit
  83 000a C4F30720 	 ubfx r0,r4,#8,#8
  84 000e FFF7FEFF 	 bl spi_transmit
  85 0012 C4F30740 	 ubfx r0,r4,#16,#8
  86 0016 FFF7FEFF 	 bl spi_transmit
  87 001a 200E     	 lsrs r0,r4,#24
  88 001c BDE81040 	 pop {r4,lr}
  89 0020 FFF7FEBF 	 b spi_transmit
  91              	 .section .text.spi_receive.isra.1,"ax",%progbits
  92              	 .align 1
  93              	 .thumb
  94              	 .thumb_func
  96              	spi_receive.isra.1:
  97              	 
  98              	 
  99 0000 38B5     	 push {r3,r4,r5,lr}
 100 0002 074C     	 ldr r4,.L15
 101 0004 074D     	 ldr r5,.L15+4
 102 0006 2A23     	 movs r3,#42
 103 0008 0122     	 movs r2,#1
 104 000a 2846     	 mov r0,r5
 105 000c 2146     	 mov r1,r4
 106 000e 2370     	 strb r3,[r4]
 107 0010 FFF7FEFF 	 bl SPI_MASTER_Receive
 108 0014 AA68     	 ldr r2,[r5,#8]
 109              	.L13:
 110 0016 D37F     	 ldrb r3,[r2,#31]
 111 0018 002B     	 cmp r3,#0
 112 001a FCD1     	 bne .L13
 113 001c 2078     	 ldrb r0,[r4]
 114 001e 38BD     	 pop {r3,r4,r5,pc}
 115              	.L16:
 116              	 .align 2
 117              	.L15:
 118 0020 00000000 	 .word ReadData
 119 0024 00000000 	 .word SPI_MASTER_0
 121              	 .section .text.EVE_cs_clear,"ax",%progbits
 122              	 .align 1
 123              	 .thumb
 124              	 .thumb_func
 126              	EVE_cs_clear:
 127              	 
 128              	 
 129              	 
 130 0000 034B     	 ldr r3,.L18
 131 0002 197C     	 ldrb r1,[r3,#16]
 132 0004 1A68     	 ldr r2,[r3]
 133 0006 0123     	 movs r3,#1
 134 0008 8B40     	 lsls r3,r3,r1
 135 000a 5360     	 str r3,[r2,#4]
 136 000c 7047     	 bx lr
 137              	.L19:
 138 000e 00BF     	 .align 2
 139              	.L18:
 140 0010 00000000 	 .word IO_DIO_DIGOUT_CS_TFT
 142              	 .section .text.EVE_cmdWrite,"ax",%progbits
 143              	 .align 1
 144              	 .global EVE_cmdWrite
 145              	 .thumb
 146              	 .thumb_func
 148              	EVE_cmdWrite:
 149              	 
 150              	 
 151 0000 38B5     	 push {r3,r4,r5,lr}
 152 0002 0546     	 mov r5,r0
 153 0004 0C46     	 mov r4,r1
 154 0006 FFF7FEFF 	 bl EVE_cs_set
 155 000a 2846     	 mov r0,r5
 156 000c FFF7FEFF 	 bl spi_transmit
 157 0010 2046     	 mov r0,r4
 158 0012 FFF7FEFF 	 bl spi_transmit
 159 0016 0020     	 movs r0,#0
 160 0018 FFF7FEFF 	 bl spi_transmit
 161 001c BDE83840 	 pop {r3,r4,r5,lr}
 162 0020 FFF7FEBF 	 b EVE_cs_clear
 164              	 .section .text.EVE_memRead8,"ax",%progbits
 165              	 .align 1
 166              	 .global EVE_memRead8
 167              	 .thumb
 168              	 .thumb_func
 170              	EVE_memRead8:
 171              	 
 172              	 
 173 0000 10B5     	 push {r4,lr}
 174 0002 0446     	 mov r4,r0
 175 0004 FFF7FEFF 	 bl EVE_cs_set
 176 0008 C4F30740 	 ubfx r0,r4,#16,#8
 177 000c FFF7FEFF 	 bl spi_transmit
 178 0010 C4F30720 	 ubfx r0,r4,#8,#8
 179 0014 FFF7FEFF 	 bl spi_transmit
 180 0018 E0B2     	 uxtb r0,r4
 181 001a FFF7FEFF 	 bl spi_transmit
 182 001e 0020     	 movs r0,#0
 183 0020 FFF7FEFF 	 bl spi_transmit
 184 0024 FFF7FEFF 	 bl spi_receive.isra.1
 185 0028 0446     	 mov r4,r0
 186 002a FFF7FEFF 	 bl EVE_cs_clear
 187 002e 2046     	 mov r0,r4
 188 0030 10BD     	 pop {r4,pc}
 190              	 .section .text.EVE_memRead16,"ax",%progbits
 191              	 .align 1
 192              	 .global EVE_memRead16
 193              	 .thumb
 194              	 .thumb_func
 196              	EVE_memRead16:
 197              	 
 198              	 
 199 0000 38B5     	 push {r3,r4,r5,lr}
 200 0002 0446     	 mov r4,r0
 201 0004 FFF7FEFF 	 bl EVE_cs_set
 202 0008 C4F30740 	 ubfx r0,r4,#16,#8
 203 000c FFF7FEFF 	 bl spi_transmit
 204 0010 C4F30720 	 ubfx r0,r4,#8,#8
 205 0014 FFF7FEFF 	 bl spi_transmit
 206 0018 E0B2     	 uxtb r0,r4
 207 001a FFF7FEFF 	 bl spi_transmit
 208 001e 0020     	 movs r0,#0
 209 0020 FFF7FEFF 	 bl spi_transmit
 210 0024 FFF7FEFF 	 bl spi_receive.isra.1
 211 0028 0446     	 mov r4,r0
 212 002a FFF7FEFF 	 bl spi_receive.isra.1
 213 002e 0546     	 mov r5,r0
 214 0030 FFF7FEFF 	 bl EVE_cs_clear
 215 0034 44EA0520 	 orr r0,r4,r5,lsl#8
 216 0038 80B2     	 uxth r0,r0
 217 003a 38BD     	 pop {r3,r4,r5,pc}
 219              	 .section .text.EVE_memRead32,"ax",%progbits
 220              	 .align 1
 221              	 .global EVE_memRead32
 222              	 .thumb
 223              	 .thumb_func
 225              	EVE_memRead32:
 226              	 
 227              	 
 228 0000 38B5     	 push {r3,r4,r5,lr}
 229 0002 0446     	 mov r4,r0
 230 0004 FFF7FEFF 	 bl EVE_cs_set
 231 0008 C4F30740 	 ubfx r0,r4,#16,#8
 232 000c FFF7FEFF 	 bl spi_transmit
 233 0010 C4F30720 	 ubfx r0,r4,#8,#8
 234 0014 FFF7FEFF 	 bl spi_transmit
 235 0018 E0B2     	 uxtb r0,r4
 236 001a FFF7FEFF 	 bl spi_transmit
 237 001e 0020     	 movs r0,#0
 238 0020 FFF7FEFF 	 bl spi_transmit
 239 0024 FFF7FEFF 	 bl spi_receive.isra.1
 240 0028 0546     	 mov r5,r0
 241 002a FFF7FEFF 	 bl spi_receive.isra.1
 242 002e 0446     	 mov r4,r0
 243 0030 FFF7FEFF 	 bl spi_receive.isra.1
 244 0034 0004     	 lsls r0,r0,#16
 245 0036 40EA0424 	 orr r4,r0,r4,lsl#8
 246 003a FFF7FEFF 	 bl spi_receive.isra.1
 247 003e 2C43     	 orrs r4,r4,r5
 248 0040 44EA0064 	 orr r4,r4,r0,lsl#24
 249 0044 FFF7FEFF 	 bl EVE_cs_clear
 250 0048 2046     	 mov r0,r4
 251 004a 38BD     	 pop {r3,r4,r5,pc}
 253              	 .section .text.EVE_memWrite8,"ax",%progbits
 254              	 .align 1
 255              	 .global EVE_memWrite8
 256              	 .thumb
 257              	 .thumb_func
 259              	EVE_memWrite8:
 260              	 
 261              	 
 262 0000 38B5     	 push {r3,r4,r5,lr}
 263 0002 0446     	 mov r4,r0
 264 0004 0D46     	 mov r5,r1
 265 0006 FFF7FEFF 	 bl EVE_cs_set
 266 000a C4F30640 	 ubfx r0,r4,#16,#7
 267 000e 40F08000 	 orr r0,r0,#128
 268 0012 FFF7FEFF 	 bl spi_transmit
 269 0016 C4F30720 	 ubfx r0,r4,#8,#8
 270 001a FFF7FEFF 	 bl spi_transmit
 271 001e E0B2     	 uxtb r0,r4
 272 0020 FFF7FEFF 	 bl spi_transmit
 273 0024 2846     	 mov r0,r5
 274 0026 FFF7FEFF 	 bl spi_transmit
 275 002a BDE83840 	 pop {r3,r4,r5,lr}
 276 002e FFF7FEBF 	 b EVE_cs_clear
 278              	 .section .text.EVE_memWrite16,"ax",%progbits
 279              	 .align 1
 280              	 .global EVE_memWrite16
 281              	 .thumb
 282              	 .thumb_func
 284              	EVE_memWrite16:
 285              	 
 286              	 
 287 0000 38B5     	 push {r3,r4,r5,lr}
 288 0002 0446     	 mov r4,r0
 289 0004 0D46     	 mov r5,r1
 290 0006 FFF7FEFF 	 bl EVE_cs_set
 291 000a C4F30640 	 ubfx r0,r4,#16,#7
 292 000e 40F08000 	 orr r0,r0,#128
 293 0012 FFF7FEFF 	 bl spi_transmit
 294 0016 C4F30720 	 ubfx r0,r4,#8,#8
 295 001a FFF7FEFF 	 bl spi_transmit
 296 001e E0B2     	 uxtb r0,r4
 297 0020 FFF7FEFF 	 bl spi_transmit
 298 0024 E8B2     	 uxtb r0,r5
 299 0026 FFF7FEFF 	 bl spi_transmit
 300 002a 280A     	 lsrs r0,r5,#8
 301 002c FFF7FEFF 	 bl spi_transmit
 302 0030 BDE83840 	 pop {r3,r4,r5,lr}
 303 0034 FFF7FEBF 	 b EVE_cs_clear
 305              	 .section .text.EVE_memWrite32,"ax",%progbits
 306              	 .align 1
 307              	 .global EVE_memWrite32
 308              	 .thumb
 309              	 .thumb_func
 311              	EVE_memWrite32:
 312              	 
 313              	 
 314 0000 38B5     	 push {r3,r4,r5,lr}
 315 0002 0546     	 mov r5,r0
 316 0004 0C46     	 mov r4,r1
 317 0006 FFF7FEFF 	 bl EVE_cs_set
 318 000a C5F30640 	 ubfx r0,r5,#16,#7
 319 000e 40F08000 	 orr r0,r0,#128
 320 0012 FFF7FEFF 	 bl spi_transmit
 321 0016 C5F30720 	 ubfx r0,r5,#8,#8
 322 001a FFF7FEFF 	 bl spi_transmit
 323 001e E8B2     	 uxtb r0,r5
 324 0020 FFF7FEFF 	 bl spi_transmit
 325 0024 E0B2     	 uxtb r0,r4
 326 0026 FFF7FEFF 	 bl spi_transmit
 327 002a C4F30720 	 ubfx r0,r4,#8,#8
 328 002e FFF7FEFF 	 bl spi_transmit
 329 0032 C4F30740 	 ubfx r0,r4,#16,#8
 330 0036 FFF7FEFF 	 bl spi_transmit
 331 003a 200E     	 lsrs r0,r4,#24
 332 003c FFF7FEFF 	 bl spi_transmit
 333 0040 BDE83840 	 pop {r3,r4,r5,lr}
 334 0044 FFF7FEBF 	 b EVE_cs_clear
 336              	 .section .text.EVE_memWrite_flash_buffer,"ax",%progbits
 337              	 .align 1
 338              	 .global EVE_memWrite_flash_buffer
 339              	 .thumb
 340              	 .thumb_func
 342              	EVE_memWrite_flash_buffer:
 343              	 
 344              	 
 345 0000 70B5     	 push {r4,r5,r6,lr}
 346 0002 0646     	 mov r6,r0
 347 0004 0D46     	 mov r5,r1
 348 0006 1446     	 mov r4,r2
 349 0008 FFF7FEFF 	 bl EVE_cs_set
 350 000c C6F30640 	 ubfx r0,r6,#16,#7
 351 0010 40F08000 	 orr r0,r0,#128
 352 0014 FFF7FEFF 	 bl spi_transmit
 353 0018 C6F30720 	 ubfx r0,r6,#8,#8
 354 001c FFF7FEFF 	 bl spi_transmit
 355 0020 F0B2     	 uxtb r0,r6
 356 0022 0334     	 adds r4,r4,#3
 357 0024 FFF7FEFF 	 bl spi_transmit
 358 0028 24F00304 	 bic r4,r4,#3
 359 002c 2C44     	 add r4,r4,r5
 360              	.L28:
 361 002e A542     	 cmp r5,r4
 362 0030 04D0     	 beq .L30
 363 0032 15F8010B 	 ldrb r0,[r5],#1
 364 0036 FFF7FEFF 	 bl spi_transmit
 365 003a F8E7     	 b .L28
 366              	.L30:
 367 003c BDE87040 	 pop {r4,r5,r6,lr}
 368 0040 FFF7FEBF 	 b EVE_cs_clear
 370              	 .section .text.EVE_memWrite_sram_buffer,"ax",%progbits
 371              	 .align 1
 372              	 .global EVE_memWrite_sram_buffer
 373              	 .thumb
 374              	 .thumb_func
 376              	EVE_memWrite_sram_buffer:
 377              	 
 378              	 
 379 0000 70B5     	 push {r4,r5,r6,lr}
 380 0002 0646     	 mov r6,r0
 381 0004 0D46     	 mov r5,r1
 382 0006 1446     	 mov r4,r2
 383 0008 FFF7FEFF 	 bl EVE_cs_set
 384 000c C6F30640 	 ubfx r0,r6,#16,#7
 385 0010 40F08000 	 orr r0,r0,#128
 386 0014 FFF7FEFF 	 bl spi_transmit
 387 0018 C6F30720 	 ubfx r0,r6,#8,#8
 388 001c FFF7FEFF 	 bl spi_transmit
 389 0020 F0B2     	 uxtb r0,r6
 390 0022 0334     	 adds r4,r4,#3
 391 0024 FFF7FEFF 	 bl spi_transmit
 392 0028 24F00304 	 bic r4,r4,#3
 393 002c 2C44     	 add r4,r4,r5
 394              	.L32:
 395 002e A542     	 cmp r5,r4
 396 0030 04D0     	 beq .L34
 397 0032 15F8010B 	 ldrb r0,[r5],#1
 398 0036 FFF7FEFF 	 bl spi_transmit
 399 003a F8E7     	 b .L32
 400              	.L34:
 401 003c BDE87040 	 pop {r4,r5,r6,lr}
 402 0040 FFF7FEBF 	 b EVE_cs_clear
 404              	 .section .text.EVE_busy,"ax",%progbits
 405              	 .align 1
 406              	 .global EVE_busy
 407              	 .thumb
 408              	 .thumb_func
 410              	EVE_busy:
 411              	 
 412              	 
 413 0000 38B5     	 push {r3,r4,r5,lr}
 414 0002 2548     	 ldr r0,.L40
 415 0004 FFF7FEFF 	 bl EVE_memRead16
 416 0008 8307     	 lsls r3,r0,#30
 417 000a 0446     	 mov r4,r0
 418 000c 3DD0     	 beq .L36
 419 000e 2348     	 ldr r0,.L40+4
 420 0010 FFF7FEFF 	 bl puts
 421 0014 2248     	 ldr r0,.L40+8
 422 0016 FFF7FEFF 	 bl EVE_memRead16
 423 001a 0121     	 movs r1,#1
 424 001c 0546     	 mov r5,r0
 425 001e 2148     	 ldr r0,.L40+12
 426 0020 FFF7FEFF 	 bl EVE_memWrite8
 427 0024 2048     	 ldr r0,.L40+16
 428 0026 0021     	 movs r1,#0
 429 0028 FFF7FEFF 	 bl EVE_memWrite16
 430 002c 1F48     	 ldr r0,.L40+20
 431 002e 0021     	 movs r1,#0
 432 0030 FFF7FEFF 	 bl EVE_memWrite16
 433 0034 1E48     	 ldr r0,.L40+24
 434 0036 0021     	 movs r1,#0
 435 0038 FFF7FEFF 	 bl EVE_memWrite32
 436 003c 1948     	 ldr r0,.L40+12
 437 003e 0021     	 movs r1,#0
 438 0040 FFF7FEFF 	 bl EVE_memWrite8
 439 0044 2946     	 mov r1,r5
 440 0046 1648     	 ldr r0,.L40+8
 441 0048 FFF7FEFF 	 bl EVE_memWrite16
 442 004c 0520     	 movs r0,#5
 443 004e FFF7FEFF 	 bl delay_ms
 444 0052 FFF7FEFF 	 bl EVE_cs_set
 445 0056 B020     	 movs r0,#176
 446 0058 FFF7FEFF 	 bl spi_transmit
 447 005c 2520     	 movs r0,#37
 448 005e FFF7FEFF 	 bl spi_transmit
 449 0062 7820     	 movs r0,#120
 450 0064 FFF7FEFF 	 bl spi_transmit
 451 0068 6FF0B600 	 mvn r0,#182
 452 006c FFF7FEFF 	 bl spi_transmit_32
 453 0070 6FF0B500 	 mvn r0,#181
 454 0074 FFF7FEFF 	 bl spi_transmit_32
 455 0078 FFF7FEFF 	 bl EVE_cs_clear
 456 007c 0D48     	 ldr r0,.L40+28
 457 007e 0721     	 movs r1,#7
 458 0080 FFF7FEFF 	 bl EVE_memWrite8
 459 0084 0520     	 movs r0,#5
 460 0086 FFF7FEFF 	 bl delay_ms
 461              	.L36:
 462 008a 40F6FC70 	 movw r0,#4092
 463 008e 201A     	 subs r0,r4,r0
 464 0090 18BF     	 it ne
 465 0092 0120     	 movne r0,#1
 466 0094 38BD     	 pop {r3,r4,r5,pc}
 467              	.L41:
 468 0096 00BF     	 .align 2
 469              	.L40:
 470 0098 74253000 	 .word 3155316
 471 009c 00000000 	 .word .LC0
 472 00a0 62913000 	 .word 3182946
 473 00a4 20203000 	 .word 3153952
 474 00a8 F8203000 	 .word 3154168
 475 00ac FC203000 	 .word 3154172
 476 00b0 00213000 	 .word 3154176
 477 00b4 70203000 	 .word 3154032
 479              	 .section .text.EVE_cmd_start,"ax",%progbits
 480              	 .align 1
 481              	 .global EVE_cmd_start
 482              	 .thumb
 483              	 .thumb_func
 485              	EVE_cmd_start:
 486              	 
 487              	 
 488              	 
 489 0000 7047     	 bx lr
 491              	 .section .text.EVE_cmd_execute,"ax",%progbits
 492              	 .align 1
 493              	 .global EVE_cmd_execute
 494              	 .thumb
 495              	 .thumb_func
 497              	EVE_cmd_execute:
 498              	 
 499              	 
 500 0000 08B5     	 push {r3,lr}
 501              	.L44:
 502 0002 FFF7FEFF 	 bl EVE_busy
 503 0006 0028     	 cmp r0,#0
 504 0008 FBD1     	 bne .L44
 505 000a 08BD     	 pop {r3,pc}
 507              	 .section .text.EVE_begin_cmd,"ax",%progbits
 508              	 .align 1
 509              	 .global EVE_begin_cmd
 510              	 .thumb
 511              	 .thumb_func
 513              	EVE_begin_cmd:
 514              	 
 515              	 
 516 0000 10B5     	 push {r4,lr}
 517 0002 0446     	 mov r4,r0
 518 0004 FFF7FEFF 	 bl EVE_cs_set
 519 0008 B020     	 movs r0,#176
 520 000a FFF7FEFF 	 bl spi_transmit
 521 000e 2520     	 movs r0,#37
 522 0010 FFF7FEFF 	 bl spi_transmit
 523 0014 7820     	 movs r0,#120
 524 0016 FFF7FEFF 	 bl spi_transmit
 525 001a 2046     	 mov r0,r4
 526 001c BDE81040 	 pop {r4,lr}
 527 0020 FFF7FEBF 	 b spi_transmit_32
 529              	 .section .text.spi_flash_write,"ax",%progbits
 530              	 .align 1
 531              	 .global spi_flash_write
 532              	 .thumb
 533              	 .thumb_func
 535              	spi_flash_write:
 536              	 
 537              	 
 538 0000 70B5     	 push {r4,r5,r6,lr}
 539 0002 4C42     	 negs r4,r1
 540 0004 0139     	 subs r1,r1,#1
 541 0006 04F00304 	 and r4,r4,#3
 542 000a 461E     	 subs r6,r0,#1
 543 000c 4518     	 adds r5,r0,r1
 544              	.L48:
 545 000e AE42     	 cmp r6,r5
 546 0010 04D0     	 beq .L50
 547 0012 16F8010F 	 ldrb r0,[r6,#1]!
 548 0016 FFF7FEFF 	 bl spi_transmit
 549 001a F8E7     	 b .L48
 550              	.L50:
 551 001c 2CB1     	 cbz r4,.L52
 552 001e 0020     	 movs r0,#0
 553 0020 013C     	 subs r4,r4,#1
 554 0022 FFF7FEFF 	 bl spi_transmit
 555 0026 E4B2     	 uxtb r4,r4
 556 0028 F8E7     	 b .L50
 557              	.L52:
 558 002a 70BD     	 pop {r4,r5,r6,pc}
 560              	 .section .text.block_transfer,"ax",%progbits
 561              	 .align 1
 562              	 .global block_transfer
 563              	 .thumb
 564              	 .thumb_func
 566              	block_transfer:
 567              	 
 568              	 
 569 0000 70B5     	 push {r4,r5,r6,lr}
 570 0002 0546     	 mov r5,r0
 571 0004 0C46     	 mov r4,r1
 572              	.L54:
 573 0006 ECB1     	 cbz r4,.L58
 574 0008 B4F5706F 	 cmp r4,#3840
 575 000c 2646     	 mov r6,r4
 576 000e 28BF     	 it cs
 577 0010 4FF47066 	 movcs r6,#3840
 578 0014 FFF7FEFF 	 bl EVE_cs_set
 579 0018 B020     	 movs r0,#176
 580 001a FFF7FEFF 	 bl spi_transmit
 581 001e 2520     	 movs r0,#37
 582 0020 FFF7FEFF 	 bl spi_transmit
 583 0024 7820     	 movs r0,#120
 584 0026 FFF7FEFF 	 bl spi_transmit
 585 002a 2846     	 mov r0,r5
 586 002c B1B2     	 uxth r1,r6
 587 002e FFF7FEFF 	 bl spi_flash_write
 588 0032 FFF7FEFF 	 bl EVE_cs_clear
 589 0036 3544     	 add r5,r5,r6
 590 0038 A41B     	 subs r4,r4,r6
 591              	.L55:
 592 003a FFF7FEFF 	 bl EVE_busy
 593 003e 0028     	 cmp r0,#0
 594 0040 FBD1     	 bne .L55
 595 0042 E0E7     	 b .L54
 596              	.L58:
 597 0044 70BD     	 pop {r4,r5,r6,pc}
 599              	 .section .text.EVE_cmd_flashattach,"ax",%progbits
 600              	 .align 1
 601              	 .global EVE_cmd_flashattach
 602              	 .thumb
 603              	 .thumb_func
 605              	EVE_cmd_flashattach:
 606              	 
 607              	 
 608 0000 08B5     	 push {r3,lr}
 609 0002 6FF0B600 	 mvn r0,#182
 610 0006 FFF7FEFF 	 bl EVE_begin_cmd
 611 000a FFF7FEFF 	 bl EVE_cs_clear
 612              	.L60:
 613 000e FFF7FEFF 	 bl EVE_busy
 614 0012 0028     	 cmp r0,#0
 615 0014 FBD1     	 bne .L60
 616 0016 08BD     	 pop {r3,pc}
 618              	 .section .text.EVE_cmd_flashdetach,"ax",%progbits
 619              	 .align 1
 620              	 .global EVE_cmd_flashdetach
 621              	 .thumb
 622              	 .thumb_func
 624              	EVE_cmd_flashdetach:
 625              	 
 626              	 
 627 0000 08B5     	 push {r3,lr}
 628 0002 6FF0B700 	 mvn r0,#183
 629 0006 FFF7FEFF 	 bl EVE_begin_cmd
 630 000a FFF7FEFF 	 bl EVE_cs_clear
 631              	.L63:
 632 000e FFF7FEFF 	 bl EVE_busy
 633 0012 0028     	 cmp r0,#0
 634 0014 FBD1     	 bne .L63
 635 0016 08BD     	 pop {r3,pc}
 637              	 .section .text.EVE_cmd_flasherase,"ax",%progbits
 638              	 .align 1
 639              	 .global EVE_cmd_flasherase
 640              	 .thumb
 641              	 .thumb_func
 643              	EVE_cmd_flasherase:
 644              	 
 645              	 
 646 0000 08B5     	 push {r3,lr}
 647 0002 6FF0BB00 	 mvn r0,#187
 648 0006 FFF7FEFF 	 bl EVE_begin_cmd
 649 000a FFF7FEFF 	 bl EVE_cs_clear
 650              	.L66:
 651 000e FFF7FEFF 	 bl EVE_busy
 652 0012 0028     	 cmp r0,#0
 653 0014 FBD1     	 bne .L66
 654 0016 08BD     	 pop {r3,pc}
 656              	 .section .text.EVE_cmd_flashfast,"ax",%progbits
 657              	 .align 1
 658              	 .global EVE_cmd_flashfast
 659              	 .thumb
 660              	 .thumb_func
 662              	EVE_cmd_flashfast:
 663              	 
 664              	 
 665 0000 08B5     	 push {r3,lr}
 666 0002 6FF0B500 	 mvn r0,#181
 667 0006 FFF7FEFF 	 bl EVE_begin_cmd
 668 000a 0020     	 movs r0,#0
 669 000c FFF7FEFF 	 bl spi_transmit_32
 670 0010 FFF7FEFF 	 bl EVE_cs_clear
 671              	.L69:
 672 0014 FFF7FEFF 	 bl EVE_busy
 673 0018 0028     	 cmp r0,#0
 674 001a FBD1     	 bne .L69
 675 001c 0548     	 ldr r0,.L71
 676 001e FFF7FEFF 	 bl EVE_memRead16
 677 0022 0438     	 subs r0,r0,#4
 678 0024 C0F30B00 	 ubfx r0,r0,#0,#12
 679 0028 00F54210 	 add r0,r0,#3178496
 680 002c BDE80840 	 pop {r3,lr}
 681 0030 FFF7FEBF 	 b EVE_memRead32
 682              	.L72:
 683              	 .align 2
 684              	.L71:
 685 0034 FC203000 	 .word 3154172
 687              	 .section .text.EVE_cmd_flashspidesel,"ax",%progbits
 688              	 .align 1
 689              	 .global EVE_cmd_flashspidesel
 690              	 .thumb
 691              	 .thumb_func
 693              	EVE_cmd_flashspidesel:
 694              	 
 695              	 
 696 0000 08B5     	 push {r3,lr}
 697 0002 6FF0B400 	 mvn r0,#180
 698 0006 FFF7FEFF 	 bl EVE_begin_cmd
 699 000a FFF7FEFF 	 bl EVE_cs_clear
 700              	.L74:
 701 000e FFF7FEFF 	 bl EVE_busy
 702 0012 0028     	 cmp r0,#0
 703 0014 FBD1     	 bne .L74
 704 0016 08BD     	 pop {r3,pc}
 706              	 .section .text.EVE_cmd_flashread,"ax",%progbits
 707              	 .align 1
 708              	 .global EVE_cmd_flashread
 709              	 .thumb
 710              	 .thumb_func
 712              	EVE_cmd_flashread:
 713              	 
 714              	 
 715 0000 70B5     	 push {r4,r5,r6,lr}
 716 0002 0646     	 mov r6,r0
 717 0004 6FF0B900 	 mvn r0,#185
 718 0008 0D46     	 mov r5,r1
 719 000a 1446     	 mov r4,r2
 720 000c FFF7FEFF 	 bl EVE_begin_cmd
 721 0010 3046     	 mov r0,r6
 722 0012 FFF7FEFF 	 bl spi_transmit_32
 723 0016 2846     	 mov r0,r5
 724 0018 FFF7FEFF 	 bl spi_transmit_32
 725 001c 2046     	 mov r0,r4
 726 001e FFF7FEFF 	 bl spi_transmit_32
 727 0022 FFF7FEFF 	 bl EVE_cs_clear
 728              	.L77:
 729 0026 FFF7FEFF 	 bl EVE_busy
 730 002a 0028     	 cmp r0,#0
 731 002c FBD1     	 bne .L77
 732 002e 70BD     	 pop {r4,r5,r6,pc}
 734              	 .section .text.EVE_cmd_flashsource,"ax",%progbits
 735              	 .align 1
 736              	 .global EVE_cmd_flashsource
 737              	 .thumb
 738              	 .thumb_func
 740              	EVE_cmd_flashsource:
 741              	 
 742              	 
 743 0000 10B5     	 push {r4,lr}
 744 0002 0446     	 mov r4,r0
 745 0004 6FF0B100 	 mvn r0,#177
 746 0008 FFF7FEFF 	 bl EVE_begin_cmd
 747 000c 2046     	 mov r0,r4
 748 000e FFF7FEFF 	 bl spi_transmit_32
 749 0012 FFF7FEFF 	 bl EVE_cs_clear
 750              	.L80:
 751 0016 FFF7FEFF 	 bl EVE_busy
 752 001a 0028     	 cmp r0,#0
 753 001c FBD1     	 bne .L80
 754 001e 10BD     	 pop {r4,pc}
 756              	 .section .text.EVE_cmd_flashspirx,"ax",%progbits
 757              	 .align 1
 758              	 .global EVE_cmd_flashspirx
 759              	 .thumb
 760              	 .thumb_func
 762              	EVE_cmd_flashspirx:
 763              	 
 764              	 
 765 0000 38B5     	 push {r3,r4,r5,lr}
 766 0002 0546     	 mov r5,r0
 767 0004 6FF0B900 	 mvn r0,#185
 768 0008 0C46     	 mov r4,r1
 769 000a FFF7FEFF 	 bl EVE_begin_cmd
 770 000e 2846     	 mov r0,r5
 771 0010 FFF7FEFF 	 bl spi_transmit_32
 772 0014 2046     	 mov r0,r4
 773 0016 FFF7FEFF 	 bl spi_transmit_32
 774 001a FFF7FEFF 	 bl EVE_cs_clear
 775              	.L83:
 776 001e FFF7FEFF 	 bl EVE_busy
 777 0022 0028     	 cmp r0,#0
 778 0024 FBD1     	 bne .L83
 779 0026 38BD     	 pop {r3,r4,r5,pc}
 781              	 .section .text.EVE_cmd_flashspitx,"ax",%progbits
 782              	 .align 1
 783              	 .global EVE_cmd_flashspitx
 784              	 .thumb
 785              	 .thumb_func
 787              	EVE_cmd_flashspitx:
 788              	 
 789              	 
 790 0000 38B5     	 push {r3,r4,r5,lr}
 791 0002 0446     	 mov r4,r0
 792 0004 6FF0B300 	 mvn r0,#179
 793 0008 0D46     	 mov r5,r1
 794 000a FFF7FEFF 	 bl EVE_begin_cmd
 795 000e 2046     	 mov r0,r4
 796 0010 FFF7FEFF 	 bl spi_transmit_32
 797 0014 FFF7FEFF 	 bl EVE_cs_clear
 798 0018 2846     	 mov r0,r5
 799 001a 2146     	 mov r1,r4
 800 001c BDE83840 	 pop {r3,r4,r5,lr}
 801 0020 FFF7FEBF 	 b block_transfer
 803              	 .section .text.EVE_cmd_flashupdate,"ax",%progbits
 804              	 .align 1
 805              	 .global EVE_cmd_flashupdate
 806              	 .thumb
 807              	 .thumb_func
 809              	EVE_cmd_flashupdate:
 810              	 
 811              	 
 812 0000 70B5     	 push {r4,r5,r6,lr}
 813 0002 0646     	 mov r6,r0
 814 0004 6FF0B800 	 mvn r0,#184
 815 0008 0D46     	 mov r5,r1
 816 000a 1446     	 mov r4,r2
 817 000c FFF7FEFF 	 bl EVE_begin_cmd
 818 0010 3046     	 mov r0,r6
 819 0012 FFF7FEFF 	 bl spi_transmit_32
 820 0016 2846     	 mov r0,r5
 821 0018 FFF7FEFF 	 bl spi_transmit_32
 822 001c 2046     	 mov r0,r4
 823 001e FFF7FEFF 	 bl spi_transmit_32
 824 0022 FFF7FEFF 	 bl EVE_cs_clear
 825              	.L87:
 826 0026 FFF7FEFF 	 bl EVE_busy
 827 002a 0028     	 cmp r0,#0
 828 002c FBD1     	 bne .L87
 829 002e 70BD     	 pop {r4,r5,r6,pc}
 831              	 .section .text.EVE_cmd_flashwrite,"ax",%progbits
 832              	 .align 1
 833              	 .global EVE_cmd_flashwrite
 834              	 .thumb
 835              	 .thumb_func
 837              	EVE_cmd_flashwrite:
 838              	 
 839              	 
 840 0000 70B5     	 push {r4,r5,r6,lr}
 841 0002 0646     	 mov r6,r0
 842 0004 6FF0BA00 	 mvn r0,#186
 843 0008 0C46     	 mov r4,r1
 844 000a 1546     	 mov r5,r2
 845 000c FFF7FEFF 	 bl EVE_begin_cmd
 846 0010 3046     	 mov r0,r6
 847 0012 FFF7FEFF 	 bl spi_transmit_32
 848 0016 2046     	 mov r0,r4
 849 0018 FFF7FEFF 	 bl spi_transmit_32
 850 001c FFF7FEFF 	 bl EVE_cs_clear
 851 0020 2DB1     	 cbz r5,.L89
 852 0022 2846     	 mov r0,r5
 853 0024 2146     	 mov r1,r4
 854 0026 BDE87040 	 pop {r4,r5,r6,lr}
 855 002a FFF7FEBF 	 b block_transfer
 856              	.L89:
 857 002e 70BD     	 pop {r4,r5,r6,pc}
 859              	 .section .text.EVE_cmd_inflate2,"ax",%progbits
 860              	 .align 1
 861              	 .global EVE_cmd_inflate2
 862              	 .thumb
 863              	 .thumb_func
 865              	EVE_cmd_inflate2:
 866              	 
 867              	 
 868 0000 F8B5     	 push {r3,r4,r5,r6,r7,lr}
 869 0002 0746     	 mov r7,r0
 870 0004 6FF0AF00 	 mvn r0,#175
 871 0008 0D46     	 mov r5,r1
 872 000a 1446     	 mov r4,r2
 873 000c 1E46     	 mov r6,r3
 874 000e FFF7FEFF 	 bl EVE_begin_cmd
 875 0012 3846     	 mov r0,r7
 876 0014 FFF7FEFF 	 bl spi_transmit_32
 877 0018 2846     	 mov r0,r5
 878 001a FFF7FEFF 	 bl spi_transmit_32
 879 001e FFF7FEFF 	 bl EVE_cs_clear
 880 0022 35B9     	 cbnz r5,.L91
 881 0024 2CB1     	 cbz r4,.L91
 882 0026 2046     	 mov r0,r4
 883 0028 3146     	 mov r1,r6
 884 002a BDE8F840 	 pop {r3,r4,r5,r6,r7,lr}
 885 002e FFF7FEBF 	 b block_transfer
 886              	.L91:
 887 0032 F8BD     	 pop {r3,r4,r5,r6,r7,pc}
 889              	 .section .text.EVE_cmd_getprops,"ax",%progbits
 890              	 .align 1
 891              	 .global EVE_cmd_getprops
 892              	 .thumb
 893              	 .thumb_func
 895              	EVE_cmd_getprops:
 896              	 
 897              	 
 898 0000 F8B5     	 push {r3,r4,r5,r6,r7,lr}
 899 0002 0746     	 mov r7,r0
 900 0004 6FF0DA00 	 mvn r0,#218
 901 0008 0E46     	 mov r6,r1
 902 000a 1546     	 mov r5,r2
 903 000c FFF7FEFF 	 bl EVE_begin_cmd
 904 0010 0020     	 movs r0,#0
 905 0012 FFF7FEFF 	 bl spi_transmit_32
 906 0016 0020     	 movs r0,#0
 907 0018 FFF7FEFF 	 bl spi_transmit_32
 908 001c 0020     	 movs r0,#0
 909 001e FFF7FEFF 	 bl spi_transmit_32
 910 0022 FFF7FEFF 	 bl EVE_cs_clear
 911              	.L97:
 912 0026 FFF7FEFF 	 bl EVE_busy
 913 002a 0028     	 cmp r0,#0
 914 002c FBD1     	 bne .L97
 915 002e 1048     	 ldr r0,.L111
 916 0030 FFF7FEFF 	 bl EVE_memRead16
 917 0034 0446     	 mov r4,r0
 918 0036 3FB1     	 cbz r7,.L98
 919 0038 0C38     	 subs r0,r0,#12
 920 003a C0F30B00 	 ubfx r0,r0,#0,#12
 921 003e 00F54210 	 add r0,r0,#3178496
 922 0042 FFF7FEFF 	 bl EVE_memRead32
 923 0046 3860     	 str r0,[r7]
 924              	.L98:
 925 0048 46B1     	 cbz r6,.L99
 926 004a A4F10800 	 sub r0,r4,#8
 927 004e C0F30B00 	 ubfx r0,r0,#0,#12
 928 0052 00F54210 	 add r0,r0,#3178496
 929 0056 FFF7FEFF 	 bl EVE_memRead32
 930 005a 3060     	 str r0,[r6]
 931              	.L99:
 932 005c 3DB1     	 cbz r5,.L96
 933 005e 201F     	 subs r0,r4,#4
 934 0060 C0F30B00 	 ubfx r0,r0,#0,#12
 935 0064 00F54210 	 add r0,r0,#3178496
 936 0068 FFF7FEFF 	 bl EVE_memRead32
 937 006c 2860     	 str r0,[r5]
 938              	.L96:
 939 006e F8BD     	 pop {r3,r4,r5,r6,r7,pc}
 940              	.L112:
 941              	 .align 2
 942              	.L111:
 943 0070 FC203000 	 .word 3154172
 945              	 .section .text.EVE_cmd_getptr,"ax",%progbits
 946              	 .align 1
 947              	 .global EVE_cmd_getptr
 948              	 .thumb
 949              	 .thumb_func
 951              	EVE_cmd_getptr:
 952              	 
 953              	 
 954 0000 08B5     	 push {r3,lr}
 955 0002 6FF0DC00 	 mvn r0,#220
 956 0006 FFF7FEFF 	 bl EVE_begin_cmd
 957 000a 0020     	 movs r0,#0
 958 000c FFF7FEFF 	 bl spi_transmit_32
 959 0010 FFF7FEFF 	 bl EVE_cs_clear
 960              	.L114:
 961 0014 FFF7FEFF 	 bl EVE_busy
 962 0018 0028     	 cmp r0,#0
 963 001a FBD1     	 bne .L114
 964 001c 0548     	 ldr r0,.L116
 965 001e FFF7FEFF 	 bl EVE_memRead16
 966 0022 0438     	 subs r0,r0,#4
 967 0024 C0F30B00 	 ubfx r0,r0,#0,#12
 968 0028 00F54210 	 add r0,r0,#3178496
 969 002c BDE80840 	 pop {r3,lr}
 970 0030 FFF7FEBF 	 b EVE_memRead32
 971              	.L117:
 972              	 .align 2
 973              	.L116:
 974 0034 FC203000 	 .word 3154172
 976              	 .section .text.EVE_cmd_inflate,"ax",%progbits
 977              	 .align 1
 978              	 .global EVE_cmd_inflate
 979              	 .thumb
 980              	 .thumb_func
 982              	EVE_cmd_inflate:
 983              	 
 984              	 
 985 0000 70B5     	 push {r4,r5,r6,lr}
 986 0002 0646     	 mov r6,r0
 987 0004 6FF0DD00 	 mvn r0,#221
 988 0008 0C46     	 mov r4,r1
 989 000a 1546     	 mov r5,r2
 990 000c FFF7FEFF 	 bl EVE_begin_cmd
 991 0010 3046     	 mov r0,r6
 992 0012 FFF7FEFF 	 bl spi_transmit_32
 993 0016 FFF7FEFF 	 bl EVE_cs_clear
 994 001a 2CB1     	 cbz r4,.L118
 995 001c 2046     	 mov r0,r4
 996 001e 2946     	 mov r1,r5
 997 0020 BDE87040 	 pop {r4,r5,r6,lr}
 998 0024 FFF7FEBF 	 b block_transfer
 999              	.L118:
 1000 0028 70BD     	 pop {r4,r5,r6,pc}
 1002              	 .section .text.EVE_cmd_interrupt,"ax",%progbits
 1003              	 .align 1
 1004              	 .global EVE_cmd_interrupt
 1005              	 .thumb
 1006              	 .thumb_func
 1008              	EVE_cmd_interrupt:
 1009              	 
 1010              	 
 1011 0000 10B5     	 push {r4,lr}
 1012 0002 0446     	 mov r4,r0
 1013 0004 6FF0FD00 	 mvn r0,#253
 1014 0008 FFF7FEFF 	 bl EVE_begin_cmd
 1015 000c 2046     	 mov r0,r4
 1016 000e FFF7FEFF 	 bl spi_transmit_32
 1017 0012 BDE81040 	 pop {r4,lr}
 1018 0016 FFF7FEBF 	 b EVE_cs_clear
 1020              	 .section .text.EVE_cmd_loadimage,"ax",%progbits
 1021              	 .align 1
 1022              	 .global EVE_cmd_loadimage
 1023              	 .thumb
 1024              	 .thumb_func
 1026              	EVE_cmd_loadimage:
 1027              	 
 1028              	 
 1029 0000 F8B5     	 push {r3,r4,r5,r6,r7,lr}
 1030 0002 0746     	 mov r7,r0
 1031 0004 6FF0DB00 	 mvn r0,#219
 1032 0008 0D46     	 mov r5,r1
 1033 000a 1446     	 mov r4,r2
 1034 000c 1E46     	 mov r6,r3
 1035 000e FFF7FEFF 	 bl EVE_begin_cmd
 1036 0012 3846     	 mov r0,r7
 1037 0014 FFF7FEFF 	 bl spi_transmit_32
 1038 0018 2846     	 mov r0,r5
 1039 001a FFF7FEFF 	 bl spi_transmit_32
 1040 001e FFF7FEFF 	 bl EVE_cs_clear
 1041 0022 15F0500F 	 tst r5,#80
 1042 0026 06D1     	 bne .L121
 1043 0028 2CB1     	 cbz r4,.L121
 1044 002a 2046     	 mov r0,r4
 1045 002c 3146     	 mov r1,r6
 1046 002e BDE8F840 	 pop {r3,r4,r5,r6,r7,lr}
 1047 0032 FFF7FEBF 	 b block_transfer
 1048              	.L121:
 1049 0036 F8BD     	 pop {r3,r4,r5,r6,r7,pc}
 1051              	 .section .text.EVE_cmd_mediafifo,"ax",%progbits
 1052              	 .align 1
 1053              	 .global EVE_cmd_mediafifo
 1054              	 .thumb
 1055              	 .thumb_func
 1057              	EVE_cmd_mediafifo:
 1058              	 
 1059              	 
 1060 0000 38B5     	 push {r3,r4,r5,lr}
 1061 0002 0546     	 mov r5,r0
 1062 0004 6FF0C600 	 mvn r0,#198
 1063 0008 0C46     	 mov r4,r1
 1064 000a FFF7FEFF 	 bl EVE_begin_cmd
 1065 000e 2846     	 mov r0,r5
 1066 0010 FFF7FEFF 	 bl spi_transmit_32
 1067 0014 2046     	 mov r0,r4
 1068 0016 FFF7FEFF 	 bl spi_transmit_32
 1069 001a BDE83840 	 pop {r3,r4,r5,lr}
 1070 001e FFF7FEBF 	 b EVE_cs_clear
 1072              	 .section .text.EVE_cmd_memcpy,"ax",%progbits
 1073              	 .align 1
 1074              	 .global EVE_cmd_memcpy
 1075              	 .thumb
 1076              	 .thumb_func
 1078              	EVE_cmd_memcpy:
 1079              	 
 1080              	 
 1081 0000 70B5     	 push {r4,r5,r6,lr}
 1082 0002 0646     	 mov r6,r0
 1083 0004 6FF0E200 	 mvn r0,#226
 1084 0008 0D46     	 mov r5,r1
 1085 000a 1446     	 mov r4,r2
 1086 000c FFF7FEFF 	 bl EVE_begin_cmd
 1087 0010 3046     	 mov r0,r6
 1088 0012 FFF7FEFF 	 bl spi_transmit_32
 1089 0016 2846     	 mov r0,r5
 1090 0018 FFF7FEFF 	 bl spi_transmit_32
 1091 001c 2046     	 mov r0,r4
 1092 001e FFF7FEFF 	 bl spi_transmit_32
 1093 0022 FFF7FEFF 	 bl EVE_cs_clear
 1094              	.L128:
 1095 0026 FFF7FEFF 	 bl EVE_busy
 1096 002a 0028     	 cmp r0,#0
 1097 002c FBD1     	 bne .L128
 1098 002e 70BD     	 pop {r4,r5,r6,pc}
 1100              	 .section .text.EVE_cmd_memcrc,"ax",%progbits
 1101              	 .align 1
 1102              	 .global EVE_cmd_memcrc
 1103              	 .thumb
 1104              	 .thumb_func
 1106              	EVE_cmd_memcrc:
 1107              	 
 1108              	 
 1109 0000 38B5     	 push {r3,r4,r5,lr}
 1110 0002 0546     	 mov r5,r0
 1111 0004 6FF0E700 	 mvn r0,#231
 1112 0008 0C46     	 mov r4,r1
 1113 000a FFF7FEFF 	 bl EVE_begin_cmd
 1114 000e 2846     	 mov r0,r5
 1115 0010 FFF7FEFF 	 bl spi_transmit_32
 1116 0014 2046     	 mov r0,r4
 1117 0016 FFF7FEFF 	 bl spi_transmit_32
 1118 001a 0020     	 movs r0,#0
 1119 001c FFF7FEFF 	 bl spi_transmit_32
 1120 0020 FFF7FEFF 	 bl EVE_cs_clear
 1121              	.L131:
 1122 0024 FFF7FEFF 	 bl EVE_busy
 1123 0028 0028     	 cmp r0,#0
 1124 002a FBD1     	 bne .L131
 1125 002c 0548     	 ldr r0,.L133
 1126 002e FFF7FEFF 	 bl EVE_memRead16
 1127 0032 0438     	 subs r0,r0,#4
 1128 0034 C0F30B00 	 ubfx r0,r0,#0,#12
 1129 0038 00F54210 	 add r0,r0,#3178496
 1130 003c BDE83840 	 pop {r3,r4,r5,lr}
 1131 0040 FFF7FEBF 	 b EVE_memRead32
 1132              	.L134:
 1133              	 .align 2
 1134              	.L133:
 1135 0044 FC203000 	 .word 3154172
 1137              	 .section .text.EVE_cmd_memset,"ax",%progbits
 1138              	 .align 1
 1139              	 .global EVE_cmd_memset
 1140              	 .thumb
 1141              	 .thumb_func
 1143              	EVE_cmd_memset:
 1144              	 
 1145              	 
 1146 0000 70B5     	 push {r4,r5,r6,lr}
 1147 0002 0646     	 mov r6,r0
 1148 0004 6FF0E400 	 mvn r0,#228
 1149 0008 0D46     	 mov r5,r1
 1150 000a 1446     	 mov r4,r2
 1151 000c FFF7FEFF 	 bl EVE_begin_cmd
 1152 0010 3046     	 mov r0,r6
 1153 0012 FFF7FEFF 	 bl spi_transmit_32
 1154 0016 2846     	 mov r0,r5
 1155 0018 FFF7FEFF 	 bl spi_transmit_32
 1156 001c 2046     	 mov r0,r4
 1157 001e FFF7FEFF 	 bl spi_transmit_32
 1158 0022 BDE87040 	 pop {r4,r5,r6,lr}
 1159 0026 FFF7FEBF 	 b EVE_cs_clear
 1161              	 .section .text.EVE_cmd_memzero,"ax",%progbits
 1162              	 .align 1
 1163              	 .global EVE_cmd_memzero
 1164              	 .thumb
 1165              	 .thumb_func
 1167              	EVE_cmd_memzero:
 1168              	 
 1169              	 
 1170 0000 38B5     	 push {r3,r4,r5,lr}
 1171 0002 0546     	 mov r5,r0
 1172 0004 6FF0E300 	 mvn r0,#227
 1173 0008 0C46     	 mov r4,r1
 1174 000a FFF7FEFF 	 bl EVE_begin_cmd
 1175 000e 2846     	 mov r0,r5
 1176 0010 FFF7FEFF 	 bl spi_transmit_32
 1177 0014 2046     	 mov r0,r4
 1178 0016 FFF7FEFF 	 bl spi_transmit_32
 1179 001a FFF7FEFF 	 bl EVE_cs_clear
 1180              	.L137:
 1181 001e FFF7FEFF 	 bl EVE_busy
 1182 0022 0028     	 cmp r0,#0
 1183 0024 FBD1     	 bne .L137
 1184 0026 38BD     	 pop {r3,r4,r5,pc}
 1186              	 .section .text.EVE_cmd_playvideo,"ax",%progbits
 1187              	 .align 1
 1188              	 .global EVE_cmd_playvideo
 1189              	 .thumb
 1190              	 .thumb_func
 1192              	EVE_cmd_playvideo:
 1193              	 
 1194              	 
 1195 0000 70B5     	 push {r4,r5,r6,lr}
 1196 0002 0546     	 mov r5,r0
 1197 0004 6FF0C500 	 mvn r0,#197
 1198 0008 0C46     	 mov r4,r1
 1199 000a 1646     	 mov r6,r2
 1200 000c FFF7FEFF 	 bl EVE_begin_cmd
 1201 0010 2846     	 mov r0,r5
 1202 0012 FFF7FEFF 	 bl spi_transmit_32
 1203 0016 FFF7FEFF 	 bl EVE_cs_clear
 1204 001a 15F0500F 	 tst r5,#80
 1205 001e 06D1     	 bne .L139
 1206 0020 2CB1     	 cbz r4,.L139
 1207 0022 2046     	 mov r0,r4
 1208 0024 3146     	 mov r1,r6
 1209 0026 BDE87040 	 pop {r4,r5,r6,lr}
 1210 002a FFF7FEBF 	 b block_transfer
 1211              	.L139:
 1212 002e 70BD     	 pop {r4,r5,r6,pc}
 1214              	 .section .text.EVE_cmd_regread,"ax",%progbits
 1215              	 .align 1
 1216              	 .global EVE_cmd_regread
 1217              	 .thumb
 1218              	 .thumb_func
 1220              	EVE_cmd_regread:
 1221              	 
 1222              	 
 1223 0000 10B5     	 push {r4,lr}
 1224 0002 0446     	 mov r4,r0
 1225 0004 6FF0E600 	 mvn r0,#230
 1226 0008 FFF7FEFF 	 bl EVE_begin_cmd
 1227 000c 2046     	 mov r0,r4
 1228 000e FFF7FEFF 	 bl spi_transmit_32
 1229 0012 0020     	 movs r0,#0
 1230 0014 FFF7FEFF 	 bl spi_transmit_32
 1231 0018 FFF7FEFF 	 bl EVE_cs_clear
 1232              	.L145:
 1233 001c FFF7FEFF 	 bl EVE_busy
 1234 0020 0028     	 cmp r0,#0
 1235 0022 FBD1     	 bne .L145
 1236 0024 0548     	 ldr r0,.L147
 1237 0026 FFF7FEFF 	 bl EVE_memRead16
 1238 002a 0438     	 subs r0,r0,#4
 1239 002c C0F30B00 	 ubfx r0,r0,#0,#12
 1240 0030 00F54210 	 add r0,r0,#3178496
 1241 0034 BDE81040 	 pop {r4,lr}
 1242 0038 FFF7FEBF 	 b EVE_memRead32
 1243              	.L148:
 1244              	 .align 2
 1245              	.L147:
 1246 003c FC203000 	 .word 3154172
 1248              	 .section .text.EVE_cmd_setrotate,"ax",%progbits
 1249              	 .align 1
 1250              	 .global EVE_cmd_setrotate
 1251              	 .thumb
 1252              	 .thumb_func
 1254              	EVE_cmd_setrotate:
 1255              	 
 1256              	 
 1257 0000 10B5     	 push {r4,lr}
 1258 0002 0446     	 mov r4,r0
 1259 0004 6FF0C900 	 mvn r0,#201
 1260 0008 FFF7FEFF 	 bl EVE_begin_cmd
 1261 000c 2046     	 mov r0,r4
 1262 000e FFF7FEFF 	 bl spi_transmit_32
 1263 0012 FFF7FEFF 	 bl EVE_cs_clear
 1264              	.L150:
 1265 0016 FFF7FEFF 	 bl EVE_busy
 1266 001a 0028     	 cmp r0,#0
 1267 001c FBD1     	 bne .L150
 1268 001e 10BD     	 pop {r4,pc}
 1270              	 .section .text.EVE_cmd_snapshot,"ax",%progbits
 1271              	 .align 1
 1272              	 .global EVE_cmd_snapshot
 1273              	 .thumb
 1274              	 .thumb_func
 1276              	EVE_cmd_snapshot:
 1277              	 
 1278              	 
 1279 0000 10B5     	 push {r4,lr}
 1280 0002 0446     	 mov r4,r0
 1281 0004 6FF0E000 	 mvn r0,#224
 1282 0008 FFF7FEFF 	 bl EVE_begin_cmd
 1283 000c 2046     	 mov r0,r4
 1284 000e FFF7FEFF 	 bl spi_transmit_32
 1285 0012 FFF7FEFF 	 bl EVE_cs_clear
 1286              	.L153:
 1287 0016 FFF7FEFF 	 bl EVE_busy
 1288 001a 0028     	 cmp r0,#0
 1289 001c FBD1     	 bne .L153
 1290 001e 10BD     	 pop {r4,pc}
 1292              	 .section .text.EVE_cmd_snapshot2,"ax",%progbits
 1293              	 .align 1
 1294              	 .global EVE_cmd_snapshot2
 1295              	 .thumb
 1296              	 .thumb_func
 1298              	EVE_cmd_snapshot2:
 1299              	 
 1300              	 
 1301 0000 2DE9F843 	 push {r3,r4,r5,r6,r7,r8,r9,lr}
 1302 0004 8146     	 mov r9,r0
 1303 0006 6FF0C800 	 mvn r0,#200
 1304 000a 1746     	 mov r7,r2
 1305 000c 1E46     	 mov r6,r3
 1306 000e 8846     	 mov r8,r1
 1307 0010 BDF92050 	 ldrsh r5,[sp,#32]
 1308 0014 BDF92440 	 ldrsh r4,[sp,#36]
 1309 0018 FFF7FEFF 	 bl EVE_begin_cmd
 1310 001c 4846     	 mov r0,r9
 1311 001e FFF7FEFF 	 bl spi_transmit_32
 1312 0022 4046     	 mov r0,r8
 1313 0024 FFF7FEFF 	 bl spi_transmit_32
 1314 0028 F8B2     	 uxtb r0,r7
 1315 002a FFF7FEFF 	 bl spi_transmit
 1316 002e C7F30720 	 ubfx r0,r7,#8,#8
 1317 0032 FFF7FEFF 	 bl spi_transmit
 1318 0036 F0B2     	 uxtb r0,r6
 1319 0038 FFF7FEFF 	 bl spi_transmit
 1320 003c C6F30720 	 ubfx r0,r6,#8,#8
 1321 0040 FFF7FEFF 	 bl spi_transmit
 1322 0044 E8B2     	 uxtb r0,r5
 1323 0046 FFF7FEFF 	 bl spi_transmit
 1324 004a C5F30720 	 ubfx r0,r5,#8,#8
 1325 004e FFF7FEFF 	 bl spi_transmit
 1326 0052 E0B2     	 uxtb r0,r4
 1327 0054 FFF7FEFF 	 bl spi_transmit
 1328 0058 C4F30720 	 ubfx r0,r4,#8,#8
 1329 005c FFF7FEFF 	 bl spi_transmit
 1330 0060 FFF7FEFF 	 bl EVE_cs_clear
 1331              	.L156:
 1332 0064 FFF7FEFF 	 bl EVE_busy
 1333 0068 0028     	 cmp r0,#0
 1334 006a FBD1     	 bne .L156
 1335 006c BDE8F883 	 pop {r3,r4,r5,r6,r7,r8,r9,pc}
 1337              	 .section .text.EVE_cmd_track,"ax",%progbits
 1338              	 .align 1
 1339              	 .global EVE_cmd_track
 1340              	 .thumb
 1341              	 .thumb_func
 1343              	EVE_cmd_track:
 1344              	 
 1345              	 
 1346 0000 2DE9F041 	 push {r4,r5,r6,r7,r8,lr}
 1347 0004 8046     	 mov r8,r0
 1348 0006 6FF0D300 	 mvn r0,#211
 1349 000a 0F46     	 mov r7,r1
 1350 000c 1646     	 mov r6,r2
 1351 000e 1D46     	 mov r5,r3
 1352 0010 BDF91840 	 ldrsh r4,[sp,#24]
 1353 0014 FFF7FEFF 	 bl EVE_begin_cmd
 1354 0018 5FFA88F0 	 uxtb r0,r8
 1355 001c FFF7FEFF 	 bl spi_transmit
 1356 0020 C8F30720 	 ubfx r0,r8,#8,#8
 1357 0024 FFF7FEFF 	 bl spi_transmit
 1358 0028 F8B2     	 uxtb r0,r7
 1359 002a FFF7FEFF 	 bl spi_transmit
 1360 002e C7F30720 	 ubfx r0,r7,#8,#8
 1361 0032 FFF7FEFF 	 bl spi_transmit
 1362 0036 F0B2     	 uxtb r0,r6
 1363 0038 FFF7FEFF 	 bl spi_transmit
 1364 003c C6F30720 	 ubfx r0,r6,#8,#8
 1365 0040 FFF7FEFF 	 bl spi_transmit
 1366 0044 E8B2     	 uxtb r0,r5
 1367 0046 FFF7FEFF 	 bl spi_transmit
 1368 004a C5F30720 	 ubfx r0,r5,#8,#8
 1369 004e FFF7FEFF 	 bl spi_transmit
 1370 0052 E0B2     	 uxtb r0,r4
 1371 0054 FFF7FEFF 	 bl spi_transmit
 1372 0058 C4F30720 	 ubfx r0,r4,#8,#8
 1373 005c FFF7FEFF 	 bl spi_transmit
 1374 0060 0020     	 movs r0,#0
 1375 0062 FFF7FEFF 	 bl spi_transmit
 1376 0066 0020     	 movs r0,#0
 1377 0068 FFF7FEFF 	 bl spi_transmit
 1378 006c FFF7FEFF 	 bl EVE_cs_clear
 1379              	.L159:
 1380 0070 FFF7FEFF 	 bl EVE_busy
 1381 0074 0028     	 cmp r0,#0
 1382 0076 FBD1     	 bne .L159
 1383 0078 BDE8F081 	 pop {r4,r5,r6,r7,r8,pc}
 1385              	 .section .text.EVE_cmd_videoframe,"ax",%progbits
 1386              	 .align 1
 1387              	 .global EVE_cmd_videoframe
 1388              	 .thumb
 1389              	 .thumb_func
 1391              	EVE_cmd_videoframe:
 1392              	 
 1393              	 
 1394 0000 38B5     	 push {r3,r4,r5,lr}
 1395 0002 0546     	 mov r5,r0
 1396 0004 6FF0BE00 	 mvn r0,#190
 1397 0008 0C46     	 mov r4,r1
 1398 000a FFF7FEFF 	 bl EVE_begin_cmd
 1399 000e 2846     	 mov r0,r5
 1400 0010 FFF7FEFF 	 bl spi_transmit_32
 1401 0014 2046     	 mov r0,r4
 1402 0016 FFF7FEFF 	 bl spi_transmit_32
 1403 001a FFF7FEFF 	 bl EVE_cs_clear
 1404              	.L162:
 1405 001e FFF7FEFF 	 bl EVE_busy
 1406 0022 0028     	 cmp r0,#0
 1407 0024 FBD1     	 bne .L162
 1408 0026 38BD     	 pop {r3,r4,r5,pc}
 1410              	 .section .text.EVE_init,"ax",%progbits
 1411              	 .align 1
 1412              	 .global EVE_init
 1413              	 .thumb
 1414              	 .thumb_func
 1416              	EVE_init:
 1417              	 
 1418              	 
 1419 0000 38B5     	 push {r3,r4,r5,lr}
 1420 0002 6A4B     	 ldr r3,.L178
 1421 0004 1D7C     	 ldrb r5,[r3,#16]
 1422 0006 1C68     	 ldr r4,[r3]
 1423 0008 4FF48033 	 mov r3,#65536
 1424 000c AB40     	 lsls r3,r3,r5
 1425 000e 6360     	 str r3,[r4,#4]
 1426 0010 0620     	 movs r0,#6
 1427 0012 FFF7FEFF 	 bl delay_ms
 1428 0016 0123     	 movs r3,#1
 1429 0018 AB40     	 lsls r3,r3,r5
 1430 001a 6360     	 str r3,[r4,#4]
 1431 001c 1520     	 movs r0,#21
 1432 001e FFF7FEFF 	 bl delay_ms
 1433 0022 4420     	 movs r0,#68
 1434 0024 0021     	 movs r1,#0
 1435 0026 FFF7FEFF 	 bl EVE_cmdWrite
 1436 002a 6120     	 movs r0,#97
 1437 002c 4621     	 movs r1,#70
 1438 002e FFF7FEFF 	 bl EVE_cmdWrite
 1439 0032 0020     	 movs r0,#0
 1440 0034 0146     	 mov r1,r0
 1441 0036 FFF7FEFF 	 bl EVE_cmdWrite
 1442 003a 2820     	 movs r0,#40
 1443 003c FFF7FEFF 	 bl delay_ms
 1444 0040 40F29114 	 movw r4,#401
 1445              	.L167:
 1446 0044 0120     	 movs r0,#1
 1447 0046 FFF7FEFF 	 bl delay_ms
 1448 004a 5948     	 ldr r0,.L178+4
 1449 004c FFF7FEFF 	 bl EVE_memRead8
 1450 0050 013C     	 subs r4,r4,#1
 1451 0052 A4B2     	 uxth r4,r4
 1452 0054 0146     	 mov r1,r0
 1453 0056 1CB9     	 cbnz r4,.L165
 1454 0058 5648     	 ldr r0,.L178+8
 1455 005a FFF7FEFF 	 bl printf
 1456 005e 16E0     	 b .L176
 1457              	.L165:
 1458 0060 7C28     	 cmp r0,#124
 1459 0062 EFD1     	 bne .L167
 1460 0064 5448     	 ldr r0,.L178+12
 1461 0066 FFF7FEFF 	 bl printf
 1462 006a 40F2F514 	 movw r4,#501
 1463              	.L168:
 1464 006e 5348     	 ldr r0,.L178+16
 1465 0070 FFF7FEFF 	 bl EVE_memRead8
 1466 0074 10F00305 	 ands r5,r0,#3
 1467 0078 0BD0     	 beq .L177
 1468 007a 013C     	 subs r4,r4,#1
 1469 007c 0120     	 movs r0,#1
 1470 007e A4B2     	 uxth r4,r4
 1471 0080 FFF7FEFF 	 bl delay_ms
 1472 0084 002C     	 cmp r4,#0
 1473 0086 F2D1     	 bne .L168
 1474 0088 4D48     	 ldr r0,.L178+20
 1475 008a FFF7FEFF 	 bl puts
 1476              	.L176:
 1477 008e 2046     	 mov r0,r4
 1478 0090 38BD     	 pop {r3,r4,r5,pc}
 1479              	.L177:
 1480 0092 4C48     	 ldr r0,.L178+24
 1481 0094 FFF7FEFF 	 bl puts
 1482 0098 4B48     	 ldr r0,.L178+28
 1483 009a 4C49     	 ldr r1,.L178+32
 1484 009c FFF7FEFF 	 bl EVE_memWrite32
 1485 00a0 4B48     	 ldr r0,.L178+36
 1486 00a2 2946     	 mov r1,r5
 1487 00a4 FFF7FEFF 	 bl EVE_memWrite8
 1488 00a8 4A48     	 ldr r0,.L178+40
 1489 00aa 4FF4F071 	 mov r1,#480
 1490 00ae FFF7FEFF 	 bl EVE_memWrite16
 1491 00b2 4948     	 ldr r0,.L178+44
 1492 00b4 4FF40971 	 mov r1,#548
 1493 00b8 FFF7FEFF 	 bl EVE_memWrite16
 1494 00bc 4748     	 ldr r0,.L178+48
 1495 00be 2B21     	 movs r1,#43
 1496 00c0 FFF7FEFF 	 bl EVE_memWrite16
 1497 00c4 4648     	 ldr r0,.L178+52
 1498 00c6 2946     	 mov r1,r5
 1499 00c8 FFF7FEFF 	 bl EVE_memWrite16
 1500 00cc 4548     	 ldr r0,.L178+56
 1501 00ce 2921     	 movs r1,#41
 1502 00d0 FFF7FEFF 	 bl EVE_memWrite16
 1503 00d4 4448     	 ldr r0,.L178+60
 1504 00d6 4FF48871 	 mov r1,#272
 1505 00da FFF7FEFF 	 bl EVE_memWrite16
 1506 00de 4348     	 ldr r0,.L178+64
 1507 00e0 4FF49271 	 mov r1,#292
 1508 00e4 FFF7FEFF 	 bl EVE_memWrite16
 1509 00e8 4148     	 ldr r0,.L178+68
 1510 00ea 0C21     	 movs r1,#12
 1511 00ec FFF7FEFF 	 bl EVE_memWrite16
 1512 00f0 4048     	 ldr r0,.L178+72
 1513 00f2 2946     	 mov r1,r5
 1514 00f4 FFF7FEFF 	 bl EVE_memWrite16
 1515 00f8 3F48     	 ldr r0,.L178+76
 1516 00fa 0A21     	 movs r1,#10
 1517 00fc FFF7FEFF 	 bl EVE_memWrite16
 1518 0100 3E48     	 ldr r0,.L178+80
 1519 0102 2946     	 mov r1,r5
 1520 0104 FFF7FEFF 	 bl EVE_memWrite8
 1521 0108 3D48     	 ldr r0,.L178+84
 1522 010a 0121     	 movs r1,#1
 1523 010c FFF7FEFF 	 bl EVE_memWrite8
 1524 0110 0121     	 movs r1,#1
 1525 0112 3C48     	 ldr r0,.L178+88
 1526 0114 FFF7FEFF 	 bl EVE_memWrite8
 1527 0118 3B48     	 ldr r0,.L178+92
 1528 011a FFF7FEFF 	 bl puts
 1529 011e 3B48     	 ldr r0,.L178+96
 1530 0120 0321     	 movs r1,#3
 1531 0122 FFF7FEFF 	 bl EVE_memWrite8
 1532 0126 3A48     	 ldr r0,.L178+100
 1533 0128 4FF49661 	 mov r1,#1200
 1534 012c FFF7FEFF 	 bl EVE_memWrite16
 1535 0130 3848     	 ldr r0,.L178+104
 1536 0132 2946     	 mov r1,r5
 1537 0134 FFF7FEFF 	 bl EVE_memWrite8
 1538 0138 3748     	 ldr r0,.L178+108
 1539 013a 2946     	 mov r1,r5
 1540 013c FFF7FEFF 	 bl EVE_memWrite8
 1541 0140 3648     	 ldr r0,.L178+112
 1542 0142 4FF4C041 	 mov r1,#24576
 1543 0146 FFF7FEFF 	 bl EVE_memWrite16
 1544 014a 4FF44010 	 mov r0,#3145728
 1545 014e 4FF00071 	 mov r1,#33554432
 1546 0152 FFF7FEFF 	 bl EVE_memWrite32
 1547 0156 3248     	 ldr r0,.L178+116
 1548 0158 3249     	 ldr r1,.L178+120
 1549 015a FFF7FEFF 	 bl EVE_memWrite32
 1550 015e 3248     	 ldr r0,.L178+124
 1551 0160 2946     	 mov r1,r5
 1552 0162 FFF7FEFF 	 bl EVE_memWrite32
 1553 0166 0221     	 movs r1,#2
 1554 0168 3048     	 ldr r0,.L178+128
 1555 016a FFF7FEFF 	 bl EVE_memWrite32
 1556 016e 3048     	 ldr r0,.L178+132
 1557 0170 FFF7FEFF 	 bl puts
 1558 0174 2F48     	 ldr r0,.L178+136
 1559 0176 8021     	 movs r1,#128
 1560 0178 FFF7FEFF 	 bl EVE_memWrite8
 1561 017c 2E48     	 ldr r0,.L178+140
 1562 017e 0721     	 movs r1,#7
 1563 0180 FFF7FEFF 	 bl EVE_memWrite8
 1564 0184 1248     	 ldr r0,.L178+36
 1565 0186 2021     	 movs r1,#32
 1566 0188 FFF7FEFF 	 bl EVE_memWrite8
 1567 018c 0524     	 movs r4,#5
 1568              	.L170:
 1569 018e FFF7FEFF 	 bl EVE_busy
 1570 0192 0128     	 cmp r0,#1
 1571 0194 05D1     	 bne .L172
 1572 0196 013C     	 subs r4,r4,#1
 1573 0198 A4B2     	 uxth r4,r4
 1574 019a FFF7FEFF 	 bl delay_ms
 1575 019e 002C     	 cmp r4,#0
 1576 01a0 F5D1     	 bne .L170
 1577              	.L172:
 1578 01a2 2648     	 ldr r0,.L178+144
 1579 01a4 FFF7FEFF 	 bl puts
 1580 01a8 0120     	 movs r0,#1
 1581 01aa 38BD     	 pop {r3,r4,r5,pc}
 1582              	.L179:
 1583              	 .align 2
 1584              	.L178:
 1585 01ac 00000000 	 .word IO_DIO_DIGOUT_PD_TFT
 1586 01b0 00203000 	 .word 3153920
 1587 01b4 2E000000 	 .word .LC1
 1588 01b8 5B000000 	 .word .LC2
 1589 01bc 20203000 	 .word 3153952
 1590 01c0 81000000 	 .word .LC3
 1591 01c4 AC000000 	 .word .LC4
 1592 01c8 0C203000 	 .word 3153932
 1593 01cc 00A24A04 	 .word 72000000
 1594 01d0 D4203000 	 .word 3154132
 1595 01d4 34203000 	 .word 3153972
 1596 01d8 2C203000 	 .word 3153964
 1597 01dc 30203000 	 .word 3153968
 1598 01e0 38203000 	 .word 3153976
 1599 01e4 3C203000 	 .word 3153980
 1600 01e8 48203000 	 .word 3153992
 1601 01ec 40203000 	 .word 3153984
 1602 01f0 44203000 	 .word 3153988
 1603 01f4 4C203000 	 .word 3153996
 1604 01f8 50203000 	 .word 3154000
 1605 01fc 64203000 	 .word 3154020
 1606 0200 6C203000 	 .word 3154028
 1607 0204 68203000 	 .word 3154024
 1608 0208 CE000000 	 .word .LC5
 1609 020c 04213000 	 .word 3154180
 1610 0210 18213000 	 .word 3154200
 1611 0214 80203000 	 .word 3154048
 1612 0218 84203000 	 .word 3154052
 1613 021c 88203000 	 .word 3154056
 1614 0220 04003000 	 .word 3145732
 1615 0224 07000026 	 .word 637534215
 1616 0228 08003000 	 .word 3145736
 1617 022c 54203000 	 .word 3154004
 1618 0230 EE000000 	 .word .LC6
 1619 0234 94203000 	 .word 3154068
 1620 0238 70203000 	 .word 3154032
 1621 023c 15010000 	 .word .LC7
 1623              	 .section .text.EVE_start_cmd_burst,"ax",%progbits
 1624              	 .align 1
 1625              	 .global EVE_start_cmd_burst
 1626              	 .thumb
 1627              	 .thumb_func
 1629              	EVE_start_cmd_burst:
 1630              	 
 1631              	 
 1632 0000 08B5     	 push {r3,lr}
 1633 0002 084B     	 ldr r3,.L181
 1634 0004 2A22     	 movs r2,#42
 1635 0006 1A70     	 strb r2,[r3]
 1636 0008 FFF7FEFF 	 bl EVE_cs_set
 1637 000c B020     	 movs r0,#176
 1638 000e FFF7FEFF 	 bl spi_transmit
 1639 0012 2520     	 movs r0,#37
 1640 0014 FFF7FEFF 	 bl spi_transmit
 1641 0018 7820     	 movs r0,#120
 1642 001a BDE80840 	 pop {r3,lr}
 1643 001e FFF7FEBF 	 b spi_transmit
 1644              	.L182:
 1645 0022 00BF     	 .align 2
 1646              	.L181:
 1647 0024 00000000 	 .word .LANCHOR0
 1649              	 .section .text.EVE_end_cmd_burst,"ax",%progbits
 1650              	 .align 1
 1651              	 .global EVE_end_cmd_burst
 1652              	 .thumb
 1653              	 .thumb_func
 1655              	EVE_end_cmd_burst:
 1656              	 
 1657              	 
 1658              	 
 1659 0000 024B     	 ldr r3,.L184
 1660 0002 0022     	 movs r2,#0
 1661 0004 1A70     	 strb r2,[r3]
 1662 0006 FFF7FEBF 	 b EVE_cs_clear
 1663              	.L185:
 1664 000a 00BF     	 .align 2
 1665              	.L184:
 1666 000c 00000000 	 .word .LANCHOR0
 1668              	 .section .text.EVE_start_command,"ax",%progbits
 1669              	 .align 1
 1670              	 .global EVE_start_command
 1671              	 .thumb
 1672              	 .thumb_func
 1674              	EVE_start_command:
 1675              	 
 1676              	 
 1677 0000 10B5     	 push {r4,lr}
 1678 0002 0446     	 mov r4,r0
 1679 0004 FFF7FEFF 	 bl EVE_cs_set
 1680 0008 B020     	 movs r0,#176
 1681 000a FFF7FEFF 	 bl spi_transmit
 1682 000e 2520     	 movs r0,#37
 1683 0010 FFF7FEFF 	 bl spi_transmit
 1684 0014 7820     	 movs r0,#120
 1685 0016 FFF7FEFF 	 bl spi_transmit
 1686 001a 2046     	 mov r0,r4
 1687 001c BDE81040 	 pop {r4,lr}
 1688 0020 FFF7FEBF 	 b spi_transmit_32
 1690              	 .section .text.EVE_write_string,"ax",%progbits
 1691              	 .align 1
 1692              	 .global EVE_write_string
 1693              	 .thumb
 1694              	 .thumb_func
 1696              	EVE_write_string:
 1697              	 
 1698              	 
 1699 0000 F8B5     	 push {r3,r4,r5,r6,r7,lr}
 1700 0002 224B     	 ldr r3,.L205
 1701 0004 1B78     	 ldrb r3,[r3]
 1702 0006 0546     	 mov r5,r0
 1703 0008 1BB9     	 cbnz r3,.L188
 1704 000a 00F1FA07 	 add r7,r0,#250
 1705 000e 0646     	 mov r6,r0
 1706 0010 25E0     	 b .L189
 1707              	.L188:
 1708 0012 441E     	 subs r4,r0,#1
 1709 0014 00F1F906 	 add r6,r0,#249
 1710 0018 0023     	 movs r3,#0
 1711              	.L190:
 1712 001a 14F8012F 	 ldrb r2,[r4,#1]!
 1713 001e 5AB1     	 cbz r2,.L192
 1714 0020 0133     	 adds r3,r3,#1
 1715 0022 DBB2     	 uxtb r3,r3
 1716 0024 032B     	 cmp r3,#3
 1717 0026 05D9     	 bls .L191
 1718 0028 2868     	 ldr r0,[r5]
 1719 002a 2F1D     	 adds r7,r5,#4
 1720 002c FFF7FEFF 	 bl spi_transmit_32
 1721 0030 3D46     	 mov r5,r7
 1722 0032 0023     	 movs r3,#0
 1723              	.L191:
 1724 0034 B442     	 cmp r4,r6
 1725 0036 F0D1     	 bne .L190
 1726              	.L192:
 1727 0038 022B     	 cmp r3,#2
 1728 003a 2868     	 ldr r0,[r5]
 1729 003c 08D0     	 beq .L195
 1730 003e 032B     	 cmp r3,#3
 1731 0040 03D0     	 beq .L196
 1732 0042 012B     	 cmp r3,#1
 1733 0044 06D1     	 bne .L204
 1734 0046 C0B2     	 uxtb r0,r0
 1735 0048 05E0     	 b .L194
 1736              	.L196:
 1737 004a 20F07F40 	 bic r0,r0,#-16777216
 1738 004e 02E0     	 b .L194
 1739              	.L195:
 1740 0050 80B2     	 uxth r0,r0
 1741 0052 00E0     	 b .L194
 1742              	.L204:
 1743 0054 0020     	 movs r0,#0
 1744              	.L194:
 1745 0056 BDE8F840 	 pop {r3,r4,r5,r6,r7,lr}
 1746 005a FFF7FEBF 	 b spi_transmit_32
 1747              	.L189:
 1748 005e 741B     	 subs r4,r6,r5
 1749 0060 16F8010B 	 ldrb r0,[r6],#1
 1750 0064 E4B2     	 uxtb r4,r4
 1751 0066 20B1     	 cbz r0,.L198
 1752 0068 FFF7FEFF 	 bl spi_transmit
 1753 006c BE42     	 cmp r6,r7
 1754 006e F6D1     	 bne .L189
 1755 0070 FA24     	 movs r4,#250
 1756              	.L198:
 1757 0072 04F00304 	 and r4,r4,#3
 1758 0076 C4F10404 	 rsb r4,r4,#4
 1759 007a E4B2     	 uxtb r4,r4
 1760              	.L200:
 1761 007c 0020     	 movs r0,#0
 1762 007e 013C     	 subs r4,r4,#1
 1763 0080 FFF7FEFF 	 bl spi_transmit
 1764 0084 14F0FF04 	 ands r4,r4,#255
 1765 0088 F8D1     	 bne .L200
 1766 008a F8BD     	 pop {r3,r4,r5,r6,r7,pc}
 1767              	.L206:
 1768              	 .align 2
 1769              	.L205:
 1770 008c 00000000 	 .word .LANCHOR0
 1772              	 .section .text.EVE_cmd_animdraw,"ax",%progbits
 1773              	 .align 1
 1774              	 .global EVE_cmd_animdraw
 1775              	 .thumb
 1776              	 .thumb_func
 1778              	EVE_cmd_animdraw:
 1779              	 
 1780              	 
 1781 0000 10B5     	 push {r4,lr}
 1782 0002 084B     	 ldr r3,.L209
 1783 0004 1B78     	 ldrb r3,[r3]
 1784 0006 0446     	 mov r4,r0
 1785 0008 53B9     	 cbnz r3,.L207
 1786 000a 6FF0A900 	 mvn r0,#169
 1787 000e FFF7FEFF 	 bl EVE_start_command
 1788 0012 2046     	 mov r0,r4
 1789 0014 FFF7FEFF 	 bl spi_transmit_32
 1790 0018 BDE81040 	 pop {r4,lr}
 1791 001c FFF7FEBF 	 b EVE_cs_clear
 1792              	.L207:
 1793 0020 10BD     	 pop {r4,pc}
 1794              	.L210:
 1795 0022 00BF     	 .align 2
 1796              	.L209:
 1797 0024 00000000 	 .word .LANCHOR0
 1799              	 .section .text.EVE_cmd_animdraw_burst,"ax",%progbits
 1800              	 .align 1
 1801              	 .global EVE_cmd_animdraw_burst
 1802              	 .thumb
 1803              	 .thumb_func
 1805              	EVE_cmd_animdraw_burst:
 1806              	 
 1807              	 
 1808 0000 10B5     	 push {r4,lr}
 1809 0002 0446     	 mov r4,r0
 1810 0004 6FF0A900 	 mvn r0,#169
 1811 0008 FFF7FEFF 	 bl spi_transmit_32
 1812 000c 2046     	 mov r0,r4
 1813 000e BDE81040 	 pop {r4,lr}
 1814 0012 FFF7FEBF 	 b spi_transmit_32
 1816              	 .section .text.EVE_cmd_animframe,"ax",%progbits
 1817              	 .align 1
 1818              	 .global EVE_cmd_animframe
 1819              	 .thumb
 1820              	 .thumb_func
 1822              	EVE_cmd_animframe:
 1823              	 
 1824              	 
 1825 0000 F8B5     	 push {r3,r4,r5,r6,r7,lr}
 1826 0002 1E46     	 mov r6,r3
 1827 0004 114B     	 ldr r3,.L214
 1828 0006 1B78     	 ldrb r3,[r3]
 1829 0008 0546     	 mov r5,r0
 1830 000a 0C46     	 mov r4,r1
 1831 000c 1746     	 mov r7,r2
 1832 000e DBB9     	 cbnz r3,.L212
 1833 0010 6FF0A500 	 mvn r0,#165
 1834 0014 FFF7FEFF 	 bl EVE_start_command
 1835 0018 E8B2     	 uxtb r0,r5
 1836 001a FFF7FEFF 	 bl spi_transmit
 1837 001e C5F30720 	 ubfx r0,r5,#8,#8
 1838 0022 FFF7FEFF 	 bl spi_transmit
 1839 0026 E0B2     	 uxtb r0,r4
 1840 0028 FFF7FEFF 	 bl spi_transmit
 1841 002c C4F30720 	 ubfx r0,r4,#8,#8
 1842 0030 FFF7FEFF 	 bl spi_transmit
 1843 0034 3846     	 mov r0,r7
 1844 0036 FFF7FEFF 	 bl spi_transmit_32
 1845 003a 3046     	 mov r0,r6
 1846 003c FFF7FEFF 	 bl spi_transmit_32
 1847 0040 BDE8F840 	 pop {r3,r4,r5,r6,r7,lr}
 1848 0044 FFF7FEBF 	 b EVE_cs_clear
 1849              	.L212:
 1850 0048 F8BD     	 pop {r3,r4,r5,r6,r7,pc}
 1851              	.L215:
 1852 004a 00BF     	 .align 2
 1853              	.L214:
 1854 004c 00000000 	 .word .LANCHOR0
 1856              	 .section .text.EVE_cmd_animframe_burst,"ax",%progbits
 1857              	 .align 1
 1858              	 .global EVE_cmd_animframe_burst
 1859              	 .thumb
 1860              	 .thumb_func
 1862              	EVE_cmd_animframe_burst:
 1863              	 
 1864              	 
 1865 0000 F8B5     	 push {r3,r4,r5,r6,r7,lr}
 1866 0002 0F46     	 mov r7,r1
 1867 0004 0646     	 mov r6,r0
 1868 0006 6FF0A500 	 mvn r0,#165
 1869 000a 1546     	 mov r5,r2
 1870 000c 1C46     	 mov r4,r3
 1871 000e FFF7FEFF 	 bl spi_transmit_32
 1872 0012 06EB0740 	 add r0,r6,r7,lsl#16
 1873 0016 FFF7FEFF 	 bl spi_transmit_32
 1874 001a 2846     	 mov r0,r5
 1875 001c FFF7FEFF 	 bl spi_transmit_32
 1876 0020 2046     	 mov r0,r4
 1877 0022 BDE8F840 	 pop {r3,r4,r5,r6,r7,lr}
 1878 0026 FFF7FEBF 	 b spi_transmit_32
 1880              	 .section .text.EVE_cmd_animstart,"ax",%progbits
 1881              	 .align 1
 1882              	 .global EVE_cmd_animstart
 1883              	 .thumb
 1884              	 .thumb_func
 1886              	EVE_cmd_animstart:
 1887              	 
 1888              	 
 1889 0000 70B5     	 push {r4,r5,r6,lr}
 1890 0002 0C4B     	 ldr r3,.L219
 1891 0004 1B78     	 ldrb r3,[r3]
 1892 0006 0646     	 mov r6,r0
 1893 0008 0D46     	 mov r5,r1
 1894 000a 1446     	 mov r4,r2
 1895 000c 83B9     	 cbnz r3,.L217
 1896 000e 6FF0AC00 	 mvn r0,#172
 1897 0012 FFF7FEFF 	 bl EVE_start_command
 1898 0016 3046     	 mov r0,r6
 1899 0018 FFF7FEFF 	 bl spi_transmit_32
 1900 001c 2846     	 mov r0,r5
 1901 001e FFF7FEFF 	 bl spi_transmit_32
 1902 0022 2046     	 mov r0,r4
 1903 0024 FFF7FEFF 	 bl spi_transmit_32
 1904 0028 BDE87040 	 pop {r4,r5,r6,lr}
 1905 002c FFF7FEBF 	 b EVE_cs_clear
 1906              	.L217:
 1907 0030 70BD     	 pop {r4,r5,r6,pc}
 1908              	.L220:
 1909 0032 00BF     	 .align 2
 1910              	.L219:
 1911 0034 00000000 	 .word .LANCHOR0
 1913              	 .section .text.EVE_cmd_animstart_burst,"ax",%progbits
 1914              	 .align 1
 1915              	 .global EVE_cmd_animstart_burst
 1916              	 .thumb
 1917              	 .thumb_func
 1919              	EVE_cmd_animstart_burst:
 1920              	 
 1921              	 
 1922 0000 70B5     	 push {r4,r5,r6,lr}
 1923 0002 0646     	 mov r6,r0
 1924 0004 6FF0AC00 	 mvn r0,#172
 1925 0008 0D46     	 mov r5,r1
 1926 000a 1446     	 mov r4,r2
 1927 000c FFF7FEFF 	 bl spi_transmit_32
 1928 0010 3046     	 mov r0,r6
 1929 0012 FFF7FEFF 	 bl spi_transmit_32
 1930 0016 2846     	 mov r0,r5
 1931 0018 FFF7FEFF 	 bl spi_transmit_32
 1932 001c 2046     	 mov r0,r4
 1933 001e BDE87040 	 pop {r4,r5,r6,lr}
 1934 0022 FFF7FEBF 	 b spi_transmit_32
 1936              	 .section .text.EVE_cmd_animstop,"ax",%progbits
 1937              	 .align 1
 1938              	 .global EVE_cmd_animstop
 1939              	 .thumb
 1940              	 .thumb_func
 1942              	EVE_cmd_animstop:
 1943              	 
 1944              	 
 1945 0000 10B5     	 push {r4,lr}
 1946 0002 084B     	 ldr r3,.L224
 1947 0004 1B78     	 ldrb r3,[r3]
 1948 0006 0446     	 mov r4,r0
 1949 0008 53B9     	 cbnz r3,.L222
 1950 000a 6FF0AB00 	 mvn r0,#171
 1951 000e FFF7FEFF 	 bl EVE_start_command
 1952 0012 2046     	 mov r0,r4
 1953 0014 FFF7FEFF 	 bl spi_transmit_32
 1954 0018 BDE81040 	 pop {r4,lr}
 1955 001c FFF7FEBF 	 b EVE_cs_clear
 1956              	.L222:
 1957 0020 10BD     	 pop {r4,pc}
 1958              	.L225:
 1959 0022 00BF     	 .align 2
 1960              	.L224:
 1961 0024 00000000 	 .word .LANCHOR0
 1963              	 .section .text.EVE_cmd_animstop_burst,"ax",%progbits
 1964              	 .align 1
 1965              	 .global EVE_cmd_animstop_burst
 1966              	 .thumb
 1967              	 .thumb_func
 1969              	EVE_cmd_animstop_burst:
 1970              	 
 1971              	 
 1972 0000 10B5     	 push {r4,lr}
 1973 0002 0446     	 mov r4,r0
 1974 0004 6FF0AB00 	 mvn r0,#171
 1975 0008 FFF7FEFF 	 bl spi_transmit_32
 1976 000c 2046     	 mov r0,r4
 1977 000e BDE81040 	 pop {r4,lr}
 1978 0012 FFF7FEBF 	 b spi_transmit_32
 1980              	 .section .text.EVE_cmd_animxy,"ax",%progbits
 1981              	 .align 1
 1982              	 .global EVE_cmd_animxy
 1983              	 .thumb
 1984              	 .thumb_func
 1986              	EVE_cmd_animxy:
 1987              	 
 1988              	 
 1989 0000 70B5     	 push {r4,r5,r6,lr}
 1990 0002 104B     	 ldr r3,.L229
 1991 0004 1B78     	 ldrb r3,[r3]
 1992 0006 0646     	 mov r6,r0
 1993 0008 0D46     	 mov r5,r1
 1994 000a 1446     	 mov r4,r2
 1995 000c C3B9     	 cbnz r3,.L227
 1996 000e 6FF0AA00 	 mvn r0,#170
 1997 0012 FFF7FEFF 	 bl EVE_start_command
 1998 0016 3046     	 mov r0,r6
 1999 0018 FFF7FEFF 	 bl spi_transmit_32
 2000 001c E8B2     	 uxtb r0,r5
 2001 001e FFF7FEFF 	 bl spi_transmit
 2002 0022 C5F30720 	 ubfx r0,r5,#8,#8
 2003 0026 FFF7FEFF 	 bl spi_transmit
 2004 002a E0B2     	 uxtb r0,r4
 2005 002c FFF7FEFF 	 bl spi_transmit
 2006 0030 C4F30720 	 ubfx r0,r4,#8,#8
 2007 0034 FFF7FEFF 	 bl spi_transmit
 2008 0038 BDE87040 	 pop {r4,r5,r6,lr}
 2009 003c FFF7FEBF 	 b EVE_cs_clear
 2010              	.L227:
 2011 0040 70BD     	 pop {r4,r5,r6,pc}
 2012              	.L230:
 2013 0042 00BF     	 .align 2
 2014              	.L229:
 2015 0044 00000000 	 .word .LANCHOR0
 2017              	 .section .text.EVE_cmd_animxy_burst,"ax",%progbits
 2018              	 .align 1
 2019              	 .global EVE_cmd_animxy_burst
 2020              	 .thumb
 2021              	 .thumb_func
 2023              	EVE_cmd_animxy_burst:
 2024              	 
 2025              	 
 2026 0000 70B5     	 push {r4,r5,r6,lr}
 2027 0002 0646     	 mov r6,r0
 2028 0004 6FF0AA00 	 mvn r0,#170
 2029 0008 0C46     	 mov r4,r1
 2030 000a 1546     	 mov r5,r2
 2031 000c FFF7FEFF 	 bl spi_transmit_32
 2032 0010 3046     	 mov r0,r6
 2033 0012 FFF7FEFF 	 bl spi_transmit_32
 2034 0016 04EB0540 	 add r0,r4,r5,lsl#16
 2035 001a BDE87040 	 pop {r4,r5,r6,lr}
 2036 001e FFF7FEBF 	 b spi_transmit_32
 2038              	 .section .text.EVE_cmd_appendf,"ax",%progbits
 2039              	 .align 1
 2040              	 .global EVE_cmd_appendf
 2041              	 .thumb
 2042              	 .thumb_func
 2044              	EVE_cmd_appendf:
 2045              	 
 2046              	 
 2047 0000 38B5     	 push {r3,r4,r5,lr}
 2048 0002 0A4B     	 ldr r3,.L234
 2049 0004 1B78     	 ldrb r3,[r3]
 2050 0006 0546     	 mov r5,r0
 2051 0008 0C46     	 mov r4,r1
 2052 000a 6BB9     	 cbnz r3,.L232
 2053 000c 6FF0A600 	 mvn r0,#166
 2054 0010 FFF7FEFF 	 bl EVE_start_command
 2055 0014 2846     	 mov r0,r5
 2056 0016 FFF7FEFF 	 bl spi_transmit_32
 2057 001a 2046     	 mov r0,r4
 2058 001c FFF7FEFF 	 bl spi_transmit_32
 2059 0020 BDE83840 	 pop {r3,r4,r5,lr}
 2060 0024 FFF7FEBF 	 b EVE_cs_clear
 2061              	.L232:
 2062 0028 38BD     	 pop {r3,r4,r5,pc}
 2063              	.L235:
 2064 002a 00BF     	 .align 2
 2065              	.L234:
 2066 002c 00000000 	 .word .LANCHOR0
 2068              	 .section .text.EVE_cmd_appendf_burst,"ax",%progbits
 2069              	 .align 1
 2070              	 .global EVE_cmd_appendf_burst
 2071              	 .thumb
 2072              	 .thumb_func
 2074              	EVE_cmd_appendf_burst:
 2075              	 
 2076              	 
 2077 0000 38B5     	 push {r3,r4,r5,lr}
 2078 0002 0546     	 mov r5,r0
 2079 0004 6FF0A600 	 mvn r0,#166
 2080 0008 0C46     	 mov r4,r1
 2081 000a FFF7FEFF 	 bl spi_transmit_32
 2082 000e 2846     	 mov r0,r5
 2083 0010 FFF7FEFF 	 bl spi_transmit_32
 2084 0014 2046     	 mov r0,r4
 2085 0016 BDE83840 	 pop {r3,r4,r5,lr}
 2086 001a FFF7FEBF 	 b spi_transmit_32
 2088              	 .section .text.EVE_cmd_bitmap_transform,"ax",%progbits
 2089              	 .align 1
 2090              	 .global EVE_cmd_bitmap_transform
 2091              	 .thumb
 2092              	 .thumb_func
 2094              	EVE_cmd_bitmap_transform:
 2095              	 
 2096              	 
 2097 0000 2DE9F041 	 push {r4,r5,r6,r7,r8,lr}
 2098 0004 1D46     	 mov r5,r3
 2099 0006 254B     	 ldr r3,.L242
 2100 0008 8046     	 mov r8,r0
 2101 000a 1878     	 ldrb r0,[r3]
 2102 000c 0F46     	 mov r7,r1
 2103 000e 1646     	 mov r6,r2
 2104 0010 00F0FF04 	 and r4,r0,#255
 2105 0014 0028     	 cmp r0,#0
 2106 0016 3DD1     	 bne .L240
 2107 0018 6FF0DE00 	 mvn r0,#222
 2108 001c FFF7FEFF 	 bl EVE_start_command
 2109 0020 4046     	 mov r0,r8
 2110 0022 FFF7FEFF 	 bl spi_transmit_32
 2111 0026 3846     	 mov r0,r7
 2112 0028 FFF7FEFF 	 bl spi_transmit_32
 2113 002c 3046     	 mov r0,r6
 2114 002e FFF7FEFF 	 bl spi_transmit_32
 2115 0032 2846     	 mov r0,r5
 2116 0034 FFF7FEFF 	 bl spi_transmit_32
 2117 0038 0698     	 ldr r0,[sp,#24]
 2118 003a FFF7FEFF 	 bl spi_transmit_32
 2119 003e 0798     	 ldr r0,[sp,#28]
 2120 0040 FFF7FEFF 	 bl spi_transmit_32
 2121 0044 0898     	 ldr r0,[sp,#32]
 2122 0046 FFF7FEFF 	 bl spi_transmit_32
 2123 004a 0998     	 ldr r0,[sp,#36]
 2124 004c FFF7FEFF 	 bl spi_transmit_32
 2125 0050 0A98     	 ldr r0,[sp,#40]
 2126 0052 FFF7FEFF 	 bl spi_transmit_32
 2127 0056 0B98     	 ldr r0,[sp,#44]
 2128 0058 FFF7FEFF 	 bl spi_transmit_32
 2129 005c 0C98     	 ldr r0,[sp,#48]
 2130 005e FFF7FEFF 	 bl spi_transmit_32
 2131 0062 0D98     	 ldr r0,[sp,#52]
 2132 0064 FFF7FEFF 	 bl spi_transmit_32
 2133 0068 2046     	 mov r0,r4
 2134 006a FFF7FEFF 	 bl spi_transmit_32
 2135 006e FFF7FEFF 	 bl EVE_cs_clear
 2136              	.L239:
 2137 0072 FFF7FEFF 	 bl EVE_busy
 2138 0076 0028     	 cmp r0,#0
 2139 0078 FBD1     	 bne .L239
 2140 007a 0948     	 ldr r0,.L242+4
 2141 007c FFF7FEFF 	 bl EVE_memRead16
 2142 0080 0438     	 subs r0,r0,#4
 2143 0082 C0F30B00 	 ubfx r0,r0,#0,#12
 2144 0086 00F54210 	 add r0,r0,#3178496
 2145 008a FFF7FEFF 	 bl EVE_memRead32
 2146 008e 80B2     	 uxth r0,r0
 2147 0090 BDE8F081 	 pop {r4,r5,r6,r7,r8,pc}
 2148              	.L240:
 2149 0094 0020     	 movs r0,#0
 2150 0096 BDE8F081 	 pop {r4,r5,r6,r7,r8,pc}
 2151              	.L243:
 2152 009a 00BF     	 .align 2
 2153              	.L242:
 2154 009c 00000000 	 .word .LANCHOR0
 2155 00a0 FC203000 	 .word 3154172
 2157              	 .section .text.EVE_cmd_bitmap_transform_burst,"ax",%progbits
 2158              	 .align 1
 2159              	 .global EVE_cmd_bitmap_transform_burst
 2160              	 .thumb
 2161              	 .thumb_func
 2163              	EVE_cmd_bitmap_transform_burst:
 2164              	 
 2165              	 
 2166 0000 2DE9F04F 	 push {r4,r5,r6,r7,r8,r9,r10,fp,lr}
 2167 0004 85B0     	 sub sp,sp,#20
 2168 0006 8046     	 mov r8,r0
 2169 0008 0193     	 str r3,[sp,#4]
 2170 000a 6FF0DE00 	 mvn r0,#222
 2171 000e 119B     	 ldr r3,[sp,#68]
 2172 0010 0093     	 str r3,[sp]
 2173 0012 0292     	 str r2,[sp,#8]
 2174 0014 0391     	 str r1,[sp,#12]
 2175 0016 DDF838B0 	 ldr fp,[sp,#56]
 2176 001a DDF83CA0 	 ldr r10,[sp,#60]
 2177 001e DDF84090 	 ldr r9,[sp,#64]
 2178 0022 129F     	 ldr r7,[sp,#72]
 2179 0024 139E     	 ldr r6,[sp,#76]
 2180 0026 149D     	 ldr r5,[sp,#80]
 2181 0028 159C     	 ldr r4,[sp,#84]
 2182 002a FFF7FEFF 	 bl spi_transmit_32
 2183 002e 4046     	 mov r0,r8
 2184 0030 FFF7FEFF 	 bl spi_transmit_32
 2185 0034 0399     	 ldr r1,[sp,#12]
 2186 0036 0846     	 mov r0,r1
 2187 0038 FFF7FEFF 	 bl spi_transmit_32
 2188 003c 029A     	 ldr r2,[sp,#8]
 2189 003e 1046     	 mov r0,r2
 2190 0040 FFF7FEFF 	 bl spi_transmit_32
 2191 0044 019B     	 ldr r3,[sp,#4]
 2192 0046 1846     	 mov r0,r3
 2193 0048 FFF7FEFF 	 bl spi_transmit_32
 2194 004c 5846     	 mov r0,fp
 2195 004e FFF7FEFF 	 bl spi_transmit_32
 2196 0052 5046     	 mov r0,r10
 2197 0054 FFF7FEFF 	 bl spi_transmit_32
 2198 0058 4846     	 mov r0,r9
 2199 005a FFF7FEFF 	 bl spi_transmit_32
 2200 005e 0098     	 ldr r0,[sp]
 2201 0060 FFF7FEFF 	 bl spi_transmit_32
 2202 0064 3846     	 mov r0,r7
 2203 0066 FFF7FEFF 	 bl spi_transmit_32
 2204 006a 3046     	 mov r0,r6
 2205 006c FFF7FEFF 	 bl spi_transmit_32
 2206 0070 2846     	 mov r0,r5
 2207 0072 FFF7FEFF 	 bl spi_transmit_32
 2208 0076 2046     	 mov r0,r4
 2209 0078 FFF7FEFF 	 bl spi_transmit_32
 2210 007c 0020     	 movs r0,#0
 2211 007e 05B0     	 add sp,sp,#20
 2212              	 
 2213 0080 BDE8F04F 	 pop {r4,r5,r6,r7,r8,r9,r10,fp,lr}
 2214 0084 FFF7FEBF 	 b spi_transmit_32
 2216              	 .section .text.EVE_cmd_fillwidth,"ax",%progbits
 2217              	 .align 1
 2218              	 .global EVE_cmd_fillwidth
 2219              	 .thumb
 2220              	 .thumb_func
 2222              	EVE_cmd_fillwidth:
 2223              	 
 2224              	 
 2225 0000 10B5     	 push {r4,lr}
 2226 0002 084B     	 ldr r3,.L247
 2227 0004 1B78     	 ldrb r3,[r3]
 2228 0006 0446     	 mov r4,r0
 2229 0008 53B9     	 cbnz r3,.L245
 2230 000a 6FF0A700 	 mvn r0,#167
 2231 000e FFF7FEFF 	 bl EVE_start_command
 2232 0012 2046     	 mov r0,r4
 2233 0014 FFF7FEFF 	 bl spi_transmit_32
 2234 0018 BDE81040 	 pop {r4,lr}
 2235 001c FFF7FEBF 	 b EVE_cs_clear
 2236              	.L245:
 2237 0020 10BD     	 pop {r4,pc}
 2238              	.L248:
 2239 0022 00BF     	 .align 2
 2240              	.L247:
 2241 0024 00000000 	 .word .LANCHOR0
 2243              	 .section .text.EVE_cmd_fillwidth_burst,"ax",%progbits
 2244              	 .align 1
 2245              	 .global EVE_cmd_fillwidth_burst
 2246              	 .thumb
 2247              	 .thumb_func
 2249              	EVE_cmd_fillwidth_burst:
 2250              	 
 2251              	 
 2252 0000 10B5     	 push {r4,lr}
 2253 0002 0446     	 mov r4,r0
 2254 0004 6FF0A700 	 mvn r0,#167
 2255 0008 FFF7FEFF 	 bl spi_transmit_32
 2256 000c 2046     	 mov r0,r4
 2257 000e BDE81040 	 pop {r4,lr}
 2258 0012 FFF7FEBF 	 b spi_transmit_32
 2260              	 .section .text.EVE_cmd_gradienta,"ax",%progbits
 2261              	 .align 1
 2262              	 .global EVE_cmd_gradienta
 2263              	 .thumb
 2264              	 .thumb_func
 2266              	EVE_cmd_gradienta:
 2267              	 
 2268              	 
 2269 0000 2DE9F843 	 push {r3,r4,r5,r6,r7,r8,r9,lr}
 2270 0004 1D46     	 mov r5,r3
 2271 0006 1B4B     	 ldr r3,.L252
 2272 0008 BDF92040 	 ldrsh r4,[sp,#32]
 2273 000c 1B78     	 ldrb r3,[r3]
 2274 000e DDF82480 	 ldr r8,[sp,#36]
 2275 0012 0746     	 mov r7,r0
 2276 0014 0E46     	 mov r6,r1
 2277 0016 9146     	 mov r9,r2
 2278 0018 4BBB     	 cbnz r3,.L250
 2279 001a 6FF0A800 	 mvn r0,#168
 2280 001e FFF7FEFF 	 bl EVE_start_command
 2281 0022 F8B2     	 uxtb r0,r7
 2282 0024 FFF7FEFF 	 bl spi_transmit
 2283 0028 C7F30720 	 ubfx r0,r7,#8,#8
 2284 002c FFF7FEFF 	 bl spi_transmit
 2285 0030 F0B2     	 uxtb r0,r6
 2286 0032 FFF7FEFF 	 bl spi_transmit
 2287 0036 C6F30720 	 ubfx r0,r6,#8,#8
 2288 003a FFF7FEFF 	 bl spi_transmit
 2289 003e 4846     	 mov r0,r9
 2290 0040 FFF7FEFF 	 bl spi_transmit_32
 2291 0044 E8B2     	 uxtb r0,r5
 2292 0046 FFF7FEFF 	 bl spi_transmit
 2293 004a C5F30720 	 ubfx r0,r5,#8,#8
 2294 004e FFF7FEFF 	 bl spi_transmit
 2295 0052 E0B2     	 uxtb r0,r4
 2296 0054 FFF7FEFF 	 bl spi_transmit
 2297 0058 C4F30720 	 ubfx r0,r4,#8,#8
 2298 005c FFF7FEFF 	 bl spi_transmit
 2299 0060 4046     	 mov r0,r8
 2300 0062 FFF7FEFF 	 bl spi_transmit_32
 2301 0066 BDE8F843 	 pop {r3,r4,r5,r6,r7,r8,r9,lr}
 2302 006a FFF7FEBF 	 b EVE_cs_clear
 2303              	.L250:
 2304 006e BDE8F883 	 pop {r3,r4,r5,r6,r7,r8,r9,pc}
 2305              	.L253:
 2306 0072 00BF     	 .align 2
 2307              	.L252:
 2308 0074 00000000 	 .word .LANCHOR0
 2310              	 .section .text.EVE_cmd_gradienta_burst,"ax",%progbits
 2311              	 .align 1
 2312              	 .global EVE_cmd_gradienta_burst
 2313              	 .thumb
 2314              	 .thumb_func
 2316              	EVE_cmd_gradienta_burst:
 2317              	 
 2318              	 
 2319 0000 2DE9F843 	 push {r3,r4,r5,r6,r7,r8,r9,lr}
 2320 0004 8946     	 mov r9,r1
 2321 0006 8046     	 mov r8,r0
 2322 0008 6FF0A800 	 mvn r0,#168
 2323 000c 1746     	 mov r7,r2
 2324 000e 1D46     	 mov r5,r3
 2325 0010 BDF92060 	 ldrsh r6,[sp,#32]
 2326 0014 099C     	 ldr r4,[sp,#36]
 2327 0016 FFF7FEFF 	 bl spi_transmit_32
 2328 001a 08EB0940 	 add r0,r8,r9,lsl#16
 2329 001e FFF7FEFF 	 bl spi_transmit_32
 2330 0022 3846     	 mov r0,r7
 2331 0024 FFF7FEFF 	 bl spi_transmit_32
 2332 0028 05EB0640 	 add r0,r5,r6,lsl#16
 2333 002c FFF7FEFF 	 bl spi_transmit_32
 2334 0030 2046     	 mov r0,r4
 2335 0032 BDE8F843 	 pop {r3,r4,r5,r6,r7,r8,r9,lr}
 2336 0036 FFF7FEBF 	 b spi_transmit_32
 2338              	 .section .text.EVE_cmd_rotatearound,"ax",%progbits
 2339              	 .align 1
 2340              	 .global EVE_cmd_rotatearound
 2341              	 .thumb
 2342              	 .thumb_func
 2344              	EVE_cmd_rotatearound:
 2345              	 
 2346              	 
 2347 0000 F8B5     	 push {r3,r4,r5,r6,r7,lr}
 2348 0002 1C46     	 mov r4,r3
 2349 0004 0D4B     	 ldr r3,.L257
 2350 0006 1B78     	 ldrb r3,[r3]
 2351 0008 0746     	 mov r7,r0
 2352 000a 0E46     	 mov r6,r1
 2353 000c 1546     	 mov r5,r2
 2354 000e 9BB9     	 cbnz r3,.L255
 2355 0010 6FF0AE00 	 mvn r0,#174
 2356 0014 FFF7FEFF 	 bl EVE_start_command
 2357 0018 3846     	 mov r0,r7
 2358 001a FFF7FEFF 	 bl spi_transmit_32
 2359 001e 3046     	 mov r0,r6
 2360 0020 FFF7FEFF 	 bl spi_transmit_32
 2361 0024 2846     	 mov r0,r5
 2362 0026 FFF7FEFF 	 bl spi_transmit_32
 2363 002a 2046     	 mov r0,r4
 2364 002c FFF7FEFF 	 bl spi_transmit_32
 2365 0030 BDE8F840 	 pop {r3,r4,r5,r6,r7,lr}
 2366 0034 FFF7FEBF 	 b EVE_cs_clear
 2367              	.L255:
 2368 0038 F8BD     	 pop {r3,r4,r5,r6,r7,pc}
 2369              	.L258:
 2370 003a 00BF     	 .align 2
 2371              	.L257:
 2372 003c 00000000 	 .word .LANCHOR0
 2374              	 .section .text.EVE_cmd_rotatearound_burst,"ax",%progbits
 2375              	 .align 1
 2376              	 .global EVE_cmd_rotatearound_burst
 2377              	 .thumb
 2378              	 .thumb_func
 2380              	EVE_cmd_rotatearound_burst:
 2381              	 
 2382              	 
 2383 0000 F8B5     	 push {r3,r4,r5,r6,r7,lr}
 2384 0002 0746     	 mov r7,r0
 2385 0004 6FF0AE00 	 mvn r0,#174
 2386 0008 0E46     	 mov r6,r1
 2387 000a 1546     	 mov r5,r2
 2388 000c 1C46     	 mov r4,r3
 2389 000e FFF7FEFF 	 bl spi_transmit_32
 2390 0012 3846     	 mov r0,r7
 2391 0014 FFF7FEFF 	 bl spi_transmit_32
 2392 0018 3046     	 mov r0,r6
 2393 001a FFF7FEFF 	 bl spi_transmit_32
 2394 001e 2846     	 mov r0,r5
 2395 0020 FFF7FEFF 	 bl spi_transmit_32
 2396 0024 2046     	 mov r0,r4
 2397 0026 BDE8F840 	 pop {r3,r4,r5,r6,r7,lr}
 2398 002a FFF7FEBF 	 b spi_transmit_32
 2400              	 .section .text.EVE_cmd_button_var,"ax",%progbits
 2401              	 .align 1
 2402              	 .global EVE_cmd_button_var
 2403              	 .thumb
 2404              	 .thumb_func
 2406              	EVE_cmd_button_var:
 2407              	 
 2408              	 
 2409 0000 2DE9F74F 	 push {r0,r1,r2,r4,r5,r6,r7,r8,r9,r10,fp,lr}
 2410 0004 1F46     	 mov r7,r3
 2411 0006 2A4B     	 ldr r3,.L268
 2412 0008 BDF93060 	 ldrsh r6,[sp,#48]
 2413 000c 1B78     	 ldrb r3,[r3]
 2414 000e BDF83450 	 ldrh r5,[sp,#52]
 2415 0012 9DF83C90 	 ldrb r9,[sp,#60]
 2416 0016 8346     	 mov fp,r0
 2417 0018 8A46     	 mov r10,r1
 2418 001a 9046     	 mov r8,r2
 2419 001c 03F0FF04 	 and r4,r3,#255
 2420 0020 002B     	 cmp r3,#0
 2421 0022 42D1     	 bne .L260
 2422 0024 6FF0F200 	 mvn r0,#242
 2423 0028 FFF7FEFF 	 bl EVE_start_command
 2424 002c 5FFA8BF0 	 uxtb r0,fp
 2425 0030 FFF7FEFF 	 bl spi_transmit
 2426 0034 CBF30720 	 ubfx r0,fp,#8,#8
 2427 0038 FFF7FEFF 	 bl spi_transmit
 2428 003c 5FFA8AF0 	 uxtb r0,r10
 2429 0040 FFF7FEFF 	 bl spi_transmit
 2430 0044 CAF30720 	 ubfx r0,r10,#8,#8
 2431 0048 FFF7FEFF 	 bl spi_transmit
 2432 004c 5FFA88F0 	 uxtb r0,r8
 2433 0050 FFF7FEFF 	 bl spi_transmit
 2434 0054 C8F30720 	 ubfx r0,r8,#8,#8
 2435 0058 FFF7FEFF 	 bl spi_transmit
 2436 005c F8B2     	 uxtb r0,r7
 2437 005e FFF7FEFF 	 bl spi_transmit
 2438 0062 C7F30720 	 ubfx r0,r7,#8,#8
 2439 0066 FFF7FEFF 	 bl spi_transmit
 2440 006a F0B2     	 uxtb r0,r6
 2441 006c FFF7FEFF 	 bl spi_transmit
 2442 0070 C6F30720 	 ubfx r0,r6,#8,#8
 2443 0074 FFF7FEFF 	 bl spi_transmit
 2444 0078 E8B2     	 uxtb r0,r5
 2445 007a FFF7FEFF 	 bl spi_transmit
 2446 007e 280A     	 lsrs r0,r5,#8
 2447 0080 FFF7FEFF 	 bl spi_transmit
 2448 0084 0E98     	 ldr r0,[sp,#56]
 2449 0086 FFF7FEFF 	 bl EVE_write_string
 2450 008a EB04     	 lsls r3,r5,#19
 2451 008c 0BD5     	 bpl .L262
 2452 008e 10AB     	 add r3,sp,#64
 2453 0090 0193     	 str r3,[sp,#4]
 2454              	.L263:
 2455 0092 4C45     	 cmp r4,r9
 2456 0094 07D0     	 beq .L262
 2457 0096 019B     	 ldr r3,[sp,#4]
 2458 0098 1A1D     	 adds r2,r3,#4
 2459 009a 1868     	 ldr r0,[r3]
 2460 009c 0192     	 str r2,[sp,#4]
 2461 009e 0134     	 adds r4,r4,#1
 2462 00a0 FFF7FEFF 	 bl spi_transmit_32
 2463 00a4 F5E7     	 b .L263
 2464              	.L262:
 2465 00a6 FFF7FEFF 	 bl EVE_cs_clear
 2466              	.L260:
 2467 00aa 03B0     	 add sp,sp,#12
 2468              	 
 2469 00ac BDE8F08F 	 pop {r4,r5,r6,r7,r8,r9,r10,fp,pc}
 2470              	.L269:
 2471              	 .align 2
 2472              	.L268:
 2473 00b0 00000000 	 .word .LANCHOR0
 2475              	 .section .text.EVE_cmd_button_var_burst,"ax",%progbits
 2476              	 .align 1
 2477              	 .global EVE_cmd_button_var_burst
 2478              	 .thumb
 2479              	 .thumb_func
 2481              	EVE_cmd_button_var_burst:
 2482              	 
 2483              	 
 2484 0000 2DE9F743 	 push {r0,r1,r2,r4,r5,r6,r7,r8,r9,lr}
 2485 0004 8946     	 mov r9,r1
 2486 0006 8046     	 mov r8,r0
 2487 0008 6FF0F200 	 mvn r0,#242
 2488 000c 1F46     	 mov r7,r3
 2489 000e 1646     	 mov r6,r2
 2490 0010 BDF82C40 	 ldrh r4,[sp,#44]
 2491 0014 9DF83450 	 ldrb r5,[sp,#52]
 2492 0018 FFF7FEFF 	 bl spi_transmit_32
 2493 001c 08EB0940 	 add r0,r8,r9,lsl#16
 2494 0020 FFF7FEFF 	 bl spi_transmit_32
 2495 0024 06EB0740 	 add r0,r6,r7,lsl#16
 2496 0028 FFF7FEFF 	 bl spi_transmit_32
 2497 002c BDF92800 	 ldrsh r0,[sp,#40]
 2498 0030 00EB0440 	 add r0,r0,r4,lsl#16
 2499 0034 FFF7FEFF 	 bl spi_transmit_32
 2500 0038 0C98     	 ldr r0,[sp,#48]
 2501 003a FFF7FEFF 	 bl EVE_write_string
 2502 003e E304     	 lsls r3,r4,#19
 2503 0040 0CD5     	 bpl .L270
 2504 0042 0EAB     	 add r3,sp,#56
 2505 0044 0193     	 str r3,[sp,#4]
 2506 0046 0024     	 movs r4,#0
 2507              	.L272:
 2508 0048 AC42     	 cmp r4,r5
 2509 004a 07D0     	 beq .L270
 2510 004c 019B     	 ldr r3,[sp,#4]
 2511 004e 1A1D     	 adds r2,r3,#4
 2512 0050 1868     	 ldr r0,[r3]
 2513 0052 0192     	 str r2,[sp,#4]
 2514 0054 0134     	 adds r4,r4,#1
 2515 0056 FFF7FEFF 	 bl spi_transmit_32
 2516 005a F5E7     	 b .L272
 2517              	.L270:
 2518 005c 03B0     	 add sp,sp,#12
 2519              	 
 2520 005e BDE8F083 	 pop {r4,r5,r6,r7,r8,r9,pc}
 2522              	 .section .text.EVE_cmd_text_var,"ax",%progbits
 2523              	 .align 1
 2524              	 .global EVE_cmd_text_var
 2525              	 .thumb
 2526              	 .thumb_func
 2528              	EVE_cmd_text_var:
 2529              	 
 2530              	 
 2531 0000 2DE9F743 	 push {r0,r1,r2,r4,r5,r6,r7,r8,r9,lr}
 2532 0004 1D46     	 mov r5,r3
 2533 0006 204B     	 ldr r3,.L285
 2534 0008 9DF82C90 	 ldrb r9,[sp,#44]
 2535 000c 1B78     	 ldrb r3,[r3]
 2536 000e 8046     	 mov r8,r0
 2537 0010 0F46     	 mov r7,r1
 2538 0012 1646     	 mov r6,r2
 2539 0014 03F0FF04 	 and r4,r3,#255
 2540 0018 93BB     	 cbnz r3,.L277
 2541 001a 6FF0F300 	 mvn r0,#243
 2542 001e FFF7FEFF 	 bl EVE_start_command
 2543 0022 5FFA88F0 	 uxtb r0,r8
 2544 0026 FFF7FEFF 	 bl spi_transmit
 2545 002a C8F30720 	 ubfx r0,r8,#8,#8
 2546 002e FFF7FEFF 	 bl spi_transmit
 2547 0032 F8B2     	 uxtb r0,r7
 2548 0034 FFF7FEFF 	 bl spi_transmit
 2549 0038 C7F30720 	 ubfx r0,r7,#8,#8
 2550 003c FFF7FEFF 	 bl spi_transmit
 2551 0040 F0B2     	 uxtb r0,r6
 2552 0042 FFF7FEFF 	 bl spi_transmit
 2553 0046 C6F30720 	 ubfx r0,r6,#8,#8
 2554 004a FFF7FEFF 	 bl spi_transmit
 2555 004e E8B2     	 uxtb r0,r5
 2556 0050 FFF7FEFF 	 bl spi_transmit
 2557 0054 280A     	 lsrs r0,r5,#8
 2558 0056 FFF7FEFF 	 bl spi_transmit
 2559 005a 0A98     	 ldr r0,[sp,#40]
 2560 005c FFF7FEFF 	 bl EVE_write_string
 2561 0060 EB04     	 lsls r3,r5,#19
 2562 0062 0BD5     	 bpl .L279
 2563 0064 0CAB     	 add r3,sp,#48
 2564 0066 0193     	 str r3,[sp,#4]
 2565              	.L280:
 2566 0068 4C45     	 cmp r4,r9
 2567 006a 07D0     	 beq .L279
 2568 006c 019B     	 ldr r3,[sp,#4]
 2569 006e 1A1D     	 adds r2,r3,#4
 2570 0070 1868     	 ldr r0,[r3]
 2571 0072 0192     	 str r2,[sp,#4]
 2572 0074 0134     	 adds r4,r4,#1
 2573 0076 FFF7FEFF 	 bl spi_transmit_32
 2574 007a F5E7     	 b .L280
 2575              	.L279:
 2576 007c FFF7FEFF 	 bl EVE_cs_clear
 2577              	.L277:
 2578 0080 03B0     	 add sp,sp,#12
 2579              	 
 2580 0082 BDE8F083 	 pop {r4,r5,r6,r7,r8,r9,pc}
 2581              	.L286:
 2582 0086 00BF     	 .align 2
 2583              	.L285:
 2584 0088 00000000 	 .word .LANCHOR0
 2586              	 .section .text.EVE_cmd_text_var_burst,"ax",%progbits
 2587              	 .align 1
 2588              	 .global EVE_cmd_text_var_burst
 2589              	 .thumb
 2590              	 .thumb_func
 2592              	EVE_cmd_text_var_burst:
 2593              	 
 2594              	 
 2595 0000 2DE9F341 	 push {r0,r1,r4,r5,r6,r7,r8,lr}
 2596 0004 8846     	 mov r8,r1
 2597 0006 0746     	 mov r7,r0
 2598 0008 6FF0F300 	 mvn r0,#243
 2599 000c 1C46     	 mov r4,r3
 2600 000e 1646     	 mov r6,r2
 2601 0010 9DF82450 	 ldrb r5,[sp,#36]
 2602 0014 FFF7FEFF 	 bl spi_transmit_32
 2603 0018 07EB0840 	 add r0,r7,r8,lsl#16
 2604 001c FFF7FEFF 	 bl spi_transmit_32
 2605 0020 06EB0440 	 add r0,r6,r4,lsl#16
 2606 0024 FFF7FEFF 	 bl spi_transmit_32
 2607 0028 0898     	 ldr r0,[sp,#32]
 2608 002a FFF7FEFF 	 bl EVE_write_string
 2609 002e E304     	 lsls r3,r4,#19
 2610 0030 0CD5     	 bpl .L287
 2611 0032 0AAB     	 add r3,sp,#40
 2612 0034 0193     	 str r3,[sp,#4]
 2613 0036 0024     	 movs r4,#0
 2614              	.L289:
 2615 0038 AC42     	 cmp r4,r5
 2616 003a 07D0     	 beq .L287
 2617 003c 019B     	 ldr r3,[sp,#4]
 2618 003e 1A1D     	 adds r2,r3,#4
 2619 0040 1868     	 ldr r0,[r3]
 2620 0042 0192     	 str r2,[sp,#4]
 2621 0044 0134     	 adds r4,r4,#1
 2622 0046 FFF7FEFF 	 bl spi_transmit_32
 2623 004a F5E7     	 b .L289
 2624              	.L287:
 2625 004c 02B0     	 add sp,sp,#8
 2626              	 
 2627 004e BDE8F081 	 pop {r4,r5,r6,r7,r8,pc}
 2629              	 .section .text.EVE_cmd_toggle_var,"ax",%progbits
 2630              	 .align 1
 2631              	 .global EVE_cmd_toggle_var
 2632              	 .thumb
 2633              	 .thumb_func
 2635              	EVE_cmd_toggle_var:
 2636              	 
 2637              	 
 2638 0000 2DE9F74F 	 push {r0,r1,r2,r4,r5,r6,r7,r8,r9,r10,fp,lr}
 2639 0004 1F46     	 mov r7,r3
 2640 0006 2A4B     	 ldr r3,.L302
 2641 0008 BDF83050 	 ldrh r5,[sp,#48]
 2642 000c 1B78     	 ldrb r3,[r3]
 2643 000e BDF83460 	 ldrh r6,[sp,#52]
 2644 0012 9DF83C90 	 ldrb r9,[sp,#60]
 2645 0016 8346     	 mov fp,r0
 2646 0018 8A46     	 mov r10,r1
 2647 001a 9046     	 mov r8,r2
 2648 001c 03F0FF04 	 and r4,r3,#255
 2649 0020 002B     	 cmp r3,#0
 2650 0022 41D1     	 bne .L294
 2651 0024 6FF0ED00 	 mvn r0,#237
 2652 0028 FFF7FEFF 	 bl EVE_start_command
 2653 002c 5FFA8BF0 	 uxtb r0,fp
 2654 0030 FFF7FEFF 	 bl spi_transmit
 2655 0034 CBF30720 	 ubfx r0,fp,#8,#8
 2656 0038 FFF7FEFF 	 bl spi_transmit
 2657 003c 5FFA8AF0 	 uxtb r0,r10
 2658 0040 FFF7FEFF 	 bl spi_transmit
 2659 0044 CAF30720 	 ubfx r0,r10,#8,#8
 2660 0048 FFF7FEFF 	 bl spi_transmit
 2661 004c 5FFA88F0 	 uxtb r0,r8
 2662 0050 FFF7FEFF 	 bl spi_transmit
 2663 0054 C8F30720 	 ubfx r0,r8,#8,#8
 2664 0058 FFF7FEFF 	 bl spi_transmit
 2665 005c F8B2     	 uxtb r0,r7
 2666 005e FFF7FEFF 	 bl spi_transmit
 2667 0062 C7F30720 	 ubfx r0,r7,#8,#8
 2668 0066 FFF7FEFF 	 bl spi_transmit
 2669 006a E8B2     	 uxtb r0,r5
 2670 006c FFF7FEFF 	 bl spi_transmit
 2671 0070 280A     	 lsrs r0,r5,#8
 2672 0072 FFF7FEFF 	 bl spi_transmit
 2673 0076 F0B2     	 uxtb r0,r6
 2674 0078 FFF7FEFF 	 bl spi_transmit
 2675 007c 300A     	 lsrs r0,r6,#8
 2676 007e FFF7FEFF 	 bl spi_transmit
 2677 0082 0E98     	 ldr r0,[sp,#56]
 2678 0084 FFF7FEFF 	 bl EVE_write_string
 2679 0088 EB04     	 lsls r3,r5,#19
 2680 008a 0BD5     	 bpl .L296
 2681 008c 10AB     	 add r3,sp,#64
 2682 008e 0193     	 str r3,[sp,#4]
 2683              	.L297:
 2684 0090 4C45     	 cmp r4,r9
 2685 0092 07D0     	 beq .L296
 2686 0094 019B     	 ldr r3,[sp,#4]
 2687 0096 1A1D     	 adds r2,r3,#4
 2688 0098 1868     	 ldr r0,[r3]
 2689 009a 0192     	 str r2,[sp,#4]
 2690 009c 0134     	 adds r4,r4,#1
 2691 009e FFF7FEFF 	 bl spi_transmit_32
 2692 00a2 F5E7     	 b .L297
 2693              	.L296:
 2694 00a4 FFF7FEFF 	 bl EVE_cs_clear
 2695              	.L294:
 2696 00a8 03B0     	 add sp,sp,#12
 2697              	 
 2698 00aa BDE8F08F 	 pop {r4,r5,r6,r7,r8,r9,r10,fp,pc}
 2699              	.L303:
 2700 00ae 00BF     	 .align 2
 2701              	.L302:
 2702 00b0 00000000 	 .word .LANCHOR0
 2704              	 .section .text.EVE_cmd_toggle_var_burst,"ax",%progbits
 2705              	 .align 1
 2706              	 .global EVE_cmd_toggle_var_burst
 2707              	 .thumb
 2708              	 .thumb_func
 2710              	EVE_cmd_toggle_var_burst:
 2711              	 
 2712              	 
 2713 0000 2DE9F743 	 push {r0,r1,r2,r4,r5,r6,r7,r8,r9,lr}
 2714 0004 8946     	 mov r9,r1
 2715 0006 8046     	 mov r8,r0
 2716 0008 6FF0ED00 	 mvn r0,#237
 2717 000c 1F46     	 mov r7,r3
 2718 000e 1646     	 mov r6,r2
 2719 0010 BDF82840 	 ldrh r4,[sp,#40]
 2720 0014 9DF83450 	 ldrb r5,[sp,#52]
 2721 0018 FFF7FEFF 	 bl spi_transmit_32
 2722 001c 08EB0940 	 add r0,r8,r9,lsl#16
 2723 0020 FFF7FEFF 	 bl spi_transmit_32
 2724 0024 06EB0740 	 add r0,r6,r7,lsl#16
 2725 0028 FFF7FEFF 	 bl spi_transmit_32
 2726 002c BDF82C00 	 ldrh r0,[sp,#44]
 2727 0030 04EB0040 	 add r0,r4,r0,lsl#16
 2728 0034 FFF7FEFF 	 bl spi_transmit_32
 2729 0038 0C98     	 ldr r0,[sp,#48]
 2730 003a FFF7FEFF 	 bl EVE_write_string
 2731 003e E304     	 lsls r3,r4,#19
 2732 0040 0CD5     	 bpl .L304
 2733 0042 0EAB     	 add r3,sp,#56
 2734 0044 0193     	 str r3,[sp,#4]
 2735 0046 0024     	 movs r4,#0
 2736              	.L306:
 2737 0048 AC42     	 cmp r4,r5
 2738 004a 07D0     	 beq .L304
 2739 004c 019B     	 ldr r3,[sp,#4]
 2740 004e 1A1D     	 adds r2,r3,#4
 2741 0050 1868     	 ldr r0,[r3]
 2742 0052 0192     	 str r2,[sp,#4]
 2743 0054 0134     	 adds r4,r4,#1
 2744 0056 FFF7FEFF 	 bl spi_transmit_32
 2745 005a F5E7     	 b .L306
 2746              	.L304:
 2747 005c 03B0     	 add sp,sp,#12
 2748              	 
 2749 005e BDE8F083 	 pop {r4,r5,r6,r7,r8,r9,pc}
 2751              	 .section .text.EVE_cmd_dl,"ax",%progbits
 2752              	 .align 1
 2753              	 .global EVE_cmd_dl
 2754              	 .thumb
 2755              	 .thumb_func
 2757              	EVE_cmd_dl:
 2758              	 
 2759              	 
 2760 0000 08B5     	 push {r3,lr}
 2761 0002 054B     	 ldr r3,.L313
 2762 0004 1B78     	 ldrb r3,[r3]
 2763 0006 2BB9     	 cbnz r3,.L311
 2764 0008 FFF7FEFF 	 bl EVE_start_command
 2765 000c BDE80840 	 pop {r3,lr}
 2766 0010 FFF7FEBF 	 b EVE_cs_clear
 2767              	.L311:
 2768 0014 08BD     	 pop {r3,pc}
 2769              	.L314:
 2770 0016 00BF     	 .align 2
 2771              	.L313:
 2772 0018 00000000 	 .word .LANCHOR0
 2774              	 .section .text.EVE_cmd_clearcache,"ax",%progbits
 2775              	 .align 1
 2776              	 .global EVE_cmd_clearcache
 2777              	 .thumb
 2778              	 .thumb_func
 2780              	EVE_cmd_clearcache:
 2781              	 
 2782              	 
 2783 0000 6FF0FF00 	 mvn r0,#255
 2784 0004 08B5     	 push {r3,lr}
 2785 0006 FFF7FEFF 	 bl EVE_cmd_dl
 2786 000a 6FF0FE00 	 mvn r0,#254
 2787 000e FFF7FEFF 	 bl EVE_cmd_dl
 2788              	.L316:
 2789 0012 FFF7FEFF 	 bl EVE_busy
 2790 0016 0028     	 cmp r0,#0
 2791 0018 FBD1     	 bne .L316
 2792 001a 6FF0FF00 	 mvn r0,#255
 2793 001e FFF7FEFF 	 bl EVE_cmd_dl
 2794 0022 6FF0FE00 	 mvn r0,#254
 2795 0026 FFF7FEFF 	 bl EVE_cmd_dl
 2796              	.L317:
 2797 002a FFF7FEFF 	 bl EVE_busy
 2798 002e 0028     	 cmp r0,#0
 2799 0030 FBD1     	 bne .L317
 2800 0032 6FF0B000 	 mvn r0,#176
 2801 0036 FFF7FEFF 	 bl EVE_cmd_dl
 2802              	.L318:
 2803 003a FFF7FEFF 	 bl EVE_busy
 2804 003e 0028     	 cmp r0,#0
 2805 0040 FBD1     	 bne .L318
 2806 0042 08BD     	 pop {r3,pc}
 2808              	 .section .text.EVE_init_flash,"ax",%progbits
 2809              	 .align 1
 2810              	 .global EVE_init_flash
 2811              	 .thumb
 2812              	 .thumb_func
 2814              	EVE_init_flash:
 2815              	 
 2816              	 
 2817 0000 38B5     	 push {r3,r4,r5,lr}
 2818 0002 1748     	 ldr r0,.L336
 2819 0004 FFF7FEFF 	 bl EVE_memRead8
 2820 0008 6525     	 movs r5,#101
 2821 000a 0446     	 mov r4,r0
 2822              	.L323:
 2823 000c 64B9     	 cbnz r4,.L335
 2824 000e 1448     	 ldr r0,.L336
 2825 0010 FFF7FEFF 	 bl EVE_memRead8
 2826 0014 013D     	 subs r5,r5,#1
 2827 0016 0446     	 mov r4,r0
 2828 0018 0120     	 movs r0,#1
 2829 001a FFF7FEFF 	 bl delay_ms
 2830 001e 15F0FF05 	 ands r5,r5,#255
 2831 0022 F3D1     	 bne .L323
 2832              	.L328:
 2833 0024 0020     	 movs r0,#0
 2834 0026 38BD     	 pop {r3,r4,r5,pc}
 2835              	.L335:
 2836 0028 012C     	 cmp r4,#1
 2837 002a 12D1     	 bne .L326
 2838 002c 6FF0B600 	 mvn r0,#182
 2839 0030 FFF7FEFF 	 bl EVE_cmd_dl
 2840              	.L327:
 2841 0034 FFF7FEFF 	 bl EVE_busy
 2842 0038 0028     	 cmp r0,#0
 2843 003a FBD1     	 bne .L327
 2844 003c 0848     	 ldr r0,.L336
 2845 003e FFF7FEFF 	 bl EVE_memRead8
 2846 0042 0228     	 cmp r0,#2
 2847 0044 EED1     	 bne .L328
 2848              	.L329:
 2849 0046 FFF7FEFF 	 bl EVE_cmd_flashfast
 2850 004a B0FA80F0 	 clz r0,r0
 2851 004e 4009     	 lsrs r0,r0,#5
 2852 0050 38BD     	 pop {r3,r4,r5,pc}
 2853              	.L326:
 2854 0052 022C     	 cmp r4,#2
 2855 0054 F7D0     	 beq .L329
 2856 0056 E31E     	 subs r3,r4,#3
 2857 0058 5842     	 rsbs r0,r3,#0
 2858 005a 5841     	 adcs r0,r0,r3
 2859 005c 38BD     	 pop {r3,r4,r5,pc}
 2860              	.L337:
 2861 005e 00BF     	 .align 2
 2862              	.L336:
 2863 0060 F0253000 	 .word 3155440
 2865              	 .section .text.EVE_cmd_dl_burst,"ax",%progbits
 2866              	 .align 1
 2867              	 .global EVE_cmd_dl_burst
 2868              	 .thumb
 2869              	 .thumb_func
 2871              	EVE_cmd_dl_burst:
 2872              	 
 2873              	 
 2874              	 
 2875 0000 FFF7FEBF 	 b spi_transmit_32
 2877              	 .section .text.EVE_cmd_append,"ax",%progbits
 2878              	 .align 1
 2879              	 .global EVE_cmd_append
 2880              	 .thumb
 2881              	 .thumb_func
 2883              	EVE_cmd_append:
 2884              	 
 2885              	 
 2886 0000 38B5     	 push {r3,r4,r5,lr}
 2887 0002 0A4B     	 ldr r3,.L341
 2888 0004 1B78     	 ldrb r3,[r3]
 2889 0006 0546     	 mov r5,r0
 2890 0008 0C46     	 mov r4,r1
 2891 000a 6BB9     	 cbnz r3,.L339
 2892 000c 6FF0E100 	 mvn r0,#225
 2893 0010 FFF7FEFF 	 bl EVE_start_command
 2894 0014 2846     	 mov r0,r5
 2895 0016 FFF7FEFF 	 bl spi_transmit_32
 2896 001a 2046     	 mov r0,r4
 2897 001c FFF7FEFF 	 bl spi_transmit_32
 2898 0020 BDE83840 	 pop {r3,r4,r5,lr}
 2899 0024 FFF7FEBF 	 b EVE_cs_clear
 2900              	.L339:
 2901 0028 38BD     	 pop {r3,r4,r5,pc}
 2902              	.L342:
 2903 002a 00BF     	 .align 2
 2904              	.L341:
 2905 002c 00000000 	 .word .LANCHOR0
 2907              	 .section .text.EVE_cmd_append_burst,"ax",%progbits
 2908              	 .align 1
 2909              	 .global EVE_cmd_append_burst
 2910              	 .thumb
 2911              	 .thumb_func
 2913              	EVE_cmd_append_burst:
 2914              	 
 2915              	 
 2916 0000 38B5     	 push {r3,r4,r5,lr}
 2917 0002 0546     	 mov r5,r0
 2918 0004 6FF0E100 	 mvn r0,#225
 2919 0008 0C46     	 mov r4,r1
 2920 000a FFF7FEFF 	 bl spi_transmit_32
 2921 000e 2846     	 mov r0,r5
 2922 0010 FFF7FEFF 	 bl spi_transmit_32
 2923 0014 2046     	 mov r0,r4
 2924 0016 BDE83840 	 pop {r3,r4,r5,lr}
 2925 001a FFF7FEBF 	 b spi_transmit_32
 2927              	 .section .text.EVE_cmd_bgcolor,"ax",%progbits
 2928              	 .align 1
 2929              	 .global EVE_cmd_bgcolor
 2930              	 .thumb
 2931              	 .thumb_func
 2933              	EVE_cmd_bgcolor:
 2934              	 
 2935              	 
 2936 0000 38B5     	 push {r3,r4,r5,lr}
 2937 0002 0E4B     	 ldr r3,.L346
 2938 0004 1B78     	 ldrb r3,[r3]
 2939 0006 0446     	 mov r4,r0
 2940 0008 03F0FF05 	 and r5,r3,#255
 2941 000c ABB9     	 cbnz r3,.L344
 2942 000e 6FF0F600 	 mvn r0,#246
 2943 0012 FFF7FEFF 	 bl EVE_start_command
 2944 0016 E0B2     	 uxtb r0,r4
 2945 0018 FFF7FEFF 	 bl spi_transmit
 2946 001c C4F30720 	 ubfx r0,r4,#8,#8
 2947 0020 FFF7FEFF 	 bl spi_transmit
 2948 0024 C4F30740 	 ubfx r0,r4,#16,#8
 2949 0028 FFF7FEFF 	 bl spi_transmit
 2950 002c 2846     	 mov r0,r5
 2951 002e FFF7FEFF 	 bl spi_transmit
 2952 0032 BDE83840 	 pop {r3,r4,r5,lr}
 2953 0036 FFF7FEBF 	 b EVE_cs_clear
 2954              	.L344:
 2955 003a 38BD     	 pop {r3,r4,r5,pc}
 2956              	.L347:
 2957              	 .align 2
 2958              	.L346:
 2959 003c 00000000 	 .word .LANCHOR0
 2961              	 .section .text.EVE_cmd_bgcolor_burst,"ax",%progbits
 2962              	 .align 1
 2963              	 .global EVE_cmd_bgcolor_burst
 2964              	 .thumb
 2965              	 .thumb_func
 2967              	EVE_cmd_bgcolor_burst:
 2968              	 
 2969              	 
 2970 0000 10B5     	 push {r4,lr}
 2971 0002 0446     	 mov r4,r0
 2972 0004 6FF0F600 	 mvn r0,#246
 2973 0008 FFF7FEFF 	 bl spi_transmit_32
 2974 000c 2046     	 mov r0,r4
 2975 000e BDE81040 	 pop {r4,lr}
 2976 0012 FFF7FEBF 	 b spi_transmit_32
 2978              	 .section .text.EVE_cmd_button,"ax",%progbits
 2979              	 .align 1
 2980              	 .global EVE_cmd_button
 2981              	 .thumb
 2982              	 .thumb_func
 2984              	EVE_cmd_button:
 2985              	 
 2986              	 
 2987 0000 2DE9F047 	 push {r4,r5,r6,r7,r8,r9,r10,lr}
 2988 0004 1E46     	 mov r6,r3
 2989 0006 224B     	 ldr r3,.L351
 2990 0008 BDF92050 	 ldrsh r5,[sp,#32]
 2991 000c 1B78     	 ldrb r3,[r3]
 2992 000e BDF82440 	 ldrh r4,[sp,#36]
 2993 0012 DDF828A0 	 ldr r10,[sp,#40]
 2994 0016 8146     	 mov r9,r0
 2995 0018 8846     	 mov r8,r1
 2996 001a 1746     	 mov r7,r2
 2997 001c ABBB     	 cbnz r3,.L349
 2998 001e 6FF0F200 	 mvn r0,#242
 2999 0022 FFF7FEFF 	 bl EVE_start_command
 3000 0026 5FFA89F0 	 uxtb r0,r9
 3001 002a FFF7FEFF 	 bl spi_transmit
 3002 002e C9F30720 	 ubfx r0,r9,#8,#8
 3003 0032 FFF7FEFF 	 bl spi_transmit
 3004 0036 5FFA88F0 	 uxtb r0,r8
 3005 003a FFF7FEFF 	 bl spi_transmit
 3006 003e C8F30720 	 ubfx r0,r8,#8,#8
 3007 0042 FFF7FEFF 	 bl spi_transmit
 3008 0046 F8B2     	 uxtb r0,r7
 3009 0048 FFF7FEFF 	 bl spi_transmit
 3010 004c C7F30720 	 ubfx r0,r7,#8,#8
 3011 0050 FFF7FEFF 	 bl spi_transmit
 3012 0054 F0B2     	 uxtb r0,r6
 3013 0056 FFF7FEFF 	 bl spi_transmit
 3014 005a C6F30720 	 ubfx r0,r6,#8,#8
 3015 005e FFF7FEFF 	 bl spi_transmit
 3016 0062 E8B2     	 uxtb r0,r5
 3017 0064 FFF7FEFF 	 bl spi_transmit
 3018 0068 C5F30720 	 ubfx r0,r5,#8,#8
 3019 006c FFF7FEFF 	 bl spi_transmit
 3020 0070 E0B2     	 uxtb r0,r4
 3021 0072 FFF7FEFF 	 bl spi_transmit
 3022 0076 200A     	 lsrs r0,r4,#8
 3023 0078 FFF7FEFF 	 bl spi_transmit
 3024 007c 5046     	 mov r0,r10
 3025 007e FFF7FEFF 	 bl EVE_write_string
 3026 0082 BDE8F047 	 pop {r4,r5,r6,r7,r8,r9,r10,lr}
 3027 0086 FFF7FEBF 	 b EVE_cs_clear
 3028              	.L349:
 3029 008a BDE8F087 	 pop {r4,r5,r6,r7,r8,r9,r10,pc}
 3030              	.L352:
 3031 008e 00BF     	 .align 2
 3032              	.L351:
 3033 0090 00000000 	 .word .LANCHOR0
 3035              	 .section .text.EVE_cmd_button_burst,"ax",%progbits
 3036              	 .align 1
 3037              	 .global EVE_cmd_button_burst
 3038              	 .thumb
 3039              	 .thumb_func
 3041              	EVE_cmd_button_burst:
 3042              	 
 3043              	 
 3044 0000 2DE9F047 	 push {r4,r5,r6,r7,r8,r9,r10,lr}
 3045 0004 8A46     	 mov r10,r1
 3046 0006 8146     	 mov r9,r0
 3047 0008 6FF0F200 	 mvn r0,#242
 3048 000c 1746     	 mov r7,r2
 3049 000e 9846     	 mov r8,r3
 3050 0010 BDF92050 	 ldrsh r5,[sp,#32]
 3051 0014 BDF82460 	 ldrh r6,[sp,#36]
 3052 0018 0A9C     	 ldr r4,[sp,#40]
 3053 001a FFF7FEFF 	 bl spi_transmit_32
 3054 001e 09EB0A40 	 add r0,r9,r10,lsl#16
 3055 0022 FFF7FEFF 	 bl spi_transmit_32
 3056 0026 07EB0840 	 add r0,r7,r8,lsl#16
 3057 002a FFF7FEFF 	 bl spi_transmit_32
 3058 002e 05EB0640 	 add r0,r5,r6,lsl#16
 3059 0032 FFF7FEFF 	 bl spi_transmit_32
 3060 0036 2046     	 mov r0,r4
 3061 0038 BDE8F047 	 pop {r4,r5,r6,r7,r8,r9,r10,lr}
 3062 003c FFF7FEBF 	 b EVE_write_string
 3064              	 .section .text.EVE_cmd_calibrate,"ax",%progbits
 3065              	 .align 1
 3066              	 .global EVE_cmd_calibrate
 3067              	 .thumb
 3068              	 .thumb_func
 3070              	EVE_cmd_calibrate:
 3071              	 
 3072              	 
 3073 0000 10B5     	 push {r4,lr}
 3074 0002 084B     	 ldr r3,.L356
 3075 0004 1B78     	 ldrb r3,[r3]
 3076 0006 03F0FF04 	 and r4,r3,#255
 3077 000a 53B9     	 cbnz r3,.L354
 3078 000c 6FF0EA00 	 mvn r0,#234
 3079 0010 FFF7FEFF 	 bl EVE_start_command
 3080 0014 2046     	 mov r0,r4
 3081 0016 FFF7FEFF 	 bl spi_transmit_32
 3082 001a BDE81040 	 pop {r4,lr}
 3083 001e FFF7FEBF 	 b EVE_cs_clear
 3084              	.L354:
 3085 0022 10BD     	 pop {r4,pc}
 3086              	.L357:
 3087              	 .align 2
 3088              	.L356:
 3089 0024 00000000 	 .word .LANCHOR0
 3091              	 .section .text.EVE_cmd_clock,"ax",%progbits
 3092              	 .align 1
 3093              	 .global EVE_cmd_clock
 3094              	 .thumb
 3095              	 .thumb_func
 3097              	EVE_cmd_clock:
 3098              	 
 3099              	 
 3100 0000 2DE9F84F 	 push {r3,r4,r5,r6,r7,r8,r9,r10,fp,lr}
 3101 0004 9846     	 mov r8,r3
 3102 0006 284B     	 ldr r3,.L360
 3103 0008 BDF82870 	 ldrh r7,[sp,#40]
 3104 000c 1B78     	 ldrb r3,[r3]
 3105 000e BDF82C60 	 ldrh r6,[sp,#44]
 3106 0012 BDF83050 	 ldrh r5,[sp,#48]
 3107 0016 BDF83440 	 ldrh r4,[sp,#52]
 3108 001a 8346     	 mov fp,r0
 3109 001c 8A46     	 mov r10,r1
 3110 001e 9146     	 mov r9,r2
 3111 0020 002B     	 cmp r3,#0
 3112 0022 3FD1     	 bne .L358
 3113 0024 6FF0EB00 	 mvn r0,#235
 3114 0028 FFF7FEFF 	 bl EVE_start_command
 3115 002c 5FFA8BF0 	 uxtb r0,fp
 3116 0030 FFF7FEFF 	 bl spi_transmit
 3117 0034 CBF30720 	 ubfx r0,fp,#8,#8
 3118 0038 FFF7FEFF 	 bl spi_transmit
 3119 003c 5FFA8AF0 	 uxtb r0,r10
 3120 0040 FFF7FEFF 	 bl spi_transmit
 3121 0044 CAF30720 	 ubfx r0,r10,#8,#8
 3122 0048 FFF7FEFF 	 bl spi_transmit
 3123 004c 5FFA89F0 	 uxtb r0,r9
 3124 0050 FFF7FEFF 	 bl spi_transmit
 3125 0054 C9F30720 	 ubfx r0,r9,#8,#8
 3126 0058 FFF7FEFF 	 bl spi_transmit
 3127 005c 5FFA88F0 	 uxtb r0,r8
 3128 0060 FFF7FEFF 	 bl spi_transmit
 3129 0064 4FEA1820 	 lsr r0,r8,#8
 3130 0068 FFF7FEFF 	 bl spi_transmit
 3131 006c F8B2     	 uxtb r0,r7
 3132 006e FFF7FEFF 	 bl spi_transmit
 3133 0072 380A     	 lsrs r0,r7,#8
 3134 0074 FFF7FEFF 	 bl spi_transmit
 3135 0078 F0B2     	 uxtb r0,r6
 3136 007a FFF7FEFF 	 bl spi_transmit
 3137 007e 300A     	 lsrs r0,r6,#8
 3138 0080 FFF7FEFF 	 bl spi_transmit
 3139 0084 E8B2     	 uxtb r0,r5
 3140 0086 FFF7FEFF 	 bl spi_transmit
 3141 008a 280A     	 lsrs r0,r5,#8
 3142 008c FFF7FEFF 	 bl spi_transmit
 3143 0090 E0B2     	 uxtb r0,r4
 3144 0092 FFF7FEFF 	 bl spi_transmit
 3145 0096 200A     	 lsrs r0,r4,#8
 3146 0098 FFF7FEFF 	 bl spi_transmit
 3147 009c BDE8F84F 	 pop {r3,r4,r5,r6,r7,r8,r9,r10,fp,lr}
 3148 00a0 FFF7FEBF 	 b EVE_cs_clear
 3149              	.L358:
 3150 00a4 BDE8F88F 	 pop {r3,r4,r5,r6,r7,r8,r9,r10,fp,pc}
 3151              	.L361:
 3152              	 .align 2
 3153              	.L360:
 3154 00a8 00000000 	 .word .LANCHOR0
 3156              	 .section .text.EVE_cmd_clock_burst,"ax",%progbits
 3157              	 .align 1
 3158              	 .global EVE_cmd_clock_burst
 3159              	 .thumb
 3160              	 .thumb_func
 3162              	EVE_cmd_clock_burst:
 3163              	 
 3164              	 
 3165 0000 2DE9F84F 	 push {r3,r4,r5,r6,r7,r8,r9,r10,fp,lr}
 3166 0004 8B46     	 mov fp,r1
 3167 0006 8246     	 mov r10,r0
 3168 0008 6FF0EB00 	 mvn r0,#235
 3169 000c 9046     	 mov r8,r2
 3170 000e 9946     	 mov r9,r3
 3171 0010 BDF82860 	 ldrh r6,[sp,#40]
 3172 0014 BDF82C70 	 ldrh r7,[sp,#44]
 3173 0018 BDF83040 	 ldrh r4,[sp,#48]
 3174 001c BDF83450 	 ldrh r5,[sp,#52]
 3175 0020 FFF7FEFF 	 bl spi_transmit_32
 3176 0024 0AEB0B40 	 add r0,r10,fp,lsl#16
 3177 0028 FFF7FEFF 	 bl spi_transmit_32
 3178 002c 08EB0940 	 add r0,r8,r9,lsl#16
 3179 0030 FFF7FEFF 	 bl spi_transmit_32
 3180 0034 06EB0740 	 add r0,r6,r7,lsl#16
 3181 0038 FFF7FEFF 	 bl spi_transmit_32
 3182 003c 04EB0540 	 add r0,r4,r5,lsl#16
 3183 0040 BDE8F84F 	 pop {r3,r4,r5,r6,r7,r8,r9,r10,fp,lr}
 3184 0044 FFF7FEBF 	 b spi_transmit_32
 3186              	 .section .text.EVE_cmd_dial,"ax",%progbits
 3187              	 .align 1
 3188              	 .global EVE_cmd_dial
 3189              	 .thumb
 3190              	 .thumb_func
 3192              	EVE_cmd_dial:
 3193              	 
 3194              	 
 3195 0000 2DE9F843 	 push {r3,r4,r5,r6,r7,r8,r9,lr}
 3196 0004 1E46     	 mov r6,r3
 3197 0006 1E4B     	 ldr r3,.L365
 3198 0008 BDF82050 	 ldrh r5,[sp,#32]
 3199 000c 1B78     	 ldrb r3,[r3]
 3200 000e 8146     	 mov r9,r0
 3201 0010 8846     	 mov r8,r1
 3202 0012 1746     	 mov r7,r2
 3203 0014 03F0FF04 	 and r4,r3,#255
 3204 0018 83BB     	 cbnz r3,.L363
 3205 001a 6FF0D200 	 mvn r0,#210
 3206 001e FFF7FEFF 	 bl EVE_start_command
 3207 0022 5FFA89F0 	 uxtb r0,r9
 3208 0026 FFF7FEFF 	 bl spi_transmit
 3209 002a C9F30720 	 ubfx r0,r9,#8,#8
 3210 002e FFF7FEFF 	 bl spi_transmit
 3211 0032 5FFA88F0 	 uxtb r0,r8
 3212 0036 FFF7FEFF 	 bl spi_transmit
 3213 003a C8F30720 	 ubfx r0,r8,#8,#8
 3214 003e FFF7FEFF 	 bl spi_transmit
 3215 0042 F8B2     	 uxtb r0,r7
 3216 0044 FFF7FEFF 	 bl spi_transmit
 3217 0048 C7F30720 	 ubfx r0,r7,#8,#8
 3218 004c FFF7FEFF 	 bl spi_transmit
 3219 0050 F0B2     	 uxtb r0,r6
 3220 0052 FFF7FEFF 	 bl spi_transmit
 3221 0056 300A     	 lsrs r0,r6,#8
 3222 0058 FFF7FEFF 	 bl spi_transmit
 3223 005c E8B2     	 uxtb r0,r5
 3224 005e FFF7FEFF 	 bl spi_transmit
 3225 0062 280A     	 lsrs r0,r5,#8
 3226 0064 FFF7FEFF 	 bl spi_transmit
 3227 0068 2046     	 mov r0,r4
 3228 006a FFF7FEFF 	 bl spi_transmit
 3229 006e 2046     	 mov r0,r4
 3230 0070 FFF7FEFF 	 bl spi_transmit
 3231 0074 BDE8F843 	 pop {r3,r4,r5,r6,r7,r8,r9,lr}
 3232 0078 FFF7FEBF 	 b EVE_cs_clear
 3233              	.L363:
 3234 007c BDE8F883 	 pop {r3,r4,r5,r6,r7,r8,r9,pc}
 3235              	.L366:
 3236              	 .align 2
 3237              	.L365:
 3238 0080 00000000 	 .word .LANCHOR0
 3240              	 .section .text.EVE_cmd_dial_burst,"ax",%progbits
 3241              	 .align 1
 3242              	 .global EVE_cmd_dial_burst
 3243              	 .thumb
 3244              	 .thumb_func
 3246              	EVE_cmd_dial_burst:
 3247              	 
 3248              	 
 3249 0000 2DE9F041 	 push {r4,r5,r6,r7,r8,lr}
 3250 0004 8846     	 mov r8,r1
 3251 0006 0746     	 mov r7,r0
 3252 0008 6FF0D200 	 mvn r0,#210
 3253 000c 1546     	 mov r5,r2
 3254 000e 1E46     	 mov r6,r3
 3255 0010 BDF81840 	 ldrh r4,[sp,#24]
 3256 0014 FFF7FEFF 	 bl spi_transmit_32
 3257 0018 07EB0840 	 add r0,r7,r8,lsl#16
 3258 001c FFF7FEFF 	 bl spi_transmit_32
 3259 0020 05EB0640 	 add r0,r5,r6,lsl#16
 3260 0024 FFF7FEFF 	 bl spi_transmit_32
 3261 0028 2046     	 mov r0,r4
 3262 002a BDE8F041 	 pop {r4,r5,r6,r7,r8,lr}
 3263 002e FFF7FEBF 	 b spi_transmit_32
 3265              	 .section .text.EVE_cmd_fgcolor,"ax",%progbits
 3266              	 .align 1
 3267              	 .global EVE_cmd_fgcolor
 3268              	 .thumb
 3269              	 .thumb_func
 3271              	EVE_cmd_fgcolor:
 3272              	 
 3273              	 
 3274 0000 38B5     	 push {r3,r4,r5,lr}
 3275 0002 0E4B     	 ldr r3,.L370
 3276 0004 1B78     	 ldrb r3,[r3]
 3277 0006 0446     	 mov r4,r0
 3278 0008 03F0FF05 	 and r5,r3,#255
 3279 000c ABB9     	 cbnz r3,.L368
 3280 000e 6FF0F500 	 mvn r0,#245
 3281 0012 FFF7FEFF 	 bl EVE_start_command
 3282 0016 E0B2     	 uxtb r0,r4
 3283 0018 FFF7FEFF 	 bl spi_transmit
 3284 001c C4F30720 	 ubfx r0,r4,#8,#8
 3285 0020 FFF7FEFF 	 bl spi_transmit
 3286 0024 C4F30740 	 ubfx r0,r4,#16,#8
 3287 0028 FFF7FEFF 	 bl spi_transmit
 3288 002c 2846     	 mov r0,r5
 3289 002e FFF7FEFF 	 bl spi_transmit
 3290 0032 BDE83840 	 pop {r3,r4,r5,lr}
 3291 0036 FFF7FEBF 	 b EVE_cs_clear
 3292              	.L368:
 3293 003a 38BD     	 pop {r3,r4,r5,pc}
 3294              	.L371:
 3295              	 .align 2
 3296              	.L370:
 3297 003c 00000000 	 .word .LANCHOR0
 3299              	 .section .text.EVE_cmd_fgcolor_burst,"ax",%progbits
 3300              	 .align 1
 3301              	 .global EVE_cmd_fgcolor_burst
 3302              	 .thumb
 3303              	 .thumb_func
 3305              	EVE_cmd_fgcolor_burst:
 3306              	 
 3307              	 
 3308 0000 10B5     	 push {r4,lr}
 3309 0002 0446     	 mov r4,r0
 3310 0004 6FF0F500 	 mvn r0,#245
 3311 0008 FFF7FEFF 	 bl spi_transmit_32
 3312 000c 2046     	 mov r0,r4
 3313 000e BDE81040 	 pop {r4,lr}
 3314 0012 FFF7FEBF 	 b spi_transmit_32
 3316              	 .section .text.EVE_cmd_gauge,"ax",%progbits
 3317              	 .align 1
 3318              	 .global EVE_cmd_gauge
 3319              	 .thumb
 3320              	 .thumb_func
 3322              	EVE_cmd_gauge:
 3323              	 
 3324              	 
 3325 0000 2DE9F84F 	 push {r3,r4,r5,r6,r7,r8,r9,r10,fp,lr}
 3326 0004 9846     	 mov r8,r3
 3327 0006 284B     	 ldr r3,.L375
 3328 0008 BDF82870 	 ldrh r7,[sp,#40]
 3329 000c 1B78     	 ldrb r3,[r3]
 3330 000e BDF82C60 	 ldrh r6,[sp,#44]
 3331 0012 BDF83050 	 ldrh r5,[sp,#48]
 3332 0016 BDF83440 	 ldrh r4,[sp,#52]
 3333 001a 8346     	 mov fp,r0
 3334 001c 8A46     	 mov r10,r1
 3335 001e 9146     	 mov r9,r2
 3336 0020 002B     	 cmp r3,#0
 3337 0022 3FD1     	 bne .L373
 3338 0024 6FF0EC00 	 mvn r0,#236
 3339 0028 FFF7FEFF 	 bl EVE_start_command
 3340 002c 5FFA8BF0 	 uxtb r0,fp
 3341 0030 FFF7FEFF 	 bl spi_transmit
 3342 0034 CBF30720 	 ubfx r0,fp,#8,#8
 3343 0038 FFF7FEFF 	 bl spi_transmit
 3344 003c 5FFA8AF0 	 uxtb r0,r10
 3345 0040 FFF7FEFF 	 bl spi_transmit
 3346 0044 CAF30720 	 ubfx r0,r10,#8,#8
 3347 0048 FFF7FEFF 	 bl spi_transmit
 3348 004c 5FFA89F0 	 uxtb r0,r9
 3349 0050 FFF7FEFF 	 bl spi_transmit
 3350 0054 C9F30720 	 ubfx r0,r9,#8,#8
 3351 0058 FFF7FEFF 	 bl spi_transmit
 3352 005c 5FFA88F0 	 uxtb r0,r8
 3353 0060 FFF7FEFF 	 bl spi_transmit
 3354 0064 4FEA1820 	 lsr r0,r8,#8
 3355 0068 FFF7FEFF 	 bl spi_transmit
 3356 006c F8B2     	 uxtb r0,r7
 3357 006e FFF7FEFF 	 bl spi_transmit
 3358 0072 380A     	 lsrs r0,r7,#8
 3359 0074 FFF7FEFF 	 bl spi_transmit
 3360 0078 F0B2     	 uxtb r0,r6
 3361 007a FFF7FEFF 	 bl spi_transmit
 3362 007e 300A     	 lsrs r0,r6,#8
 3363 0080 FFF7FEFF 	 bl spi_transmit
 3364 0084 E8B2     	 uxtb r0,r5
 3365 0086 FFF7FEFF 	 bl spi_transmit
 3366 008a 280A     	 lsrs r0,r5,#8
 3367 008c FFF7FEFF 	 bl spi_transmit
 3368 0090 E0B2     	 uxtb r0,r4
 3369 0092 FFF7FEFF 	 bl spi_transmit
 3370 0096 200A     	 lsrs r0,r4,#8
 3371 0098 FFF7FEFF 	 bl spi_transmit
 3372 009c BDE8F84F 	 pop {r3,r4,r5,r6,r7,r8,r9,r10,fp,lr}
 3373 00a0 FFF7FEBF 	 b EVE_cs_clear
 3374              	.L373:
 3375 00a4 BDE8F88F 	 pop {r3,r4,r5,r6,r7,r8,r9,r10,fp,pc}
 3376              	.L376:
 3377              	 .align 2
 3378              	.L375:
 3379 00a8 00000000 	 .word .LANCHOR0
 3381              	 .section .text.EVE_cmd_gauge_burst,"ax",%progbits
 3382              	 .align 1
 3383              	 .global EVE_cmd_gauge_burst
 3384              	 .thumb
 3385              	 .thumb_func
 3387              	EVE_cmd_gauge_burst:
 3388              	 
 3389              	 
 3390 0000 2DE9F84F 	 push {r3,r4,r5,r6,r7,r8,r9,r10,fp,lr}
 3391 0004 8B46     	 mov fp,r1
 3392 0006 8246     	 mov r10,r0
 3393 0008 6FF0EC00 	 mvn r0,#236
 3394 000c 9046     	 mov r8,r2
 3395 000e 9946     	 mov r9,r3
 3396 0010 BDF82860 	 ldrh r6,[sp,#40]
 3397 0014 BDF82C70 	 ldrh r7,[sp,#44]
 3398 0018 BDF83040 	 ldrh r4,[sp,#48]
 3399 001c BDF83450 	 ldrh r5,[sp,#52]
 3400 0020 FFF7FEFF 	 bl spi_transmit_32
 3401 0024 0AEB0B40 	 add r0,r10,fp,lsl#16
 3402 0028 FFF7FEFF 	 bl spi_transmit_32
 3403 002c 08EB0940 	 add r0,r8,r9,lsl#16
 3404 0030 FFF7FEFF 	 bl spi_transmit_32
 3405 0034 06EB0740 	 add r0,r6,r7,lsl#16
 3406 0038 FFF7FEFF 	 bl spi_transmit_32
 3407 003c 04EB0540 	 add r0,r4,r5,lsl#16
 3408 0040 BDE8F84F 	 pop {r3,r4,r5,r6,r7,r8,r9,r10,fp,lr}
 3409 0044 FFF7FEBF 	 b spi_transmit_32
 3411              	 .section .text.EVE_cmd_getmatrix,"ax",%progbits
 3412              	 .align 1
 3413              	 .global EVE_cmd_getmatrix
 3414              	 .thumb
 3415              	 .thumb_func
 3417              	EVE_cmd_getmatrix:
 3418              	 
 3419              	 
 3420 0000 2DE9F047 	 push {r4,r5,r6,r7,r8,r9,r10,lr}
 3421 0004 9846     	 mov r8,r3
 3422 0006 394B     	 ldr r3,.L407
 3423 0008 DDF82090 	 ldr r9,[sp,#32]
 3424 000c 1B78     	 ldrb r3,[r3]
 3425 000e DDF824A0 	 ldr r10,[sp,#36]
 3426 0012 0546     	 mov r5,r0
 3427 0014 0E46     	 mov r6,r1
 3428 0016 1746     	 mov r7,r2
 3429 0018 03F0FF04 	 and r4,r3,#255
 3430 001c 002B     	 cmp r3,#0
 3431 001e 63D1     	 bne .L378
 3432 0020 6FF0CC00 	 mvn r0,#204
 3433 0024 FFF7FEFF 	 bl EVE_start_command
 3434 0028 2046     	 mov r0,r4
 3435 002a FFF7FEFF 	 bl spi_transmit_32
 3436 002e 2046     	 mov r0,r4
 3437 0030 FFF7FEFF 	 bl spi_transmit_32
 3438 0034 2046     	 mov r0,r4
 3439 0036 FFF7FEFF 	 bl spi_transmit_32
 3440 003a 2046     	 mov r0,r4
 3441 003c FFF7FEFF 	 bl spi_transmit_32
 3442 0040 2046     	 mov r0,r4
 3443 0042 FFF7FEFF 	 bl spi_transmit_32
 3444 0046 2046     	 mov r0,r4
 3445 0048 FFF7FEFF 	 bl spi_transmit_32
 3446 004c FFF7FEFF 	 bl EVE_cs_clear
 3447              	.L381:
 3448 0050 FFF7FEFF 	 bl EVE_busy
 3449 0054 0028     	 cmp r0,#0
 3450 0056 FBD1     	 bne .L381
 3451 0058 2548     	 ldr r0,.L407+4
 3452 005a FFF7FEFF 	 bl EVE_memRead16
 3453 005e 0446     	 mov r4,r0
 3454 0060 BAF1000F 	 cmp r10,#0
 3455 0064 08D0     	 beq .L382
 3456 0066 0438     	 subs r0,r0,#4
 3457 0068 C0F30B00 	 ubfx r0,r0,#0,#12
 3458 006c 00F54210 	 add r0,r0,#3178496
 3459 0070 FFF7FEFF 	 bl EVE_memRead32
 3460 0074 CAF80000 	 str r0,[r10]
 3461              	.L382:
 3462 0078 B9F1000F 	 cmp r9,#0
 3463 007c 09D0     	 beq .L383
 3464 007e A4F10800 	 sub r0,r4,#8
 3465 0082 C0F30B00 	 ubfx r0,r0,#0,#12
 3466 0086 00F54210 	 add r0,r0,#3178496
 3467 008a FFF7FEFF 	 bl EVE_memRead32
 3468 008e C9F80000 	 str r0,[r9]
 3469              	.L383:
 3470 0092 B8F1000F 	 cmp r8,#0
 3471 0096 09D0     	 beq .L384
 3472 0098 A4F10C00 	 sub r0,r4,#12
 3473 009c C0F30B00 	 ubfx r0,r0,#0,#12
 3474 00a0 00F54210 	 add r0,r0,#3178496
 3475 00a4 FFF7FEFF 	 bl EVE_memRead32
 3476 00a8 C8F80000 	 str r0,[r8]
 3477              	.L384:
 3478 00ac 47B1     	 cbz r7,.L385
 3479 00ae A4F11000 	 sub r0,r4,#16
 3480 00b2 C0F30B00 	 ubfx r0,r0,#0,#12
 3481 00b6 00F54210 	 add r0,r0,#3178496
 3482 00ba FFF7FEFF 	 bl EVE_memRead32
 3483 00be 3860     	 str r0,[r7]
 3484              	.L385:
 3485 00c0 46B1     	 cbz r6,.L386
 3486 00c2 A4F11400 	 sub r0,r4,#20
 3487 00c6 C0F30B00 	 ubfx r0,r0,#0,#12
 3488 00ca 00F54210 	 add r0,r0,#3178496
 3489 00ce FFF7FEFF 	 bl EVE_memRead32
 3490 00d2 3060     	 str r0,[r6]
 3491              	.L386:
 3492 00d4 45B1     	 cbz r5,.L378
 3493 00d6 A4F11800 	 sub r0,r4,#24
 3494 00da C0F30B00 	 ubfx r0,r0,#0,#12
 3495 00de 00F54210 	 add r0,r0,#3178496
 3496 00e2 FFF7FEFF 	 bl EVE_memRead32
 3497 00e6 2860     	 str r0,[r5]
 3498              	.L378:
 3499 00e8 BDE8F087 	 pop {r4,r5,r6,r7,r8,r9,r10,pc}
 3500              	.L408:
 3501              	 .align 2
 3502              	.L407:
 3503 00ec 00000000 	 .word .LANCHOR0
 3504 00f0 FC203000 	 .word 3154172
 3506              	 .section .text.EVE_cmd_gradcolor,"ax",%progbits
 3507              	 .align 1
 3508              	 .global EVE_cmd_gradcolor
 3509              	 .thumb
 3510              	 .thumb_func
 3512              	EVE_cmd_gradcolor:
 3513              	 
 3514              	 
 3515 0000 38B5     	 push {r3,r4,r5,lr}
 3516 0002 0E4B     	 ldr r3,.L411
 3517 0004 1B78     	 ldrb r3,[r3]
 3518 0006 0446     	 mov r4,r0
 3519 0008 03F0FF05 	 and r5,r3,#255
 3520 000c ABB9     	 cbnz r3,.L409
 3521 000e 6FF0CB00 	 mvn r0,#203
 3522 0012 FFF7FEFF 	 bl EVE_start_command
 3523 0016 E0B2     	 uxtb r0,r4
 3524 0018 FFF7FEFF 	 bl spi_transmit
 3525 001c C4F30720 	 ubfx r0,r4,#8,#8
 3526 0020 FFF7FEFF 	 bl spi_transmit
 3527 0024 C4F30740 	 ubfx r0,r4,#16,#8
 3528 0028 FFF7FEFF 	 bl spi_transmit
 3529 002c 2846     	 mov r0,r5
 3530 002e FFF7FEFF 	 bl spi_transmit
 3531 0032 BDE83840 	 pop {r3,r4,r5,lr}
 3532 0036 FFF7FEBF 	 b EVE_cs_clear
 3533              	.L409:
 3534 003a 38BD     	 pop {r3,r4,r5,pc}
 3535              	.L412:
 3536              	 .align 2
 3537              	.L411:
 3538 003c 00000000 	 .word .LANCHOR0
 3540              	 .section .text.EVE_cmd_gradcolor_burst,"ax",%progbits
 3541              	 .align 1
 3542              	 .global EVE_cmd_gradcolor_burst
 3543              	 .thumb
 3544              	 .thumb_func
 3546              	EVE_cmd_gradcolor_burst:
 3547              	 
 3548              	 
 3549 0000 10B5     	 push {r4,lr}
 3550 0002 0446     	 mov r4,r0
 3551 0004 6FF0CB00 	 mvn r0,#203
 3552 0008 FFF7FEFF 	 bl spi_transmit_32
 3553 000c 2046     	 mov r0,r4
 3554 000e BDE81040 	 pop {r4,lr}
 3555 0012 FFF7FEBF 	 b spi_transmit_32
 3557              	 .section .text.EVE_cmd_gradient,"ax",%progbits
 3558              	 .align 1
 3559              	 .global EVE_cmd_gradient
 3560              	 .thumb
 3561              	 .thumb_func
 3563              	EVE_cmd_gradient:
 3564              	 
 3565              	 
 3566 0000 2DE9F047 	 push {r4,r5,r6,r7,r8,r9,r10,lr}
 3567 0004 9846     	 mov r8,r3
 3568 0006 284B     	 ldr r3,.L416
 3569 0008 BDF92070 	 ldrsh r7,[sp,#32]
 3570 000c 1B78     	 ldrb r3,[r3]
 3571 000e 099C     	 ldr r4,[sp,#36]
 3572 0010 8246     	 mov r10,r0
 3573 0012 8946     	 mov r9,r1
 3574 0014 1546     	 mov r5,r2
 3575 0016 03F0FF06 	 and r6,r3,#255
 3576 001a 002B     	 cmp r3,#0
 3577 001c 42D1     	 bne .L414
 3578 001e 6FF0F400 	 mvn r0,#244
 3579 0022 FFF7FEFF 	 bl EVE_start_command
 3580 0026 5FFA8AF0 	 uxtb r0,r10
 3581 002a FFF7FEFF 	 bl spi_transmit
 3582 002e CAF30720 	 ubfx r0,r10,#8,#8
 3583 0032 FFF7FEFF 	 bl spi_transmit
 3584 0036 5FFA89F0 	 uxtb r0,r9
 3585 003a FFF7FEFF 	 bl spi_transmit
 3586 003e C9F30720 	 ubfx r0,r9,#8,#8
 3587 0042 FFF7FEFF 	 bl spi_transmit
 3588 0046 E8B2     	 uxtb r0,r5
 3589 0048 FFF7FEFF 	 bl spi_transmit
 3590 004c C5F30720 	 ubfx r0,r5,#8,#8
 3591 0050 FFF7FEFF 	 bl spi_transmit
 3592 0054 C5F30740 	 ubfx r0,r5,#16,#8
 3593 0058 FFF7FEFF 	 bl spi_transmit
 3594 005c 3046     	 mov r0,r6
 3595 005e FFF7FEFF 	 bl spi_transmit
 3596 0062 5FFA88F0 	 uxtb r0,r8
 3597 0066 FFF7FEFF 	 bl spi_transmit
 3598 006a C8F30720 	 ubfx r0,r8,#8,#8
 3599 006e FFF7FEFF 	 bl spi_transmit
 3600 0072 F8B2     	 uxtb r0,r7
 3601 0074 FFF7FEFF 	 bl spi_transmit
 3602 0078 C7F30720 	 ubfx r0,r7,#8,#8
 3603 007c FFF7FEFF 	 bl spi_transmit
 3604 0080 E0B2     	 uxtb r0,r4
 3605 0082 FFF7FEFF 	 bl spi_transmit
 3606 0086 C4F30720 	 ubfx r0,r4,#8,#8
 3607 008a FFF7FEFF 	 bl spi_transmit
 3608 008e C4F30740 	 ubfx r0,r4,#16,#8
 3609 0092 FFF7FEFF 	 bl spi_transmit
 3610 0096 3046     	 mov r0,r6
 3611 0098 FFF7FEFF 	 bl spi_transmit
 3612 009c BDE8F047 	 pop {r4,r5,r6,r7,r8,r9,r10,lr}
 3613 00a0 FFF7FEBF 	 b EVE_cs_clear
 3614              	.L414:
 3615 00a4 BDE8F087 	 pop {r4,r5,r6,r7,r8,r9,r10,pc}
 3616              	.L417:
 3617              	 .align 2
 3618              	.L416:
 3619 00a8 00000000 	 .word .LANCHOR0
 3621              	 .section .text.EVE_cmd_gradient_burst,"ax",%progbits
 3622              	 .align 1
 3623              	 .global EVE_cmd_gradient_burst
 3624              	 .thumb
 3625              	 .thumb_func
 3627              	EVE_cmd_gradient_burst:
 3628              	 
 3629              	 
 3630 0000 2DE9F843 	 push {r3,r4,r5,r6,r7,r8,r9,lr}
 3631 0004 8946     	 mov r9,r1
 3632 0006 8046     	 mov r8,r0
 3633 0008 6FF0F400 	 mvn r0,#244
 3634 000c 1746     	 mov r7,r2
 3635 000e 1D46     	 mov r5,r3
 3636 0010 BDF92060 	 ldrsh r6,[sp,#32]
 3637 0014 099C     	 ldr r4,[sp,#36]
 3638 0016 FFF7FEFF 	 bl spi_transmit_32
 3639 001a 08EB0940 	 add r0,r8,r9,lsl#16
 3640 001e FFF7FEFF 	 bl spi_transmit_32
 3641 0022 3846     	 mov r0,r7
 3642 0024 FFF7FEFF 	 bl spi_transmit_32
 3643 0028 05EB0640 	 add r0,r5,r6,lsl#16
 3644 002c FFF7FEFF 	 bl spi_transmit_32
 3645 0030 2046     	 mov r0,r4
 3646 0032 BDE8F843 	 pop {r3,r4,r5,r6,r7,r8,r9,lr}
 3647 0036 FFF7FEBF 	 b spi_transmit_32
 3649              	 .section .text.EVE_cmd_keys,"ax",%progbits
 3650              	 .align 1
 3651              	 .global EVE_cmd_keys
 3652              	 .thumb
 3653              	 .thumb_func
 3655              	EVE_cmd_keys:
 3656              	 
 3657              	 
 3658 0000 2DE9F047 	 push {r4,r5,r6,r7,r8,r9,r10,lr}
 3659 0004 1E46     	 mov r6,r3
 3660 0006 224B     	 ldr r3,.L421
 3661 0008 BDF92050 	 ldrsh r5,[sp,#32]
 3662 000c 1B78     	 ldrb r3,[r3]
 3663 000e BDF82440 	 ldrh r4,[sp,#36]
 3664 0012 DDF828A0 	 ldr r10,[sp,#40]
 3665 0016 8146     	 mov r9,r0
 3666 0018 8846     	 mov r8,r1
 3667 001a 1746     	 mov r7,r2
 3668 001c ABBB     	 cbnz r3,.L419
 3669 001e 6FF0F100 	 mvn r0,#241
 3670 0022 FFF7FEFF 	 bl EVE_start_command
 3671 0026 5FFA89F0 	 uxtb r0,r9
 3672 002a FFF7FEFF 	 bl spi_transmit
 3673 002e C9F30720 	 ubfx r0,r9,#8,#8
 3674 0032 FFF7FEFF 	 bl spi_transmit
 3675 0036 5FFA88F0 	 uxtb r0,r8
 3676 003a FFF7FEFF 	 bl spi_transmit
 3677 003e C8F30720 	 ubfx r0,r8,#8,#8
 3678 0042 FFF7FEFF 	 bl spi_transmit
 3679 0046 F8B2     	 uxtb r0,r7
 3680 0048 FFF7FEFF 	 bl spi_transmit
 3681 004c C7F30720 	 ubfx r0,r7,#8,#8
 3682 0050 FFF7FEFF 	 bl spi_transmit
 3683 0054 F0B2     	 uxtb r0,r6
 3684 0056 FFF7FEFF 	 bl spi_transmit
 3685 005a C6F30720 	 ubfx r0,r6,#8,#8
 3686 005e FFF7FEFF 	 bl spi_transmit
 3687 0062 E8B2     	 uxtb r0,r5
 3688 0064 FFF7FEFF 	 bl spi_transmit
 3689 0068 C5F30720 	 ubfx r0,r5,#8,#8
 3690 006c FFF7FEFF 	 bl spi_transmit
 3691 0070 E0B2     	 uxtb r0,r4
 3692 0072 FFF7FEFF 	 bl spi_transmit
 3693 0076 200A     	 lsrs r0,r4,#8
 3694 0078 FFF7FEFF 	 bl spi_transmit
 3695 007c 5046     	 mov r0,r10
 3696 007e FFF7FEFF 	 bl EVE_write_string
 3697 0082 BDE8F047 	 pop {r4,r5,r6,r7,r8,r9,r10,lr}
 3698 0086 FFF7FEBF 	 b EVE_cs_clear
 3699              	.L419:
 3700 008a BDE8F087 	 pop {r4,r5,r6,r7,r8,r9,r10,pc}
 3701              	.L422:
 3702 008e 00BF     	 .align 2
 3703              	.L421:
 3704 0090 00000000 	 .word .LANCHOR0
 3706              	 .section .text.EVE_cmd_keys_burst,"ax",%progbits
 3707              	 .align 1
 3708              	 .global EVE_cmd_keys_burst
 3709              	 .thumb
 3710              	 .thumb_func
 3712              	EVE_cmd_keys_burst:
 3713              	 
 3714              	 
 3715 0000 2DE9F047 	 push {r4,r5,r6,r7,r8,r9,r10,lr}
 3716 0004 8A46     	 mov r10,r1
 3717 0006 8146     	 mov r9,r0
 3718 0008 6FF0F100 	 mvn r0,#241
 3719 000c 1746     	 mov r7,r2
 3720 000e 9846     	 mov r8,r3
 3721 0010 BDF92050 	 ldrsh r5,[sp,#32]
 3722 0014 BDF82460 	 ldrh r6,[sp,#36]
 3723 0018 0A9C     	 ldr r4,[sp,#40]
 3724 001a FFF7FEFF 	 bl spi_transmit_32
 3725 001e 09EB0A40 	 add r0,r9,r10,lsl#16
 3726 0022 FFF7FEFF 	 bl spi_transmit_32
 3727 0026 07EB0840 	 add r0,r7,r8,lsl#16
 3728 002a FFF7FEFF 	 bl spi_transmit_32
 3729 002e 05EB0640 	 add r0,r5,r6,lsl#16
 3730 0032 FFF7FEFF 	 bl spi_transmit_32
 3731 0036 2046     	 mov r0,r4
 3732 0038 BDE8F047 	 pop {r4,r5,r6,r7,r8,r9,r10,lr}
 3733 003c FFF7FEBF 	 b EVE_write_string
 3735              	 .section .text.EVE_cmd_number,"ax",%progbits
 3736              	 .align 1
 3737              	 .global EVE_cmd_number
 3738              	 .thumb
 3739              	 .thumb_func
 3741              	EVE_cmd_number:
 3742              	 
 3743              	 
 3744 0000 2DE9F041 	 push {r4,r5,r6,r7,r8,lr}
 3745 0004 1C46     	 mov r4,r3
 3746 0006 184B     	 ldr r3,.L426
 3747 0008 DDF81880 	 ldr r8,[sp,#24]
 3748 000c 1B78     	 ldrb r3,[r3]
 3749 000e 0746     	 mov r7,r0
 3750 0010 0E46     	 mov r6,r1
 3751 0012 1546     	 mov r5,r2
 3752 0014 2BBB     	 cbnz r3,.L424
 3753 0016 6FF0D100 	 mvn r0,#209
 3754 001a FFF7FEFF 	 bl EVE_start_command
 3755 001e F8B2     	 uxtb r0,r7
 3756 0020 FFF7FEFF 	 bl spi_transmit
 3757 0024 C7F30720 	 ubfx r0,r7,#8,#8
 3758 0028 FFF7FEFF 	 bl spi_transmit
 3759 002c F0B2     	 uxtb r0,r6
 3760 002e FFF7FEFF 	 bl spi_transmit
 3761 0032 C6F30720 	 ubfx r0,r6,#8,#8
 3762 0036 FFF7FEFF 	 bl spi_transmit
 3763 003a E8B2     	 uxtb r0,r5
 3764 003c FFF7FEFF 	 bl spi_transmit
 3765 0040 C5F30720 	 ubfx r0,r5,#8,#8
 3766 0044 FFF7FEFF 	 bl spi_transmit
 3767 0048 E0B2     	 uxtb r0,r4
 3768 004a FFF7FEFF 	 bl spi_transmit
 3769 004e 200A     	 lsrs r0,r4,#8
 3770 0050 FFF7FEFF 	 bl spi_transmit
 3771 0054 4046     	 mov r0,r8
 3772 0056 FFF7FEFF 	 bl spi_transmit_32
 3773 005a BDE8F041 	 pop {r4,r5,r6,r7,r8,lr}
 3774 005e FFF7FEBF 	 b EVE_cs_clear
 3775              	.L424:
 3776 0062 BDE8F081 	 pop {r4,r5,r6,r7,r8,pc}
 3777              	.L427:
 3778 0066 00BF     	 .align 2
 3779              	.L426:
 3780 0068 00000000 	 .word .LANCHOR0
 3782              	 .section .text.EVE_cmd_number_burst,"ax",%progbits
 3783              	 .align 1
 3784              	 .global EVE_cmd_number_burst
 3785              	 .thumb
 3786              	 .thumb_func
 3788              	EVE_cmd_number_burst:
 3789              	 
 3790              	 
 3791 0000 2DE9F041 	 push {r4,r5,r6,r7,r8,lr}
 3792 0004 8846     	 mov r8,r1
 3793 0006 0746     	 mov r7,r0
 3794 0008 6FF0D100 	 mvn r0,#209
 3795 000c 1546     	 mov r5,r2
 3796 000e 1E46     	 mov r6,r3
 3797 0010 069C     	 ldr r4,[sp,#24]
 3798 0012 FFF7FEFF 	 bl spi_transmit_32
 3799 0016 07EB0840 	 add r0,r7,r8,lsl#16
 3800 001a FFF7FEFF 	 bl spi_transmit_32
 3801 001e 05EB0640 	 add r0,r5,r6,lsl#16
 3802 0022 FFF7FEFF 	 bl spi_transmit_32
 3803 0026 2046     	 mov r0,r4
 3804 0028 BDE8F041 	 pop {r4,r5,r6,r7,r8,lr}
 3805 002c FFF7FEBF 	 b spi_transmit_32
 3807              	 .section .text.EVE_cmd_progress,"ax",%progbits
 3808              	 .align 1
 3809              	 .global EVE_cmd_progress
 3810              	 .thumb
 3811              	 .thumb_func
 3813              	EVE_cmd_progress:
 3814              	 
 3815              	 
 3816 0000 2DE9F84F 	 push {r3,r4,r5,r6,r7,r8,r9,r10,fp,lr}
 3817 0004 9846     	 mov r8,r3
 3818 0006 284B     	 ldr r3,.L431
 3819 0008 BDF82870 	 ldrh r7,[sp,#40]
 3820 000c 1B78     	 ldrb r3,[r3]
 3821 000e BDF82C60 	 ldrh r6,[sp,#44]
 3822 0012 BDF83050 	 ldrh r5,[sp,#48]
 3823 0016 8346     	 mov fp,r0
 3824 0018 8A46     	 mov r10,r1
 3825 001a 9146     	 mov r9,r2
 3826 001c 03F0FF04 	 and r4,r3,#255
 3827 0020 002B     	 cmp r3,#0
 3828 0022 3FD1     	 bne .L429
 3829 0024 6FF0F000 	 mvn r0,#240
 3830 0028 FFF7FEFF 	 bl EVE_start_command
 3831 002c 5FFA8BF0 	 uxtb r0,fp
 3832 0030 FFF7FEFF 	 bl spi_transmit
 3833 0034 CBF30720 	 ubfx r0,fp,#8,#8
 3834 0038 FFF7FEFF 	 bl spi_transmit
 3835 003c 5FFA8AF0 	 uxtb r0,r10
 3836 0040 FFF7FEFF 	 bl spi_transmit
 3837 0044 CAF30720 	 ubfx r0,r10,#8,#8
 3838 0048 FFF7FEFF 	 bl spi_transmit
 3839 004c 5FFA89F0 	 uxtb r0,r9
 3840 0050 FFF7FEFF 	 bl spi_transmit
 3841 0054 C9F30720 	 ubfx r0,r9,#8,#8
 3842 0058 FFF7FEFF 	 bl spi_transmit
 3843 005c 5FFA88F0 	 uxtb r0,r8
 3844 0060 FFF7FEFF 	 bl spi_transmit
 3845 0064 C8F30720 	 ubfx r0,r8,#8,#8
 3846 0068 FFF7FEFF 	 bl spi_transmit
 3847 006c F8B2     	 uxtb r0,r7
 3848 006e FFF7FEFF 	 bl spi_transmit
 3849 0072 380A     	 lsrs r0,r7,#8
 3850 0074 FFF7FEFF 	 bl spi_transmit
 3851 0078 F0B2     	 uxtb r0,r6
 3852 007a FFF7FEFF 	 bl spi_transmit
 3853 007e 300A     	 lsrs r0,r6,#8
 3854 0080 FFF7FEFF 	 bl spi_transmit
 3855 0084 E8B2     	 uxtb r0,r5
 3856 0086 FFF7FEFF 	 bl spi_transmit
 3857 008a 280A     	 lsrs r0,r5,#8
 3858 008c FFF7FEFF 	 bl spi_transmit
 3859 0090 2046     	 mov r0,r4
 3860 0092 FFF7FEFF 	 bl spi_transmit
 3861 0096 2046     	 mov r0,r4
 3862 0098 FFF7FEFF 	 bl spi_transmit
 3863 009c BDE8F84F 	 pop {r3,r4,r5,r6,r7,r8,r9,r10,fp,lr}
 3864 00a0 FFF7FEBF 	 b EVE_cs_clear
 3865              	.L429:
 3866 00a4 BDE8F88F 	 pop {r3,r4,r5,r6,r7,r8,r9,r10,fp,pc}
 3867              	.L432:
 3868              	 .align 2
 3869              	.L431:
 3870 00a8 00000000 	 .word .LANCHOR0
 3872              	 .section .text.EVE_cmd_progress_burst,"ax",%progbits
 3873              	 .align 1
 3874              	 .global EVE_cmd_progress_burst
 3875              	 .thumb
 3876              	 .thumb_func
 3878              	EVE_cmd_progress_burst:
 3879              	 
 3880              	 
 3881 0000 2DE9F047 	 push {r4,r5,r6,r7,r8,r9,r10,lr}
 3882 0004 8A46     	 mov r10,r1
 3883 0006 8146     	 mov r9,r0
 3884 0008 6FF0F000 	 mvn r0,#240
 3885 000c 1746     	 mov r7,r2
 3886 000e 9846     	 mov r8,r3
 3887 0010 BDF82050 	 ldrh r5,[sp,#32]
 3888 0014 BDF82460 	 ldrh r6,[sp,#36]
 3889 0018 BDF82840 	 ldrh r4,[sp,#40]
 3890 001c FFF7FEFF 	 bl spi_transmit_32
 3891 0020 09EB0A40 	 add r0,r9,r10,lsl#16
 3892 0024 FFF7FEFF 	 bl spi_transmit_32
 3893 0028 07EB0840 	 add r0,r7,r8,lsl#16
 3894 002c FFF7FEFF 	 bl spi_transmit_32
 3895 0030 05EB0640 	 add r0,r5,r6,lsl#16
 3896 0034 FFF7FEFF 	 bl spi_transmit_32
 3897 0038 2046     	 mov r0,r4
 3898 003a BDE8F047 	 pop {r4,r5,r6,r7,r8,r9,r10,lr}
 3899 003e FFF7FEBF 	 b spi_transmit_32
 3901              	 .section .text.EVE_cmd_romfont,"ax",%progbits
 3902              	 .align 1
 3903              	 .global EVE_cmd_romfont
 3904              	 .thumb
 3905              	 .thumb_func
 3907              	EVE_cmd_romfont:
 3908              	 
 3909              	 
 3910 0000 70B5     	 push {r4,r5,r6,lr}
 3911 0002 154B     	 ldr r3,.L436
 3912 0004 1B78     	 ldrb r3,[r3]
 3913 0006 0646     	 mov r6,r0
 3914 0008 0D46     	 mov r5,r1
 3915 000a 03F0FF04 	 and r4,r3,#255
 3916 000e 0BBB     	 cbnz r3,.L434
 3917 0010 6FF0C000 	 mvn r0,#192
 3918 0014 FFF7FEFF 	 bl EVE_start_command
 3919 0018 F0B2     	 uxtb r0,r6
 3920 001a FFF7FEFF 	 bl spi_transmit
 3921 001e C6F30720 	 ubfx r0,r6,#8,#8
 3922 0022 FFF7FEFF 	 bl spi_transmit
 3923 0026 2046     	 mov r0,r4
 3924 0028 FFF7FEFF 	 bl spi_transmit
 3925 002c 2046     	 mov r0,r4
 3926 002e FFF7FEFF 	 bl spi_transmit
 3927 0032 E8B2     	 uxtb r0,r5
 3928 0034 FFF7FEFF 	 bl spi_transmit
 3929 0038 C5F30720 	 ubfx r0,r5,#8,#8
 3930 003c FFF7FEFF 	 bl spi_transmit
 3931 0040 2046     	 mov r0,r4
 3932 0042 FFF7FEFF 	 bl spi_transmit
 3933 0046 2046     	 mov r0,r4
 3934 0048 FFF7FEFF 	 bl spi_transmit
 3935 004c BDE87040 	 pop {r4,r5,r6,lr}
 3936 0050 FFF7FEBF 	 b EVE_cs_clear
 3937              	.L434:
 3938 0054 70BD     	 pop {r4,r5,r6,pc}
 3939              	.L437:
 3940 0056 00BF     	 .align 2
 3941              	.L436:
 3942 0058 00000000 	 .word .LANCHOR0
 3944              	 .section .text.EVE_cmd_romfont_burst,"ax",%progbits
 3945              	 .align 1
 3946              	 .global EVE_cmd_romfont_burst
 3947              	 .thumb
 3948              	 .thumb_func
 3950              	EVE_cmd_romfont_burst:
 3951              	 
 3952              	 
 3953 0000 38B5     	 push {r3,r4,r5,lr}
 3954 0002 0546     	 mov r5,r0
 3955 0004 6FF0C000 	 mvn r0,#192
 3956 0008 0C46     	 mov r4,r1
 3957 000a FFF7FEFF 	 bl spi_transmit_32
 3958 000e 2846     	 mov r0,r5
 3959 0010 FFF7FEFF 	 bl spi_transmit_32
 3960 0014 2046     	 mov r0,r4
 3961 0016 BDE83840 	 pop {r3,r4,r5,lr}
 3962 001a FFF7FEBF 	 b spi_transmit_32
 3964              	 .section .text.EVE_cmd_rotate,"ax",%progbits
 3965              	 .align 1
 3966              	 .global EVE_cmd_rotate
 3967              	 .thumb
 3968              	 .thumb_func
 3970              	EVE_cmd_rotate:
 3971              	 
 3972              	 
 3973 0000 10B5     	 push {r4,lr}
 3974 0002 084B     	 ldr r3,.L441
 3975 0004 1B78     	 ldrb r3,[r3]
 3976 0006 0446     	 mov r4,r0
 3977 0008 53B9     	 cbnz r3,.L439
 3978 000a 6FF0D600 	 mvn r0,#214
 3979 000e FFF7FEFF 	 bl EVE_start_command
 3980 0012 2046     	 mov r0,r4
 3981 0014 FFF7FEFF 	 bl spi_transmit_32
 3982 0018 BDE81040 	 pop {r4,lr}
 3983 001c FFF7FEBF 	 b EVE_cs_clear
 3984              	.L439:
 3985 0020 10BD     	 pop {r4,pc}
 3986              	.L442:
 3987 0022 00BF     	 .align 2
 3988              	.L441:
 3989 0024 00000000 	 .word .LANCHOR0
 3991              	 .section .text.EVE_cmd_rotate_burst,"ax",%progbits
 3992              	 .align 1
 3993              	 .global EVE_cmd_rotate_burst
 3994              	 .thumb
 3995              	 .thumb_func
 3997              	EVE_cmd_rotate_burst:
 3998              	 
 3999              	 
 4000 0000 10B5     	 push {r4,lr}
 4001 0002 0446     	 mov r4,r0
 4002 0004 6FF0D600 	 mvn r0,#214
 4003 0008 FFF7FEFF 	 bl spi_transmit_32
 4004 000c 2046     	 mov r0,r4
 4005 000e BDE81040 	 pop {r4,lr}
 4006 0012 FFF7FEBF 	 b spi_transmit_32
 4008              	 .section .text.EVE_cmd_scale,"ax",%progbits
 4009              	 .align 1
 4010              	 .global EVE_cmd_scale
 4011              	 .thumb
 4012              	 .thumb_func
 4014              	EVE_cmd_scale:
 4015              	 
 4016              	 
 4017 0000 38B5     	 push {r3,r4,r5,lr}
 4018 0002 0A4B     	 ldr r3,.L446
 4019 0004 1B78     	 ldrb r3,[r3]
 4020 0006 0546     	 mov r5,r0
 4021 0008 0C46     	 mov r4,r1
 4022 000a 6BB9     	 cbnz r3,.L444
 4023 000c 6FF0D700 	 mvn r0,#215
 4024 0010 FFF7FEFF 	 bl EVE_start_command
 4025 0014 2846     	 mov r0,r5
 4026 0016 FFF7FEFF 	 bl spi_transmit_32
 4027 001a 2046     	 mov r0,r4
 4028 001c FFF7FEFF 	 bl spi_transmit_32
 4029 0020 BDE83840 	 pop {r3,r4,r5,lr}
 4030 0024 FFF7FEBF 	 b EVE_cs_clear
 4031              	.L444:
 4032 0028 38BD     	 pop {r3,r4,r5,pc}
 4033              	.L447:
 4034 002a 00BF     	 .align 2
 4035              	.L446:
 4036 002c 00000000 	 .word .LANCHOR0
 4038              	 .section .text.EVE_cmd_scale_burst,"ax",%progbits
 4039              	 .align 1
 4040              	 .global EVE_cmd_scale_burst
 4041              	 .thumb
 4042              	 .thumb_func
 4044              	EVE_cmd_scale_burst:
 4045              	 
 4046              	 
 4047 0000 38B5     	 push {r3,r4,r5,lr}
 4048 0002 0546     	 mov r5,r0
 4049 0004 6FF0D700 	 mvn r0,#215
 4050 0008 0C46     	 mov r4,r1
 4051 000a FFF7FEFF 	 bl spi_transmit_32
 4052 000e 2846     	 mov r0,r5
 4053 0010 FFF7FEFF 	 bl spi_transmit_32
 4054 0014 2046     	 mov r0,r4
 4055 0016 BDE83840 	 pop {r3,r4,r5,lr}
 4056 001a FFF7FEBF 	 b spi_transmit_32
 4058              	 .section .text.EVE_cmd_scrollbar,"ax",%progbits
 4059              	 .align 1
 4060              	 .global EVE_cmd_scrollbar
 4061              	 .thumb
 4062              	 .thumb_func
 4064              	EVE_cmd_scrollbar:
 4065              	 
 4066              	 
 4067 0000 2DE9F84F 	 push {r3,r4,r5,r6,r7,r8,r9,r10,fp,lr}
 4068 0004 9846     	 mov r8,r3
 4069 0006 284B     	 ldr r3,.L451
 4070 0008 BDF82870 	 ldrh r7,[sp,#40]
 4071 000c 1B78     	 ldrb r3,[r3]
 4072 000e BDF82C60 	 ldrh r6,[sp,#44]
 4073 0012 BDF83050 	 ldrh r5,[sp,#48]
 4074 0016 BDF83440 	 ldrh r4,[sp,#52]
 4075 001a 8346     	 mov fp,r0
 4076 001c 8A46     	 mov r10,r1
 4077 001e 9146     	 mov r9,r2
 4078 0020 002B     	 cmp r3,#0
 4079 0022 3FD1     	 bne .L449
 4080 0024 6FF0EE00 	 mvn r0,#238
 4081 0028 FFF7FEFF 	 bl EVE_start_command
 4082 002c 5FFA8BF0 	 uxtb r0,fp
 4083 0030 FFF7FEFF 	 bl spi_transmit
 4084 0034 CBF30720 	 ubfx r0,fp,#8,#8
 4085 0038 FFF7FEFF 	 bl spi_transmit
 4086 003c 5FFA8AF0 	 uxtb r0,r10
 4087 0040 FFF7FEFF 	 bl spi_transmit
 4088 0044 CAF30720 	 ubfx r0,r10,#8,#8
 4089 0048 FFF7FEFF 	 bl spi_transmit
 4090 004c 5FFA89F0 	 uxtb r0,r9
 4091 0050 FFF7FEFF 	 bl spi_transmit
 4092 0054 C9F30720 	 ubfx r0,r9,#8,#8
 4093 0058 FFF7FEFF 	 bl spi_transmit
 4094 005c 5FFA88F0 	 uxtb r0,r8
 4095 0060 FFF7FEFF 	 bl spi_transmit
 4096 0064 C8F30720 	 ubfx r0,r8,#8,#8
 4097 0068 FFF7FEFF 	 bl spi_transmit
 4098 006c F8B2     	 uxtb r0,r7
 4099 006e FFF7FEFF 	 bl spi_transmit
 4100 0072 380A     	 lsrs r0,r7,#8
 4101 0074 FFF7FEFF 	 bl spi_transmit
 4102 0078 F0B2     	 uxtb r0,r6
 4103 007a FFF7FEFF 	 bl spi_transmit
 4104 007e 300A     	 lsrs r0,r6,#8
 4105 0080 FFF7FEFF 	 bl spi_transmit
 4106 0084 E8B2     	 uxtb r0,r5
 4107 0086 FFF7FEFF 	 bl spi_transmit
 4108 008a 280A     	 lsrs r0,r5,#8
 4109 008c FFF7FEFF 	 bl spi_transmit
 4110 0090 E0B2     	 uxtb r0,r4
 4111 0092 FFF7FEFF 	 bl spi_transmit
 4112 0096 200A     	 lsrs r0,r4,#8
 4113 0098 FFF7FEFF 	 bl spi_transmit
 4114 009c BDE8F84F 	 pop {r3,r4,r5,r6,r7,r8,r9,r10,fp,lr}
 4115 00a0 FFF7FEBF 	 b EVE_cs_clear
 4116              	.L449:
 4117 00a4 BDE8F88F 	 pop {r3,r4,r5,r6,r7,r8,r9,r10,fp,pc}
 4118              	.L452:
 4119              	 .align 2
 4120              	.L451:
 4121 00a8 00000000 	 .word .LANCHOR0
 4123              	 .section .text.EVE_cmd_scrollbar_burst,"ax",%progbits
 4124              	 .align 1
 4125              	 .global EVE_cmd_scrollbar_burst
 4126              	 .thumb
 4127              	 .thumb_func
 4129              	EVE_cmd_scrollbar_burst:
 4130              	 
 4131              	 
 4132 0000 2DE9F84F 	 push {r3,r4,r5,r6,r7,r8,r9,r10,fp,lr}
 4133 0004 8B46     	 mov fp,r1
 4134 0006 8246     	 mov r10,r0
 4135 0008 6FF0EE00 	 mvn r0,#238
 4136 000c 9046     	 mov r8,r2
 4137 000e 9946     	 mov r9,r3
 4138 0010 BDF82860 	 ldrh r6,[sp,#40]
 4139 0014 BDF82C70 	 ldrh r7,[sp,#44]
 4140 0018 BDF83040 	 ldrh r4,[sp,#48]
 4141 001c BDF83450 	 ldrh r5,[sp,#52]
 4142 0020 FFF7FEFF 	 bl spi_transmit_32
 4143 0024 0AEB0B40 	 add r0,r10,fp,lsl#16
 4144 0028 FFF7FEFF 	 bl spi_transmit_32
 4145 002c 08EB0940 	 add r0,r8,r9,lsl#16
 4146 0030 FFF7FEFF 	 bl spi_transmit_32
 4147 0034 06EB0740 	 add r0,r6,r7,lsl#16
 4148 0038 FFF7FEFF 	 bl spi_transmit_32
 4149 003c 04EB0540 	 add r0,r4,r5,lsl#16
 4150 0040 BDE8F84F 	 pop {r3,r4,r5,r6,r7,r8,r9,r10,fp,lr}
 4151 0044 FFF7FEBF 	 b spi_transmit_32
 4153              	 .section .text.EVE_cmd_setbase,"ax",%progbits
 4154              	 .align 1
 4155              	 .global EVE_cmd_setbase
 4156              	 .thumb
 4157              	 .thumb_func
 4159              	EVE_cmd_setbase:
 4160              	 
 4161              	 
 4162 0000 10B5     	 push {r4,lr}
 4163 0002 084B     	 ldr r3,.L456
 4164 0004 1B78     	 ldrb r3,[r3]
 4165 0006 0446     	 mov r4,r0
 4166 0008 53B9     	 cbnz r3,.L454
 4167 000a 6FF0C700 	 mvn r0,#199
 4168 000e FFF7FEFF 	 bl EVE_start_command
 4169 0012 2046     	 mov r0,r4
 4170 0014 FFF7FEFF 	 bl spi_transmit_32
 4171 0018 BDE81040 	 pop {r4,lr}
 4172 001c FFF7FEBF 	 b EVE_cs_clear
 4173              	.L454:
 4174 0020 10BD     	 pop {r4,pc}
 4175              	.L457:
 4176 0022 00BF     	 .align 2
 4177              	.L456:
 4178 0024 00000000 	 .word .LANCHOR0
 4180              	 .section .text.EVE_cmd_setbase_burst,"ax",%progbits
 4181              	 .align 1
 4182              	 .global EVE_cmd_setbase_burst
 4183              	 .thumb
 4184              	 .thumb_func
 4186              	EVE_cmd_setbase_burst:
 4187              	 
 4188              	 
 4189 0000 10B5     	 push {r4,lr}
 4190 0002 0446     	 mov r4,r0
 4191 0004 6FF0C700 	 mvn r0,#199
 4192 0008 FFF7FEFF 	 bl spi_transmit_32
 4193 000c 2046     	 mov r0,r4
 4194 000e BDE81040 	 pop {r4,lr}
 4195 0012 FFF7FEBF 	 b spi_transmit_32
 4197              	 .section .text.EVE_cmd_setbitmap,"ax",%progbits
 4198              	 .align 1
 4199              	 .global EVE_cmd_setbitmap
 4200              	 .thumb
 4201              	 .thumb_func
 4203              	EVE_cmd_setbitmap:
 4204              	 
 4205              	 
 4206 0000 2DE9F041 	 push {r4,r5,r6,r7,r8,lr}
 4207 0004 1D46     	 mov r5,r3
 4208 0006 164B     	 ldr r3,.L461
 4209 0008 1B78     	 ldrb r3,[r3]
 4210 000a 8046     	 mov r8,r0
 4211 000c 0F46     	 mov r7,r1
 4212 000e 1646     	 mov r6,r2
 4213 0010 03F0FF04 	 and r4,r3,#255
 4214 0014 13BB     	 cbnz r3,.L459
 4215 0016 6FF0BC00 	 mvn r0,#188
 4216 001a FFF7FEFF 	 bl EVE_start_command
 4217 001e 4046     	 mov r0,r8
 4218 0020 FFF7FEFF 	 bl spi_transmit_32
 4219 0024 F8B2     	 uxtb r0,r7
 4220 0026 FFF7FEFF 	 bl spi_transmit
 4221 002a 380A     	 lsrs r0,r7,#8
 4222 002c FFF7FEFF 	 bl spi_transmit
 4223 0030 F0B2     	 uxtb r0,r6
 4224 0032 FFF7FEFF 	 bl spi_transmit
 4225 0036 300A     	 lsrs r0,r6,#8
 4226 0038 FFF7FEFF 	 bl spi_transmit
 4227 003c E8B2     	 uxtb r0,r5
 4228 003e FFF7FEFF 	 bl spi_transmit
 4229 0042 280A     	 lsrs r0,r5,#8
 4230 0044 FFF7FEFF 	 bl spi_transmit
 4231 0048 2046     	 mov r0,r4
 4232 004a FFF7FEFF 	 bl spi_transmit
 4233 004e 2046     	 mov r0,r4
 4234 0050 FFF7FEFF 	 bl spi_transmit
 4235 0054 BDE8F041 	 pop {r4,r5,r6,r7,r8,lr}
 4236 0058 FFF7FEBF 	 b EVE_cs_clear
 4237              	.L459:
 4238 005c BDE8F081 	 pop {r4,r5,r6,r7,r8,pc}
 4239              	.L462:
 4240              	 .align 2
 4241              	.L461:
 4242 0060 00000000 	 .word .LANCHOR0
 4244              	 .section .text.EVE_cmd_setbitmap_burst,"ax",%progbits
 4245              	 .align 1
 4246              	 .global EVE_cmd_setbitmap_burst
 4247              	 .thumb
 4248              	 .thumb_func
 4250              	EVE_cmd_setbitmap_burst:
 4251              	 
 4252              	 
 4253 0000 F8B5     	 push {r3,r4,r5,r6,r7,lr}
 4254 0002 0746     	 mov r7,r0
 4255 0004 6FF0BC00 	 mvn r0,#188
 4256 0008 0D46     	 mov r5,r1
 4257 000a 1646     	 mov r6,r2
 4258 000c 1C46     	 mov r4,r3
 4259 000e FFF7FEFF 	 bl spi_transmit_32
 4260 0012 3846     	 mov r0,r7
 4261 0014 FFF7FEFF 	 bl spi_transmit_32
 4262 0018 05EB0640 	 add r0,r5,r6,lsl#16
 4263 001c FFF7FEFF 	 bl spi_transmit_32
 4264 0020 2046     	 mov r0,r4
 4265 0022 BDE8F840 	 pop {r3,r4,r5,r6,r7,lr}
 4266 0026 FFF7FEBF 	 b spi_transmit_32
 4268              	 .section .text.EVE_cmd_setfont,"ax",%progbits
 4269              	 .align 1
 4270              	 .global EVE_cmd_setfont
 4271              	 .thumb
 4272              	 .thumb_func
 4274              	EVE_cmd_setfont:
 4275              	 
 4276              	 
 4277 0000 38B5     	 push {r3,r4,r5,lr}
 4278 0002 0A4B     	 ldr r3,.L466
 4279 0004 1B78     	 ldrb r3,[r3]
 4280 0006 0546     	 mov r5,r0
 4281 0008 0C46     	 mov r4,r1
 4282 000a 6BB9     	 cbnz r3,.L464
 4283 000c 6FF0D400 	 mvn r0,#212
 4284 0010 FFF7FEFF 	 bl EVE_begin_cmd
 4285 0014 2846     	 mov r0,r5
 4286 0016 FFF7FEFF 	 bl spi_transmit_32
 4287 001a 2046     	 mov r0,r4
 4288 001c FFF7FEFF 	 bl spi_transmit_32
 4289 0020 BDE83840 	 pop {r3,r4,r5,lr}
 4290 0024 FFF7FEBF 	 b EVE_cs_clear
 4291              	.L464:
 4292 0028 38BD     	 pop {r3,r4,r5,pc}
 4293              	.L467:
 4294 002a 00BF     	 .align 2
 4295              	.L466:
 4296 002c 00000000 	 .word .LANCHOR0
 4298              	 .section .text.EVE_cmd_setfont_burst,"ax",%progbits
 4299              	 .align 1
 4300              	 .global EVE_cmd_setfont_burst
 4301              	 .thumb
 4302              	 .thumb_func
 4304              	EVE_cmd_setfont_burst:
 4305              	 
 4306              	 
 4307 0000 38B5     	 push {r3,r4,r5,lr}
 4308 0002 0546     	 mov r5,r0
 4309 0004 6FF0D400 	 mvn r0,#212
 4310 0008 0C46     	 mov r4,r1
 4311 000a FFF7FEFF 	 bl spi_transmit_32
 4312 000e 2846     	 mov r0,r5
 4313 0010 FFF7FEFF 	 bl spi_transmit_32
 4314 0014 2046     	 mov r0,r4
 4315 0016 BDE83840 	 pop {r3,r4,r5,lr}
 4316 001a FFF7FEBF 	 b spi_transmit_32
 4318              	 .section .text.EVE_cmd_setfont2,"ax",%progbits
 4319              	 .align 1
 4320              	 .global EVE_cmd_setfont2
 4321              	 .thumb
 4322              	 .thumb_func
 4324              	EVE_cmd_setfont2:
 4325              	 
 4326              	 
 4327 0000 70B5     	 push {r4,r5,r6,lr}
 4328 0002 0C4B     	 ldr r3,.L471
 4329 0004 1B78     	 ldrb r3,[r3]
 4330 0006 0646     	 mov r6,r0
 4331 0008 0D46     	 mov r5,r1
 4332 000a 1446     	 mov r4,r2
 4333 000c 83B9     	 cbnz r3,.L469
 4334 000e 6FF0C400 	 mvn r0,#196
 4335 0012 FFF7FEFF 	 bl EVE_begin_cmd
 4336 0016 3046     	 mov r0,r6
 4337 0018 FFF7FEFF 	 bl spi_transmit_32
 4338 001c 2846     	 mov r0,r5
 4339 001e FFF7FEFF 	 bl spi_transmit_32
 4340 0022 2046     	 mov r0,r4
 4341 0024 FFF7FEFF 	 bl spi_transmit_32
 4342 0028 BDE87040 	 pop {r4,r5,r6,lr}
 4343 002c FFF7FEBF 	 b EVE_cs_clear
 4344              	.L469:
 4345 0030 70BD     	 pop {r4,r5,r6,pc}
 4346              	.L472:
 4347 0032 00BF     	 .align 2
 4348              	.L471:
 4349 0034 00000000 	 .word .LANCHOR0
 4351              	 .section .text.EVE_cmd_setfont2_burst,"ax",%progbits
 4352              	 .align 1
 4353              	 .global EVE_cmd_setfont2_burst
 4354              	 .thumb
 4355              	 .thumb_func
 4357              	EVE_cmd_setfont2_burst:
 4358              	 
 4359              	 
 4360 0000 70B5     	 push {r4,r5,r6,lr}
 4361 0002 0646     	 mov r6,r0
 4362 0004 6FF0C400 	 mvn r0,#196
 4363 0008 0D46     	 mov r5,r1
 4364 000a 1446     	 mov r4,r2
 4365 000c FFF7FEFF 	 bl spi_transmit_32
 4366 0010 3046     	 mov r0,r6
 4367 0012 FFF7FEFF 	 bl spi_transmit_32
 4368 0016 2846     	 mov r0,r5
 4369 0018 FFF7FEFF 	 bl spi_transmit_32
 4370 001c 2046     	 mov r0,r4
 4371 001e BDE87040 	 pop {r4,r5,r6,lr}
 4372 0022 FFF7FEBF 	 b spi_transmit_32
 4374              	 .section .text.EVE_cmd_setscratch,"ax",%progbits
 4375              	 .align 1
 4376              	 .global EVE_cmd_setscratch
 4377              	 .thumb
 4378              	 .thumb_func
 4380              	EVE_cmd_setscratch:
 4381              	 
 4382              	 
 4383 0000 10B5     	 push {r4,lr}
 4384 0002 084B     	 ldr r3,.L476
 4385 0004 1B78     	 ldrb r3,[r3]
 4386 0006 0446     	 mov r4,r0
 4387 0008 53B9     	 cbnz r3,.L474
 4388 000a 6FF0C300 	 mvn r0,#195
 4389 000e FFF7FEFF 	 bl EVE_start_command
 4390 0012 2046     	 mov r0,r4
 4391 0014 FFF7FEFF 	 bl spi_transmit_32
 4392 0018 BDE81040 	 pop {r4,lr}
 4393 001c FFF7FEBF 	 b EVE_cs_clear
 4394              	.L474:
 4395 0020 10BD     	 pop {r4,pc}
 4396              	.L477:
 4397 0022 00BF     	 .align 2
 4398              	.L476:
 4399 0024 00000000 	 .word .LANCHOR0
 4401              	 .section .text.EVE_cmd_setscratch_burst,"ax",%progbits
 4402              	 .align 1
 4403              	 .global EVE_cmd_setscratch_burst
 4404              	 .thumb
 4405              	 .thumb_func
 4407              	EVE_cmd_setscratch_burst:
 4408              	 
 4409              	 
 4410 0000 10B5     	 push {r4,lr}
 4411 0002 0446     	 mov r4,r0
 4412 0004 6FF0C300 	 mvn r0,#195
 4413 0008 FFF7FEFF 	 bl spi_transmit_32
 4414 000c 2046     	 mov r0,r4
 4415 000e BDE81040 	 pop {r4,lr}
 4416 0012 FFF7FEBF 	 b spi_transmit_32
 4418              	 .section .text.EVE_cmd_sketch,"ax",%progbits
 4419              	 .align 1
 4420              	 .global EVE_cmd_sketch
 4421              	 .thumb
 4422              	 .thumb_func
 4424              	EVE_cmd_sketch:
 4425              	 
 4426              	 
 4427 0000 2DE9F047 	 push {r4,r5,r6,r7,r8,r9,r10,lr}
 4428 0004 1E46     	 mov r6,r3
 4429 0006 204B     	 ldr r3,.L481
 4430 0008 DDF820A0 	 ldr r10,[sp,#32]
 4431 000c 1B78     	 ldrb r3,[r3]
 4432 000e BDF82450 	 ldrh r5,[sp,#36]
 4433 0012 8146     	 mov r9,r0
 4434 0014 8846     	 mov r8,r1
 4435 0016 1746     	 mov r7,r2
 4436 0018 03F0FF04 	 and r4,r3,#255
 4437 001c 93BB     	 cbnz r3,.L479
 4438 001e 6FF0CF00 	 mvn r0,#207
 4439 0022 FFF7FEFF 	 bl EVE_start_command
 4440 0026 5FFA89F0 	 uxtb r0,r9
 4441 002a FFF7FEFF 	 bl spi_transmit
 4442 002e C9F30720 	 ubfx r0,r9,#8,#8
 4443 0032 FFF7FEFF 	 bl spi_transmit
 4444 0036 5FFA88F0 	 uxtb r0,r8
 4445 003a FFF7FEFF 	 bl spi_transmit
 4446 003e C8F30720 	 ubfx r0,r8,#8,#8
 4447 0042 FFF7FEFF 	 bl spi_transmit
 4448 0046 F8B2     	 uxtb r0,r7
 4449 0048 FFF7FEFF 	 bl spi_transmit
 4450 004c 380A     	 lsrs r0,r7,#8
 4451 004e FFF7FEFF 	 bl spi_transmit
 4452 0052 F0B2     	 uxtb r0,r6
 4453 0054 FFF7FEFF 	 bl spi_transmit
 4454 0058 300A     	 lsrs r0,r6,#8
 4455 005a FFF7FEFF 	 bl spi_transmit
 4456 005e 5046     	 mov r0,r10
 4457 0060 FFF7FEFF 	 bl spi_transmit_32
 4458 0064 E8B2     	 uxtb r0,r5
 4459 0066 FFF7FEFF 	 bl spi_transmit
 4460 006a 280A     	 lsrs r0,r5,#8
 4461 006c FFF7FEFF 	 bl spi_transmit
 4462 0070 2046     	 mov r0,r4
 4463 0072 FFF7FEFF 	 bl spi_transmit
 4464 0076 2046     	 mov r0,r4
 4465 0078 FFF7FEFF 	 bl spi_transmit
 4466 007c BDE8F047 	 pop {r4,r5,r6,r7,r8,r9,r10,lr}
 4467 0080 FFF7FEBF 	 b EVE_cs_clear
 4468              	.L479:
 4469 0084 BDE8F087 	 pop {r4,r5,r6,r7,r8,r9,r10,pc}
 4470              	.L482:
 4471              	 .align 2
 4472              	.L481:
 4473 0088 00000000 	 .word .LANCHOR0
 4475              	 .section .text.EVE_cmd_sketch_burst,"ax",%progbits
 4476              	 .align 1
 4477              	 .global EVE_cmd_sketch_burst
 4478              	 .thumb
 4479              	 .thumb_func
 4481              	EVE_cmd_sketch_burst:
 4482              	 
 4483              	 
 4484 0000 2DE9F843 	 push {r3,r4,r5,r6,r7,r8,r9,lr}
 4485 0004 8946     	 mov r9,r1
 4486 0006 8046     	 mov r8,r0
 4487 0008 6FF0CF00 	 mvn r0,#207
 4488 000c 1646     	 mov r6,r2
 4489 000e 1F46     	 mov r7,r3
 4490 0010 089D     	 ldr r5,[sp,#32]
 4491 0012 BDF82440 	 ldrh r4,[sp,#36]
 4492 0016 FFF7FEFF 	 bl spi_transmit_32
 4493 001a 08EB0940 	 add r0,r8,r9,lsl#16
 4494 001e FFF7FEFF 	 bl spi_transmit_32
 4495 0022 06EB0740 	 add r0,r6,r7,lsl#16
 4496 0026 FFF7FEFF 	 bl spi_transmit_32
 4497 002a 2846     	 mov r0,r5
 4498 002c FFF7FEFF 	 bl spi_transmit_32
 4499 0030 2046     	 mov r0,r4
 4500 0032 BDE8F843 	 pop {r3,r4,r5,r6,r7,r8,r9,lr}
 4501 0036 FFF7FEBF 	 b spi_transmit_32
 4503              	 .section .text.EVE_cmd_slider,"ax",%progbits
 4504              	 .align 1
 4505              	 .global EVE_cmd_slider
 4506              	 .thumb
 4507              	 .thumb_func
 4509              	EVE_cmd_slider:
 4510              	 
 4511              	 
 4512 0000 2DE9F84F 	 push {r3,r4,r5,r6,r7,r8,r9,r10,fp,lr}
 4513 0004 9846     	 mov r8,r3
 4514 0006 284B     	 ldr r3,.L486
 4515 0008 BDF82870 	 ldrh r7,[sp,#40]
 4516 000c 1B78     	 ldrb r3,[r3]
 4517 000e BDF82C60 	 ldrh r6,[sp,#44]
 4518 0012 BDF83050 	 ldrh r5,[sp,#48]
 4519 0016 8346     	 mov fp,r0
 4520 0018 8A46     	 mov r10,r1
 4521 001a 9146     	 mov r9,r2
 4522 001c 03F0FF04 	 and r4,r3,#255
 4523 0020 002B     	 cmp r3,#0
 4524 0022 3FD1     	 bne .L484
 4525 0024 6FF0EF00 	 mvn r0,#239
 4526 0028 FFF7FEFF 	 bl EVE_start_command
 4527 002c 5FFA8BF0 	 uxtb r0,fp
 4528 0030 FFF7FEFF 	 bl spi_transmit
 4529 0034 CBF30720 	 ubfx r0,fp,#8,#8
 4530 0038 FFF7FEFF 	 bl spi_transmit
 4531 003c 5FFA8AF0 	 uxtb r0,r10
 4532 0040 FFF7FEFF 	 bl spi_transmit
 4533 0044 CAF30720 	 ubfx r0,r10,#8,#8
 4534 0048 FFF7FEFF 	 bl spi_transmit
 4535 004c 5FFA89F0 	 uxtb r0,r9
 4536 0050 FFF7FEFF 	 bl spi_transmit
 4537 0054 C9F30720 	 ubfx r0,r9,#8,#8
 4538 0058 FFF7FEFF 	 bl spi_transmit
 4539 005c 5FFA88F0 	 uxtb r0,r8
 4540 0060 FFF7FEFF 	 bl spi_transmit
 4541 0064 C8F30720 	 ubfx r0,r8,#8,#8
 4542 0068 FFF7FEFF 	 bl spi_transmit
 4543 006c F8B2     	 uxtb r0,r7
 4544 006e FFF7FEFF 	 bl spi_transmit
 4545 0072 380A     	 lsrs r0,r7,#8
 4546 0074 FFF7FEFF 	 bl spi_transmit
 4547 0078 F0B2     	 uxtb r0,r6
 4548 007a FFF7FEFF 	 bl spi_transmit
 4549 007e 300A     	 lsrs r0,r6,#8
 4550 0080 FFF7FEFF 	 bl spi_transmit
 4551 0084 E8B2     	 uxtb r0,r5
 4552 0086 FFF7FEFF 	 bl spi_transmit
 4553 008a 280A     	 lsrs r0,r5,#8
 4554 008c FFF7FEFF 	 bl spi_transmit
 4555 0090 2046     	 mov r0,r4
 4556 0092 FFF7FEFF 	 bl spi_transmit
 4557 0096 2046     	 mov r0,r4
 4558 0098 FFF7FEFF 	 bl spi_transmit
 4559 009c BDE8F84F 	 pop {r3,r4,r5,r6,r7,r8,r9,r10,fp,lr}
 4560 00a0 FFF7FEBF 	 b EVE_cs_clear
 4561              	.L484:
 4562 00a4 BDE8F88F 	 pop {r3,r4,r5,r6,r7,r8,r9,r10,fp,pc}
 4563              	.L487:
 4564              	 .align 2
 4565              	.L486:
 4566 00a8 00000000 	 .word .LANCHOR0
 4568              	 .section .text.EVE_cmd_slider_burst,"ax",%progbits
 4569              	 .align 1
 4570              	 .global EVE_cmd_slider_burst
 4571              	 .thumb
 4572              	 .thumb_func
 4574              	EVE_cmd_slider_burst:
 4575              	 
 4576              	 
 4577 0000 2DE9F047 	 push {r4,r5,r6,r7,r8,r9,r10,lr}
 4578 0004 8A46     	 mov r10,r1
 4579 0006 8146     	 mov r9,r0
 4580 0008 6FF0EF00 	 mvn r0,#239
 4581 000c 1746     	 mov r7,r2
 4582 000e 9846     	 mov r8,r3
 4583 0010 BDF82050 	 ldrh r5,[sp,#32]
 4584 0014 BDF82460 	 ldrh r6,[sp,#36]
 4585 0018 BDF82840 	 ldrh r4,[sp,#40]
 4586 001c FFF7FEFF 	 bl spi_transmit_32
 4587 0020 09EB0A40 	 add r0,r9,r10,lsl#16
 4588 0024 FFF7FEFF 	 bl spi_transmit_32
 4589 0028 07EB0840 	 add r0,r7,r8,lsl#16
 4590 002c FFF7FEFF 	 bl spi_transmit_32
 4591 0030 05EB0640 	 add r0,r5,r6,lsl#16
 4592 0034 FFF7FEFF 	 bl spi_transmit_32
 4593 0038 2046     	 mov r0,r4
 4594 003a BDE8F047 	 pop {r4,r5,r6,r7,r8,r9,r10,lr}
 4595 003e FFF7FEBF 	 b spi_transmit_32
 4597              	 .section .text.EVE_cmd_spinner,"ax",%progbits
 4598              	 .align 1
 4599              	 .global EVE_cmd_spinner
 4600              	 .thumb
 4601              	 .thumb_func
 4603              	EVE_cmd_spinner:
 4604              	 
 4605              	 
 4606 0000 F8B5     	 push {r3,r4,r5,r6,r7,lr}
 4607 0002 1C46     	 mov r4,r3
 4608 0004 144B     	 ldr r3,.L491
 4609 0006 1B78     	 ldrb r3,[r3]
 4610 0008 0746     	 mov r7,r0
 4611 000a 0E46     	 mov r6,r1
 4612 000c 1546     	 mov r5,r2
 4613 000e 0BBB     	 cbnz r3,.L489
 4614 0010 6FF0E900 	 mvn r0,#233
 4615 0014 FFF7FEFF 	 bl EVE_start_command
 4616 0018 F8B2     	 uxtb r0,r7
 4617 001a FFF7FEFF 	 bl spi_transmit
 4618 001e C7F30720 	 ubfx r0,r7,#8,#8
 4619 0022 FFF7FEFF 	 bl spi_transmit
 4620 0026 F0B2     	 uxtb r0,r6
 4621 0028 FFF7FEFF 	 bl spi_transmit
 4622 002c C6F30720 	 ubfx r0,r6,#8,#8
 4623 0030 FFF7FEFF 	 bl spi_transmit
 4624 0034 E8B2     	 uxtb r0,r5
 4625 0036 FFF7FEFF 	 bl spi_transmit
 4626 003a 280A     	 lsrs r0,r5,#8
 4627 003c FFF7FEFF 	 bl spi_transmit
 4628 0040 E0B2     	 uxtb r0,r4
 4629 0042 FFF7FEFF 	 bl spi_transmit
 4630 0046 200A     	 lsrs r0,r4,#8
 4631 0048 FFF7FEFF 	 bl spi_transmit
 4632 004c BDE8F840 	 pop {r3,r4,r5,r6,r7,lr}
 4633 0050 FFF7FEBF 	 b EVE_cs_clear
 4634              	.L489:
 4635 0054 F8BD     	 pop {r3,r4,r5,r6,r7,pc}
 4636              	.L492:
 4637 0056 00BF     	 .align 2
 4638              	.L491:
 4639 0058 00000000 	 .word .LANCHOR0
 4641              	 .section .text.EVE_cmd_spinner_burst,"ax",%progbits
 4642              	 .align 1
 4643              	 .global EVE_cmd_spinner_burst
 4644              	 .thumb
 4645              	 .thumb_func
 4647              	EVE_cmd_spinner_burst:
 4648              	 
 4649              	 
 4650 0000 F8B5     	 push {r3,r4,r5,r6,r7,lr}
 4651 0002 0F46     	 mov r7,r1
 4652 0004 0646     	 mov r6,r0
 4653 0006 6FF0E900 	 mvn r0,#233
 4654 000a 1446     	 mov r4,r2
 4655 000c 1D46     	 mov r5,r3
 4656 000e FFF7FEFF 	 bl spi_transmit_32
 4657 0012 06EB0740 	 add r0,r6,r7,lsl#16
 4658 0016 FFF7FEFF 	 bl spi_transmit_32
 4659 001a 04EB0540 	 add r0,r4,r5,lsl#16
 4660 001e BDE8F840 	 pop {r3,r4,r5,r6,r7,lr}
 4661 0022 FFF7FEBF 	 b spi_transmit_32
 4663              	 .section .text.EVE_cmd_text,"ax",%progbits
 4664              	 .align 1
 4665              	 .global EVE_cmd_text
 4666              	 .thumb
 4667              	 .thumb_func
 4669              	EVE_cmd_text:
 4670              	 
 4671              	 
 4672 0000 2DE9F041 	 push {r4,r5,r6,r7,r8,lr}
 4673 0004 1C46     	 mov r4,r3
 4674 0006 184B     	 ldr r3,.L496
 4675 0008 DDF81880 	 ldr r8,[sp,#24]
 4676 000c 1B78     	 ldrb r3,[r3]
 4677 000e 0746     	 mov r7,r0
 4678 0010 0E46     	 mov r6,r1
 4679 0012 1546     	 mov r5,r2
 4680 0014 2BBB     	 cbnz r3,.L494
 4681 0016 6FF0F300 	 mvn r0,#243
 4682 001a FFF7FEFF 	 bl EVE_start_command
 4683 001e F8B2     	 uxtb r0,r7
 4684 0020 FFF7FEFF 	 bl spi_transmit
 4685 0024 C7F30720 	 ubfx r0,r7,#8,#8
 4686 0028 FFF7FEFF 	 bl spi_transmit
 4687 002c F0B2     	 uxtb r0,r6
 4688 002e FFF7FEFF 	 bl spi_transmit
 4689 0032 C6F30720 	 ubfx r0,r6,#8,#8
 4690 0036 FFF7FEFF 	 bl spi_transmit
 4691 003a E8B2     	 uxtb r0,r5
 4692 003c FFF7FEFF 	 bl spi_transmit
 4693 0040 C5F30720 	 ubfx r0,r5,#8,#8
 4694 0044 FFF7FEFF 	 bl spi_transmit
 4695 0048 E0B2     	 uxtb r0,r4
 4696 004a FFF7FEFF 	 bl spi_transmit
 4697 004e 200A     	 lsrs r0,r4,#8
 4698 0050 FFF7FEFF 	 bl spi_transmit
 4699 0054 4046     	 mov r0,r8
 4700 0056 FFF7FEFF 	 bl EVE_write_string
 4701 005a BDE8F041 	 pop {r4,r5,r6,r7,r8,lr}
 4702 005e FFF7FEBF 	 b EVE_cs_clear
 4703              	.L494:
 4704 0062 BDE8F081 	 pop {r4,r5,r6,r7,r8,pc}
 4705              	.L497:
 4706 0066 00BF     	 .align 2
 4707              	.L496:
 4708 0068 00000000 	 .word .LANCHOR0
 4710              	 .section .text.EVE_cmd_text_burst,"ax",%progbits
 4711              	 .align 1
 4712              	 .global EVE_cmd_text_burst
 4713              	 .thumb
 4714              	 .thumb_func
 4716              	EVE_cmd_text_burst:
 4717              	 
 4718              	 
 4719 0000 2DE9F041 	 push {r4,r5,r6,r7,r8,lr}
 4720 0004 8846     	 mov r8,r1
 4721 0006 0746     	 mov r7,r0
 4722 0008 6FF0F300 	 mvn r0,#243
 4723 000c 1546     	 mov r5,r2
 4724 000e 1E46     	 mov r6,r3
 4725 0010 069C     	 ldr r4,[sp,#24]
 4726 0012 FFF7FEFF 	 bl spi_transmit_32
 4727 0016 07EB0840 	 add r0,r7,r8,lsl#16
 4728 001a FFF7FEFF 	 bl spi_transmit_32
 4729 001e 05EB0640 	 add r0,r5,r6,lsl#16
 4730 0022 FFF7FEFF 	 bl spi_transmit_32
 4731 0026 2046     	 mov r0,r4
 4732 0028 BDE8F041 	 pop {r4,r5,r6,r7,r8,lr}
 4733 002c FFF7FEBF 	 b EVE_write_string
 4735              	 .section .text.EVE_cmd_double_burst,"ax",%progbits
 4736              	 .align 1
 4737              	 .global EVE_cmd_double_burst
 4738              	 .thumb
 4739              	 .thumb_func
 4741              	EVE_cmd_double_burst:
 4742              	 
 4743              	 
 4744 0000 F0B5     	 push {r4,r5,r6,r7,lr}
 4745 0002 89B0     	 sub sp,sp,#36
 4746 0004 0646     	 mov r6,r0
 4747 0006 0F46     	 mov r7,r1
 4748 0008 1446     	 mov r4,r2
 4749 000a 0C49     	 ldr r1,.L500
 4750 000c 1D46     	 mov r5,r3
 4751 000e 6846     	 mov r0,sp
 4752 0010 DDE90E23 	 ldrd r2,[sp,#56]
 4753 0014 FFF7FEFF 	 bl sprintf
 4754 0018 6FF0F300 	 mvn r0,#243
 4755 001c FFF7FEFF 	 bl spi_transmit_32
 4756 0020 06EB0740 	 add r0,r6,r7,lsl#16
 4757 0024 FFF7FEFF 	 bl spi_transmit_32
 4758 0028 04EB0540 	 add r0,r4,r5,lsl#16
 4759 002c FFF7FEFF 	 bl spi_transmit_32
 4760 0030 6846     	 mov r0,sp
 4761 0032 FFF7FEFF 	 bl EVE_write_string
 4762 0036 09B0     	 add sp,sp,#36
 4763              	 
 4764 0038 F0BD     	 pop {r4,r5,r6,r7,pc}
 4765              	.L501:
 4766 003a 00BF     	 .align 2
 4767              	.L500:
 4768 003c 27010000 	 .word .LC8
 4770              	 .section .text.EVE_cmd_int_burst,"ax",%progbits
 4771              	 .align 1
 4772              	 .global EVE_cmd_int_burst
 4773              	 .thumb
 4774              	 .thumb_func
 4776              	EVE_cmd_int_burst:
 4777              	 
 4778              	 
 4779 0000 F0B5     	 push {r4,r5,r6,r7,lr}
 4780 0002 89B0     	 sub sp,sp,#36
 4781 0004 0646     	 mov r6,r0
 4782 0006 0F46     	 mov r7,r1
 4783 0008 1446     	 mov r4,r2
 4784 000a 0B49     	 ldr r1,.L503
 4785 000c 0E9A     	 ldr r2,[sp,#56]
 4786 000e 6846     	 mov r0,sp
 4787 0010 1D46     	 mov r5,r3
 4788 0012 FFF7FEFF 	 bl sprintf
 4789 0016 6FF0F300 	 mvn r0,#243
 4790 001a FFF7FEFF 	 bl spi_transmit_32
 4791 001e 06EB0740 	 add r0,r6,r7,lsl#16
 4792 0022 FFF7FEFF 	 bl spi_transmit_32
 4793 0026 04EB0540 	 add r0,r4,r5,lsl#16
 4794 002a FFF7FEFF 	 bl spi_transmit_32
 4795 002e 6846     	 mov r0,sp
 4796 0030 FFF7FEFF 	 bl EVE_write_string
 4797 0034 09B0     	 add sp,sp,#36
 4798              	 
 4799 0036 F0BD     	 pop {r4,r5,r6,r7,pc}
 4800              	.L504:
 4801              	 .align 2
 4802              	.L503:
 4803 0038 2D010000 	 .word .LC9
 4805              	 .section .text.EVE_cmd_toggle,"ax",%progbits
 4806              	 .align 1
 4807              	 .global EVE_cmd_toggle
 4808              	 .thumb
 4809              	 .thumb_func
 4811              	EVE_cmd_toggle:
 4812              	 
 4813              	 
 4814 0000 2DE9F047 	 push {r4,r5,r6,r7,r8,r9,r10,lr}
 4815 0004 1E46     	 mov r6,r3
 4816 0006 214B     	 ldr r3,.L507
 4817 0008 BDF82050 	 ldrh r5,[sp,#32]
 4818 000c 1B78     	 ldrb r3,[r3]
 4819 000e BDF82440 	 ldrh r4,[sp,#36]
 4820 0012 DDF828A0 	 ldr r10,[sp,#40]
 4821 0016 8146     	 mov r9,r0
 4822 0018 8846     	 mov r8,r1
 4823 001a 1746     	 mov r7,r2
 4824 001c A3BB     	 cbnz r3,.L505
 4825 001e 6FF0ED00 	 mvn r0,#237
 4826 0022 FFF7FEFF 	 bl EVE_start_command
 4827 0026 5FFA89F0 	 uxtb r0,r9
 4828 002a FFF7FEFF 	 bl spi_transmit
 4829 002e C9F30720 	 ubfx r0,r9,#8,#8
 4830 0032 FFF7FEFF 	 bl spi_transmit
 4831 0036 5FFA88F0 	 uxtb r0,r8
 4832 003a FFF7FEFF 	 bl spi_transmit
 4833 003e C8F30720 	 ubfx r0,r8,#8,#8
 4834 0042 FFF7FEFF 	 bl spi_transmit
 4835 0046 F8B2     	 uxtb r0,r7
 4836 0048 FFF7FEFF 	 bl spi_transmit
 4837 004c C7F30720 	 ubfx r0,r7,#8,#8
 4838 0050 FFF7FEFF 	 bl spi_transmit
 4839 0054 F0B2     	 uxtb r0,r6
 4840 0056 FFF7FEFF 	 bl spi_transmit
 4841 005a C6F30720 	 ubfx r0,r6,#8,#8
 4842 005e FFF7FEFF 	 bl spi_transmit
 4843 0062 E8B2     	 uxtb r0,r5
 4844 0064 FFF7FEFF 	 bl spi_transmit
 4845 0068 280A     	 lsrs r0,r5,#8
 4846 006a FFF7FEFF 	 bl spi_transmit
 4847 006e E0B2     	 uxtb r0,r4
 4848 0070 FFF7FEFF 	 bl spi_transmit
 4849 0074 200A     	 lsrs r0,r4,#8
 4850 0076 FFF7FEFF 	 bl spi_transmit
 4851 007a 5046     	 mov r0,r10
 4852 007c FFF7FEFF 	 bl EVE_write_string
 4853 0080 BDE8F047 	 pop {r4,r5,r6,r7,r8,r9,r10,lr}
 4854 0084 FFF7FEBF 	 b EVE_cs_clear
 4855              	.L505:
 4856 0088 BDE8F087 	 pop {r4,r5,r6,r7,r8,r9,r10,pc}
 4857              	.L508:
 4858              	 .align 2
 4859              	.L507:
 4860 008c 00000000 	 .word .LANCHOR0
 4862              	 .section .text.EVE_cmd_toggle_burst,"ax",%progbits
 4863              	 .align 1
 4864              	 .global EVE_cmd_toggle_burst
 4865              	 .thumb
 4866              	 .thumb_func
 4868              	EVE_cmd_toggle_burst:
 4869              	 
 4870              	 
 4871 0000 2DE9F047 	 push {r4,r5,r6,r7,r8,r9,r10,lr}
 4872 0004 8A46     	 mov r10,r1
 4873 0006 8146     	 mov r9,r0
 4874 0008 6FF0ED00 	 mvn r0,#237
 4875 000c 1746     	 mov r7,r2
 4876 000e 9846     	 mov r8,r3
 4877 0010 BDF82050 	 ldrh r5,[sp,#32]
 4878 0014 BDF82460 	 ldrh r6,[sp,#36]
 4879 0018 0A9C     	 ldr r4,[sp,#40]
 4880 001a FFF7FEFF 	 bl spi_transmit_32
 4881 001e 09EB0A40 	 add r0,r9,r10,lsl#16
 4882 0022 FFF7FEFF 	 bl spi_transmit_32
 4883 0026 07EB0840 	 add r0,r7,r8,lsl#16
 4884 002a FFF7FEFF 	 bl spi_transmit_32
 4885 002e 05EB0640 	 add r0,r5,r6,lsl#16
 4886 0032 FFF7FEFF 	 bl spi_transmit_32
 4887 0036 2046     	 mov r0,r4
 4888 0038 BDE8F047 	 pop {r4,r5,r6,r7,r8,r9,r10,lr}
 4889 003c FFF7FEBF 	 b EVE_write_string
 4891              	 .section .text.EVE_cmd_translate,"ax",%progbits
 4892              	 .align 1
 4893              	 .global EVE_cmd_translate
 4894              	 .thumb
 4895              	 .thumb_func
 4897              	EVE_cmd_translate:
 4898              	 
 4899              	 
 4900 0000 38B5     	 push {r3,r4,r5,lr}
 4901 0002 0A4B     	 ldr r3,.L512
 4902 0004 1B78     	 ldrb r3,[r3]
 4903 0006 0546     	 mov r5,r0
 4904 0008 0C46     	 mov r4,r1
 4905 000a 6BB9     	 cbnz r3,.L510
 4906 000c 6FF0D800 	 mvn r0,#216
 4907 0010 FFF7FEFF 	 bl EVE_start_command
 4908 0014 2846     	 mov r0,r5
 4909 0016 FFF7FEFF 	 bl spi_transmit_32
 4910 001a 2046     	 mov r0,r4
 4911 001c FFF7FEFF 	 bl spi_transmit_32
 4912 0020 BDE83840 	 pop {r3,r4,r5,lr}
 4913 0024 FFF7FEBF 	 b EVE_cs_clear
 4914              	.L510:
 4915 0028 38BD     	 pop {r3,r4,r5,pc}
 4916              	.L513:
 4917 002a 00BF     	 .align 2
 4918              	.L512:
 4919 002c 00000000 	 .word .LANCHOR0
 4921              	 .section .text.EVE_cmd_translate_burst,"ax",%progbits
 4922              	 .align 1
 4923              	 .global EVE_cmd_translate_burst
 4924              	 .thumb
 4925              	 .thumb_func
 4927              	EVE_cmd_translate_burst:
 4928              	 
 4929              	 
 4930 0000 38B5     	 push {r3,r4,r5,lr}
 4931 0002 0546     	 mov r5,r0
 4932 0004 6FF0D800 	 mvn r0,#216
 4933 0008 0C46     	 mov r4,r1
 4934 000a FFF7FEFF 	 bl spi_transmit_32
 4935 000e 2846     	 mov r0,r5
 4936 0010 FFF7FEFF 	 bl spi_transmit_32
 4937 0014 2046     	 mov r0,r4
 4938 0016 BDE83840 	 pop {r3,r4,r5,lr}
 4939 001a FFF7FEBF 	 b spi_transmit_32
 4941              	 .section .text.EVE_color_rgb,"ax",%progbits
 4942              	 .align 1
 4943              	 .global EVE_color_rgb
 4944              	 .thumb
 4945              	 .thumb_func
 4947              	EVE_color_rgb:
 4948              	 
 4949              	 
 4950 0000 08B5     	 push {r3,lr}
 4951 0002 064B     	 ldr r3,.L517
 4952 0004 1B78     	 ldrb r3,[r3]
 4953 0006 3BB9     	 cbnz r3,.L515
 4954 0008 40F08060 	 orr r0,r0,#67108864
 4955 000c FFF7FEFF 	 bl EVE_start_command
 4956 0010 BDE80840 	 pop {r3,lr}
 4957 0014 FFF7FEBF 	 b EVE_cs_clear
 4958              	.L515:
 4959 0018 08BD     	 pop {r3,pc}
 4960              	.L518:
 4961 001a 00BF     	 .align 2
 4962              	.L517:
 4963 001c 00000000 	 .word .LANCHOR0
 4965              	 .section .text.EVE_color_rgb_burst,"ax",%progbits
 4966              	 .align 1
 4967              	 .global EVE_color_rgb_burst
 4968              	 .thumb
 4969              	 .thumb_func
 4971              	EVE_color_rgb_burst:
 4972              	 
 4973              	 
 4974              	 
 4975 0000 40F08060 	 orr r0,r0,#67108864
 4976 0004 FFF7FEBF 	 b spi_transmit_32
 4978              	 .global __aeabi_i2d
 4979              	 .global __aeabi_dmul
 4980              	 .global __aeabi_d2uiz
 4981              	 .global __aeabi_ldivmod
 4982              	 .section .text.EVE_calibrate_manual,"ax",%progbits
 4983              	 .align 1
 4984              	 .global EVE_calibrate_manual
 4985              	 .thumb
 4986              	 .thumb_func
 4988              	EVE_calibrate_manual:
 4989              	 
 4990              	 
 4991 0000 2DE9F04F 	 push {r4,r5,r6,r7,r8,r9,r10,fp,lr}
 4992 0004 9DB0     	 sub sp,sp,#116
 4993 0006 4823     	 movs r3,#72
 4994 0008 8046     	 mov r8,r0
 4995 000a 1093     	 str r3,[sp,#64]
 4996 000c FFF7FEFF 	 bl __aeabi_i2d
 4997 0010 B4A3     	 adr r3,.L528+52
 4998 0012 D3E90023 	 ldrd r2,[r3]
 4999 0016 0446     	 mov r4,r0
 5000 0018 0D46     	 mov r5,r1
 5001 001a FFF7FEFF 	 bl __aeabi_dmul
 5002 001e FFF7FEFF 	 bl __aeabi_d2uiz
 5003 0022 4FF4CC73 	 mov r3,#408
 5004 0026 1193     	 str r3,[sp,#68]
 5005 0028 4FEA5803 	 lsr r3,r8,#1
 5006 002c 0493     	 str r3,[sp,#16]
 5007 002e 1493     	 str r3,[sp,#80]
 5008 0030 F023     	 movs r3,#240
 5009 0032 1390     	 str r0,[sp,#76]
 5010 0034 1293     	 str r3,[sp,#72]
 5011 0036 8246     	 mov r10,r0
 5012 0038 ACA3     	 adr r3,.L528+60
 5013 003a D3E90023 	 ldrd r2,[r3]
 5014 003e 2046     	 mov r0,r4
 5015 0040 2946     	 mov r1,r5
 5016 0042 FFF7FEFF 	 bl __aeabi_dmul
 5017 0046 FFF7FEFF 	 bl __aeabi_d2uiz
 5018 004a 0024     	 movs r4,#0
 5019 004c 0646     	 mov r6,r0
 5020 004e 1590     	 str r0,[sp,#84]
 5021              	.L525:
 5022 0050 6FF0FF00 	 mvn r0,#255
 5023 0054 FFF7FEFF 	 bl EVE_cmd_dl
 5024 0058 4FF00070 	 mov r0,#33554432
 5025 005c FFF7FEFF 	 bl EVE_cmd_dl
 5026 0060 9348     	 ldr r0,.L528
 5027 0062 FFF7FEFF 	 bl EVE_cmd_dl
 5028 0066 9348     	 ldr r0,.L528+4
 5029 0068 FFF7FEFF 	 bl EVE_cmd_dl
 5030 006c 9248     	 ldr r0,.L528+8
 5031 006e FFF7FEFF 	 bl EVE_cmd_dl
 5032 0072 9248     	 ldr r0,.L528+12
 5033 0074 FFF7FEFF 	 bl EVE_cmd_dl
 5034 0078 10AB     	 add r3,sp,#64
 5035 007a 47F6F070 	 movw r0,#32752
 5036 007e 53F82470 	 ldr r7,[r3,r4,lsl#2]
 5037 0082 13AB     	 add r3,sp,#76
 5038 0084 FA04     	 lsls r2,r7,#19
 5039 0086 53F82450 	 ldr r5,[r3,r4,lsl#2]
 5040 008a 2B01     	 lsls r3,r5,#4
 5041 008c 1840     	 ands r0,r0,r3
 5042 008e 8C4B     	 ldr r3,.L528+16
 5043 0090 40F08040 	 orr r0,r0,#1073741824
 5044 0094 1340     	 ands r3,r3,r2
 5045 0096 1843     	 orrs r0,r0,r3
 5046 0098 FFF7FEFF 	 bl EVE_cmd_dl
 5047 009c 4FF00450 	 mov r0,#553648128
 5048 00a0 FFF7FEFF 	 bl EVE_cmd_dl
 5049 00a4 6FF07B40 	 mvn r0,#-83886080
 5050 00a8 FFF7FEFF 	 bl EVE_cmd_dl
 5051 00ac 854B     	 ldr r3,.L528+20
 5052 00ae 0093     	 str r3,[sp]
 5053 00b0 F020     	 movs r0,#240
 5054 00b2 3221     	 movs r1,#50
 5055 00b4 1B22     	 movs r2,#27
 5056 00b6 4FF4C063 	 mov r3,#1536
 5057 00ba FFF7FEFF 	 bl EVE_cmd_text
 5058 00be 04F13103 	 add r3,r4,#49
 5059 00c2 8DF83C30 	 strb r3,[sp,#60]
 5060 00c6 0FAB     	 add r3,sp,#60
 5061 00c8 4FF00008 	 mov r8,#0
 5062 00cc 0093     	 str r3,[sp]
 5063 00ce 38B2     	 sxth r0,r7
 5064 00d0 29B2     	 sxth r1,r5
 5065 00d2 1B22     	 movs r2,#27
 5066 00d4 4FF4C063 	 mov r3,#1536
 5067 00d8 8DF83D80 	 strb r8,[sp,#61]
 5068 00dc FFF7FEFF 	 bl EVE_cmd_text
 5069 00e0 4046     	 mov r0,r8
 5070 00e2 FFF7FEFF 	 bl EVE_cmd_dl
 5071 00e6 6FF0FE00 	 mvn r0,#254
 5072 00ea FFF7FEFF 	 bl EVE_cmd_dl
 5073              	.L521:
 5074 00ee FFF7FEFF 	 bl EVE_busy
 5075 00f2 0028     	 cmp r0,#0
 5076 00f4 FBD1     	 bne .L521
 5077 00f6 0125     	 movs r5,#1
 5078              	.L522:
 5079 00f8 7348     	 ldr r0,.L528+24
 5080 00fa FFF7FEFF 	 bl EVE_memRead32
 5081 00fe 15B1     	 cbz r5,.L523
 5082 0100 C543     	 mvns r5,r0
 5083 0102 ED0F     	 lsrs r5,r5,#31
 5084 0104 F8E7     	 b .L522
 5085              	.L523:
 5086 0106 0028     	 cmp r0,#0
 5087 0108 F6DB     	 blt .L522
 5088 010a 16AB     	 add r3,sp,#88
 5089 010c C0F30942 	 ubfx r2,r0,#16,#10
 5090 0110 43F82420 	 str r2,[r3,r4,lsl#2]
 5091 0114 19AB     	 add r3,sp,#100
 5092 0116 C0F30900 	 ubfx r0,r0,#0,#10
 5093 011a 43F82400 	 str r0,[r3,r4,lsl#2]
 5094 011e 0134     	 adds r4,r4,#1
 5095 0120 032C     	 cmp r4,#3
 5096 0122 95D1     	 bne .L525
 5097 0124 DDF86CB0 	 ldr fp,[sp,#108]
 5098 0128 1A9B     	 ldr r3,[sp,#104]
 5099 012a 0593     	 str r3,[sp,#20]
 5100 012c CBEB0303 	 rsb r3,fp,r3
 5101 0130 0693     	 str r3,[sp,#24]
 5102 0132 199B     	 ldr r3,[sp,#100]
 5103 0134 189C     	 ldr r4,[sp,#96]
 5104 0136 DDF85880 	 ldr r8,[sp,#88]
 5105 013a 0793     	 str r3,[sp,#28]
 5106 013c CBEB0303 	 rsb r3,fp,r3
 5107 0140 179D     	 ldr r5,[sp,#92]
 5108 0142 0893     	 str r3,[sp,#32]
 5109 0144 069B     	 ldr r3,[sp,#24]
 5110 0146 089A     	 ldr r2,[sp,#32]
 5111 0148 C4EB0809 	 rsb r9,r4,r8
 5112 014c C4EB050C 	 rsb ip,r4,r5
 5113 0150 09FB03F3 	 mul r3,r9,r3
 5114 0154 0CFB1233 	 mls r3,ip,r2,r3
 5115 0158 1846     	 mov r0,r3
 5116 015a D917     	 asrs r1,r3,#31
 5117 015c A823     	 movs r3,#168
 5118 015e 03FB09F3 	 mul r3,r3,r9
 5119 0162 6FF0A702 	 mvn r2,#167
 5120 0166 02FB1C33 	 mls r3,r2,ip,r3
 5121 016a CDE90201 	 strd r0,[sp,#8]
 5122 016e D917     	 asrs r1,r3,#31
 5123 0170 0904     	 lsls r1,r1,#16
 5124 0172 1804     	 lsls r0,r3,#16
 5125 0174 41EA1341 	 orr r1,r1,r3,lsr#16
 5126 0178 DDE90223 	 ldrd r2,[sp,#8]
 5127 017c CDF834C0 	 str ip,[sp,#52]
 5128 0180 FFF7FEFF 	 bl __aeabi_ldivmod
 5129 0184 4FF4CC72 	 mov r2,#408
 5130 0188 02FB04F3 	 mul r3,r2,r4
 5131 018c 0A90     	 str r0,[sp,#40]
 5132 018e F020     	 movs r0,#240
 5133 0190 00FB08F7 	 mul r7,r0,r8
 5134 0194 00FB1530 	 mls r0,r0,r5,r3
 5135 0198 079B     	 ldr r3,[sp,#28]
 5136 019a 4FF0480E 	 mov lr,#72
 5137 019e 5843     	 muls r0,r3,r0
 5138 01a0 059B     	 ldr r3,[sp,#20]
 5139 01a2 0EFB1477 	 mls r7,lr,r4,r7
 5140 01a6 0EFB05FE 	 mul lr,lr,r5
 5141 01aa 02FB18E2 	 mls r2,r2,r8,lr
 5142 01ae 03FB0700 	 mla r0,r3,r7,r0
 5143 01b2 0BFB0203 	 mla r3,fp,r2,r0
 5144 01b6 D917     	 asrs r1,r3,#31
 5145 01b8 0904     	 lsls r1,r1,#16
 5146 01ba 1804     	 lsls r0,r3,#16
 5147 01bc 41EA1341 	 orr r1,r1,r3,lsr#16
 5148 01c0 DDE90223 	 ldrd r2,[sp,#8]
 5149 01c4 FFF7FEFF 	 bl __aeabi_ldivmod
 5150 01c8 049B     	 ldr r3,[sp,#16]
 5151 01ca 0899     	 ldr r1,[sp,#32]
 5152 01cc 0B90     	 str r0,[sp,#44]
 5153 01ce 9B1B     	 subs r3,r3,r6
 5154 01d0 0993     	 str r3,[sp,#36]
 5155 01d2 069B     	 ldr r3,[sp,#24]
 5156 01d4 099A     	 ldr r2,[sp,#36]
 5157 01d6 C6EB0A07 	 rsb r7,r6,r10
 5158 01da 7B43     	 muls r3,r7,r3
 5159 01dc 01FB1233 	 mls r3,r1,r2,r3
 5160 01e0 D917     	 asrs r1,r3,#31
 5161 01e2 0904     	 lsls r1,r1,#16
 5162 01e4 1804     	 lsls r0,r3,#16
 5163 01e6 41EA1341 	 orr r1,r1,r3,lsr#16
 5164 01ea DDE90223 	 ldrd r2,[sp,#8]
 5165 01ee FFF7FEFF 	 bl __aeabi_ldivmod
 5166 01f2 099B     	 ldr r3,[sp,#36]
 5167 01f4 DDF834C0 	 ldr ip,[sp,#52]
 5168 01f8 0C90     	 str r0,[sp,#48]
 5169 01fa 09FB03F9 	 mul r9,r9,r3
 5170 01fe 0CFB1797 	 mls r7,ip,r7,r9
 5171 0202 FB17     	 asrs r3,r7,#31
 5172 0204 1904     	 lsls r1,r3,#16
 5173 0206 3804     	 lsls r0,r7,#16
 5174 0208 DDE90223 	 ldrd r2,[sp,#8]
 5175 020c 41EA1741 	 orr r1,r1,r7,lsr#16
 5176 0210 FFF7FEFF 	 bl __aeabi_ldivmod
 5177 0214 049B     	 ldr r3,[sp,#16]
 5178 0216 059A     	 ldr r2,[sp,#20]
 5179 0218 6343     	 muls r3,r4,r3
 5180 021a 05FB1633 	 mls r3,r5,r6,r3
 5181 021e 08FB06F6 	 mul r6,r8,r6
 5182 0222 04FB1A64 	 mls r4,r4,r10,r6
 5183 0226 5443     	 muls r4,r2,r4
 5184 0228 079A     	 ldr r2,[sp,#28]
 5185 022a 02FB0344 	 mla r4,r2,r3,r4
 5186 022e 049B     	 ldr r3,[sp,#16]
 5187 0230 05FB0AF5 	 mul r5,r5,r10
 5188 0234 08FB1358 	 mls r8,r8,r3,r5
 5189 0238 0BFB0848 	 mla r8,fp,r8,r4
 5190 023c 4246     	 mov r2,r8
 5191 023e D317     	 asrs r3,r2,#31
 5192 0240 1904     	 lsls r1,r3,#16
 5193 0242 0746     	 mov r7,r0
 5194 0244 DDE90223 	 ldrd r2,[sp,#8]
 5195 0248 4FEA0840 	 lsl r0,r8,#16
 5196 024c 41EA1841 	 orr r1,r1,r8,lsr#16
 5197 0250 FFF7FEFF 	 bl __aeabi_ldivmod
 5198 0254 069B     	 ldr r3,[sp,#24]
 5199 0256 6FF0A702 	 mvn r2,#167
 5200 025a 02FB03F1 	 mul r1,r2,r3
 5201 025e 089B     	 ldr r3,[sp,#32]
 5202 0260 A822     	 movs r2,#168
 5203 0262 02FB1311 	 mls r1,r2,r3,r1
 5204 0266 CB17     	 asrs r3,r1,#31
 5205 0268 1B04     	 lsls r3,r3,#16
 5206 026a 0446     	 mov r4,r0
 5207 026c 0804     	 lsls r0,r1,#16
 5208 026e 43EA1141 	 orr r1,r3,r1,lsr#16
 5209 0272 DDE90223 	 ldrd r2,[sp,#8]
 5210 0276 FFF7FEFF 	 bl __aeabi_ldivmod
 5211 027a 0146     	 mov r1,r0
 5212 027c 1348     	 ldr r0,.L528+28
 5213 027e FFF7FEFF 	 bl EVE_memWrite32
 5214 0282 0A99     	 ldr r1,[sp,#40]
 5215 0284 1248     	 ldr r0,.L528+32
 5216 0286 FFF7FEFF 	 bl EVE_memWrite32
 5217 028a 0B99     	 ldr r1,[sp,#44]
 5218 028c 1148     	 ldr r0,.L528+36
 5219 028e FFF7FEFF 	 bl EVE_memWrite32
 5220 0292 0C99     	 ldr r1,[sp,#48]
 5221 0294 1048     	 ldr r0,.L528+40
 5222 0296 FFF7FEFF 	 bl EVE_memWrite32
 5223 029a 3946     	 mov r1,r7
 5224 029c 0F48     	 ldr r0,.L528+44
 5225 029e FFF7FEFF 	 bl EVE_memWrite32
 5226 02a2 0F48     	 ldr r0,.L528+48
 5227 02a4 2146     	 mov r1,r4
 5228 02a6 FFF7FEFF 	 bl EVE_memWrite32
 5229 02aa 1DB0     	 add sp,sp,#116
 5230              	 
 5231 02ac BDE8F08F 	 pop {r4,r5,r6,r7,r8,r9,r10,fp,pc}
 5232              	.L529:
 5233              	 .align 3
 5234              	.L528:
 5235 02b0 07000026 	 .word 637534215
 5236 02b4 FF000004 	 .word 67109119
 5237 02b8 4001000D 	 .word 218104128
 5238 02bc 0200001F 	 .word 520093698
 5239 02c0 0000F83F 	 .word 1073217536
 5240 02c4 31010000 	 .word .LC10
 5241 02c8 8C213000 	 .word 3154316
 5242 02cc 50213000 	 .word 3154256
 5243 02d0 54213000 	 .word 3154260
 5244 02d4 58213000 	 .word 3154264
 5245 02d8 5C213000 	 .word 3154268
 5246 02dc 60213000 	 .word 3154272
 5247 02e0 64213000 	 .word 3154276
 5248 02e4 33333333 	 .word 858993459
 5249 02e8 3333C33F 	 .word 1069757235
 5250 02ec 33333333 	 .word 858993459
 5251 02f0 3333EB3F 	 .word 1072378675
 5253              	 .global cmd_burst
 5254              	 .comm ReadData,1,1
 5255 02f4 AFF30080 	 .section .bss.cmd_burst,"aw",%nobits
 5256              	 .set .LANCHOR0,.+0
 5259              	cmd_burst:
 5260 0000 00       	 .space 1
 5261              	 .section .rodata.str1.1,"aMS",%progbits,1
 5262              	.LC0:
 5263 0000 4556455F 	 .ascii "EVE_busy - co-processor fault, try to resolve\000"
 5263      62757379 
 5263      202D2063 
 5263      6F2D7072 
 5263      6F636573 
 5264              	.LC1:
 5265 002e 4556455F 	 .ascii "EVE_init Failed - chipid != 0x7C was '%04X'\012\000"
 5265      696E6974 
 5265      20466169 
 5265      6C656420 
 5265      2D206368 
 5266              	.LC2:
 5267 005b 4556455F 	 .ascii "EVE_init - chipid 0x7C OK was '%04X'\012\000"
 5267      696E6974 
 5267      202D2063 
 5267      68697069 
 5267      64203078 
 5268              	.LC3:
 5269 0081 4556455F 	 .ascii "EVE_init Failed - EVE working status no ok\000"
 5269      696E6974 
 5269      20466169 
 5269      6C656420 
 5269      2D204556 
 5270              	.LC4:
 5271 00ac 4556455F 	 .ascii "EVE_init - EVE working status OK!\000"
 5271      696E6974 
 5271      202D2045 
 5271      56452077 
 5271      6F726B69 
 5272              	.LC5:
 5273 00ce 4556455F 	 .ascii "EVE_init - Display initialized!\000"
 5273      696E6974 
 5273      202D2044 
 5273      6973706C 
 5273      61792069 
 5274              	.LC6:
 5275 00ee 4556455F 	 .ascii "EVE_init - Basic display list written!\000"
 5275      696E6974 
 5275      202D2042 
 5275      61736963 
 5275      20646973 
 5276              	.LC7:
 5277 0115 4556455F 	 .ascii "EVE_init - Finish\000"
 5277      696E6974 
 5277      202D2046 
 5277      696E6973 
 5277      6800
 5278              	.LC8:
 5279 0127 252E316C 	 .ascii "%.1lf\000"
 5279      6600
 5280              	.LC9:
 5281 012d 256C6400 	 .ascii "%ld\000"
 5282              	.LC10:
 5283 0131 506C6561 	 .ascii "Please tap on the dot.\000"
 5283      73652074 
 5283      6170206F 
 5283      6E207468 
 5283      6520646F 
 5284              	 .ident "GCC: (GNU Tools for ARM Embedded Processors) 4.9.3 20141119 (release) [ARM/embedded-4_9-branch revision 218278]"
DEFINED SYMBOLS
                            *ABS*:00000000 EVE_commands.c
    {standard input}:17     .text.EVE_cs_set:00000000 $t
    {standard input}:21     .text.EVE_cs_set:00000000 EVE_cs_set
    {standard input}:35     .text.EVE_cs_set:00000010 $d
    {standard input}:38     .text.spi_transmit:00000000 $t
    {standard input}:42     .text.spi_transmit:00000000 spi_transmit
    {standard input}:69     .text.spi_transmit:00000024 $d
    {standard input}:72     .text.spi_transmit_32:00000000 $t
    {standard input}:76     .text.spi_transmit_32:00000000 spi_transmit_32
    {standard input}:92     .text.spi_receive.isra.1:00000000 $t
    {standard input}:96     .text.spi_receive.isra.1:00000000 spi_receive.isra.1
    {standard input}:118    .text.spi_receive.isra.1:00000020 $d
                            *COM*:00000001 ReadData
    {standard input}:122    .text.EVE_cs_clear:00000000 $t
    {standard input}:126    .text.EVE_cs_clear:00000000 EVE_cs_clear
    {standard input}:140    .text.EVE_cs_clear:00000010 $d
    {standard input}:143    .text.EVE_cmdWrite:00000000 $t
    {standard input}:148    .text.EVE_cmdWrite:00000000 EVE_cmdWrite
    {standard input}:165    .text.EVE_memRead8:00000000 $t
    {standard input}:170    .text.EVE_memRead8:00000000 EVE_memRead8
    {standard input}:191    .text.EVE_memRead16:00000000 $t
    {standard input}:196    .text.EVE_memRead16:00000000 EVE_memRead16
    {standard input}:220    .text.EVE_memRead32:00000000 $t
    {standard input}:225    .text.EVE_memRead32:00000000 EVE_memRead32
    {standard input}:254    .text.EVE_memWrite8:00000000 $t
    {standard input}:259    .text.EVE_memWrite8:00000000 EVE_memWrite8
    {standard input}:279    .text.EVE_memWrite16:00000000 $t
    {standard input}:284    .text.EVE_memWrite16:00000000 EVE_memWrite16
    {standard input}:306    .text.EVE_memWrite32:00000000 $t
    {standard input}:311    .text.EVE_memWrite32:00000000 EVE_memWrite32
    {standard input}:337    .text.EVE_memWrite_flash_buffer:00000000 $t
    {standard input}:342    .text.EVE_memWrite_flash_buffer:00000000 EVE_memWrite_flash_buffer
    {standard input}:371    .text.EVE_memWrite_sram_buffer:00000000 $t
    {standard input}:376    .text.EVE_memWrite_sram_buffer:00000000 EVE_memWrite_sram_buffer
    {standard input}:405    .text.EVE_busy:00000000 $t
    {standard input}:410    .text.EVE_busy:00000000 EVE_busy
    {standard input}:470    .text.EVE_busy:00000098 $d
    {standard input}:480    .text.EVE_cmd_start:00000000 $t
    {standard input}:485    .text.EVE_cmd_start:00000000 EVE_cmd_start
    {standard input}:492    .text.EVE_cmd_execute:00000000 $t
    {standard input}:497    .text.EVE_cmd_execute:00000000 EVE_cmd_execute
    {standard input}:508    .text.EVE_begin_cmd:00000000 $t
    {standard input}:513    .text.EVE_begin_cmd:00000000 EVE_begin_cmd
    {standard input}:530    .text.spi_flash_write:00000000 $t
    {standard input}:535    .text.spi_flash_write:00000000 spi_flash_write
    {standard input}:561    .text.block_transfer:00000000 $t
    {standard input}:566    .text.block_transfer:00000000 block_transfer
    {standard input}:600    .text.EVE_cmd_flashattach:00000000 $t
    {standard input}:605    .text.EVE_cmd_flashattach:00000000 EVE_cmd_flashattach
    {standard input}:619    .text.EVE_cmd_flashdetach:00000000 $t
    {standard input}:624    .text.EVE_cmd_flashdetach:00000000 EVE_cmd_flashdetach
    {standard input}:638    .text.EVE_cmd_flasherase:00000000 $t
    {standard input}:643    .text.EVE_cmd_flasherase:00000000 EVE_cmd_flasherase
    {standard input}:657    .text.EVE_cmd_flashfast:00000000 $t
    {standard input}:662    .text.EVE_cmd_flashfast:00000000 EVE_cmd_flashfast
    {standard input}:685    .text.EVE_cmd_flashfast:00000034 $d
    {standard input}:688    .text.EVE_cmd_flashspidesel:00000000 $t
    {standard input}:693    .text.EVE_cmd_flashspidesel:00000000 EVE_cmd_flashspidesel
    {standard input}:707    .text.EVE_cmd_flashread:00000000 $t
    {standard input}:712    .text.EVE_cmd_flashread:00000000 EVE_cmd_flashread
    {standard input}:735    .text.EVE_cmd_flashsource:00000000 $t
    {standard input}:740    .text.EVE_cmd_flashsource:00000000 EVE_cmd_flashsource
    {standard input}:757    .text.EVE_cmd_flashspirx:00000000 $t
    {standard input}:762    .text.EVE_cmd_flashspirx:00000000 EVE_cmd_flashspirx
    {standard input}:782    .text.EVE_cmd_flashspitx:00000000 $t
    {standard input}:787    .text.EVE_cmd_flashspitx:00000000 EVE_cmd_flashspitx
    {standard input}:804    .text.EVE_cmd_flashupdate:00000000 $t
    {standard input}:809    .text.EVE_cmd_flashupdate:00000000 EVE_cmd_flashupdate
    {standard input}:832    .text.EVE_cmd_flashwrite:00000000 $t
    {standard input}:837    .text.EVE_cmd_flashwrite:00000000 EVE_cmd_flashwrite
    {standard input}:860    .text.EVE_cmd_inflate2:00000000 $t
    {standard input}:865    .text.EVE_cmd_inflate2:00000000 EVE_cmd_inflate2
    {standard input}:890    .text.EVE_cmd_getprops:00000000 $t
    {standard input}:895    .text.EVE_cmd_getprops:00000000 EVE_cmd_getprops
    {standard input}:943    .text.EVE_cmd_getprops:00000070 $d
    {standard input}:946    .text.EVE_cmd_getptr:00000000 $t
    {standard input}:951    .text.EVE_cmd_getptr:00000000 EVE_cmd_getptr
    {standard input}:974    .text.EVE_cmd_getptr:00000034 $d
    {standard input}:977    .text.EVE_cmd_inflate:00000000 $t
    {standard input}:982    .text.EVE_cmd_inflate:00000000 EVE_cmd_inflate
    {standard input}:1003   .text.EVE_cmd_interrupt:00000000 $t
    {standard input}:1008   .text.EVE_cmd_interrupt:00000000 EVE_cmd_interrupt
    {standard input}:1021   .text.EVE_cmd_loadimage:00000000 $t
    {standard input}:1026   .text.EVE_cmd_loadimage:00000000 EVE_cmd_loadimage
    {standard input}:1052   .text.EVE_cmd_mediafifo:00000000 $t
    {standard input}:1057   .text.EVE_cmd_mediafifo:00000000 EVE_cmd_mediafifo
    {standard input}:1073   .text.EVE_cmd_memcpy:00000000 $t
    {standard input}:1078   .text.EVE_cmd_memcpy:00000000 EVE_cmd_memcpy
    {standard input}:1101   .text.EVE_cmd_memcrc:00000000 $t
    {standard input}:1106   .text.EVE_cmd_memcrc:00000000 EVE_cmd_memcrc
    {standard input}:1135   .text.EVE_cmd_memcrc:00000044 $d
    {standard input}:1138   .text.EVE_cmd_memset:00000000 $t
    {standard input}:1143   .text.EVE_cmd_memset:00000000 EVE_cmd_memset
    {standard input}:1162   .text.EVE_cmd_memzero:00000000 $t
    {standard input}:1167   .text.EVE_cmd_memzero:00000000 EVE_cmd_memzero
    {standard input}:1187   .text.EVE_cmd_playvideo:00000000 $t
    {standard input}:1192   .text.EVE_cmd_playvideo:00000000 EVE_cmd_playvideo
    {standard input}:1215   .text.EVE_cmd_regread:00000000 $t
    {standard input}:1220   .text.EVE_cmd_regread:00000000 EVE_cmd_regread
    {standard input}:1246   .text.EVE_cmd_regread:0000003c $d
    {standard input}:1249   .text.EVE_cmd_setrotate:00000000 $t
    {standard input}:1254   .text.EVE_cmd_setrotate:00000000 EVE_cmd_setrotate
    {standard input}:1271   .text.EVE_cmd_snapshot:00000000 $t
    {standard input}:1276   .text.EVE_cmd_snapshot:00000000 EVE_cmd_snapshot
    {standard input}:1293   .text.EVE_cmd_snapshot2:00000000 $t
    {standard input}:1298   .text.EVE_cmd_snapshot2:00000000 EVE_cmd_snapshot2
    {standard input}:1338   .text.EVE_cmd_track:00000000 $t
    {standard input}:1343   .text.EVE_cmd_track:00000000 EVE_cmd_track
    {standard input}:1386   .text.EVE_cmd_videoframe:00000000 $t
    {standard input}:1391   .text.EVE_cmd_videoframe:00000000 EVE_cmd_videoframe
    {standard input}:1411   .text.EVE_init:00000000 $t
    {standard input}:1416   .text.EVE_init:00000000 EVE_init
    {standard input}:1585   .text.EVE_init:000001ac $d
    {standard input}:1624   .text.EVE_start_cmd_burst:00000000 $t
    {standard input}:1629   .text.EVE_start_cmd_burst:00000000 EVE_start_cmd_burst
    {standard input}:1647   .text.EVE_start_cmd_burst:00000024 $d
    {standard input}:1650   .text.EVE_end_cmd_burst:00000000 $t
    {standard input}:1655   .text.EVE_end_cmd_burst:00000000 EVE_end_cmd_burst
    {standard input}:1666   .text.EVE_end_cmd_burst:0000000c $d
    {standard input}:1669   .text.EVE_start_command:00000000 $t
    {standard input}:1674   .text.EVE_start_command:00000000 EVE_start_command
    {standard input}:1691   .text.EVE_write_string:00000000 $t
    {standard input}:1696   .text.EVE_write_string:00000000 EVE_write_string
    {standard input}:1770   .text.EVE_write_string:0000008c $d
    {standard input}:1773   .text.EVE_cmd_animdraw:00000000 $t
    {standard input}:1778   .text.EVE_cmd_animdraw:00000000 EVE_cmd_animdraw
    {standard input}:1797   .text.EVE_cmd_animdraw:00000024 $d
    {standard input}:1800   .text.EVE_cmd_animdraw_burst:00000000 $t
    {standard input}:1805   .text.EVE_cmd_animdraw_burst:00000000 EVE_cmd_animdraw_burst
    {standard input}:1817   .text.EVE_cmd_animframe:00000000 $t
    {standard input}:1822   .text.EVE_cmd_animframe:00000000 EVE_cmd_animframe
    {standard input}:1854   .text.EVE_cmd_animframe:0000004c $d
    {standard input}:1857   .text.EVE_cmd_animframe_burst:00000000 $t
    {standard input}:1862   .text.EVE_cmd_animframe_burst:00000000 EVE_cmd_animframe_burst
    {standard input}:1881   .text.EVE_cmd_animstart:00000000 $t
    {standard input}:1886   .text.EVE_cmd_animstart:00000000 EVE_cmd_animstart
    {standard input}:1911   .text.EVE_cmd_animstart:00000034 $d
    {standard input}:1914   .text.EVE_cmd_animstart_burst:00000000 $t
    {standard input}:1919   .text.EVE_cmd_animstart_burst:00000000 EVE_cmd_animstart_burst
    {standard input}:1937   .text.EVE_cmd_animstop:00000000 $t
    {standard input}:1942   .text.EVE_cmd_animstop:00000000 EVE_cmd_animstop
    {standard input}:1961   .text.EVE_cmd_animstop:00000024 $d
    {standard input}:1964   .text.EVE_cmd_animstop_burst:00000000 $t
    {standard input}:1969   .text.EVE_cmd_animstop_burst:00000000 EVE_cmd_animstop_burst
    {standard input}:1981   .text.EVE_cmd_animxy:00000000 $t
    {standard input}:1986   .text.EVE_cmd_animxy:00000000 EVE_cmd_animxy
    {standard input}:2015   .text.EVE_cmd_animxy:00000044 $d
    {standard input}:2018   .text.EVE_cmd_animxy_burst:00000000 $t
    {standard input}:2023   .text.EVE_cmd_animxy_burst:00000000 EVE_cmd_animxy_burst
    {standard input}:2039   .text.EVE_cmd_appendf:00000000 $t
    {standard input}:2044   .text.EVE_cmd_appendf:00000000 EVE_cmd_appendf
    {standard input}:2066   .text.EVE_cmd_appendf:0000002c $d
    {standard input}:2069   .text.EVE_cmd_appendf_burst:00000000 $t
    {standard input}:2074   .text.EVE_cmd_appendf_burst:00000000 EVE_cmd_appendf_burst
    {standard input}:2089   .text.EVE_cmd_bitmap_transform:00000000 $t
    {standard input}:2094   .text.EVE_cmd_bitmap_transform:00000000 EVE_cmd_bitmap_transform
    {standard input}:2154   .text.EVE_cmd_bitmap_transform:0000009c $d
    {standard input}:2158   .text.EVE_cmd_bitmap_transform_burst:00000000 $t
    {standard input}:2163   .text.EVE_cmd_bitmap_transform_burst:00000000 EVE_cmd_bitmap_transform_burst
    {standard input}:2217   .text.EVE_cmd_fillwidth:00000000 $t
    {standard input}:2222   .text.EVE_cmd_fillwidth:00000000 EVE_cmd_fillwidth
    {standard input}:2241   .text.EVE_cmd_fillwidth:00000024 $d
    {standard input}:2244   .text.EVE_cmd_fillwidth_burst:00000000 $t
    {standard input}:2249   .text.EVE_cmd_fillwidth_burst:00000000 EVE_cmd_fillwidth_burst
    {standard input}:2261   .text.EVE_cmd_gradienta:00000000 $t
    {standard input}:2266   .text.EVE_cmd_gradienta:00000000 EVE_cmd_gradienta
    {standard input}:2308   .text.EVE_cmd_gradienta:00000074 $d
    {standard input}:2311   .text.EVE_cmd_gradienta_burst:00000000 $t
    {standard input}:2316   .text.EVE_cmd_gradienta_burst:00000000 EVE_cmd_gradienta_burst
    {standard input}:2339   .text.EVE_cmd_rotatearound:00000000 $t
    {standard input}:2344   .text.EVE_cmd_rotatearound:00000000 EVE_cmd_rotatearound
    {standard input}:2372   .text.EVE_cmd_rotatearound:0000003c $d
    {standard input}:2375   .text.EVE_cmd_rotatearound_burst:00000000 $t
    {standard input}:2380   .text.EVE_cmd_rotatearound_burst:00000000 EVE_cmd_rotatearound_burst
    {standard input}:2401   .text.EVE_cmd_button_var:00000000 $t
    {standard input}:2406   .text.EVE_cmd_button_var:00000000 EVE_cmd_button_var
    {standard input}:2473   .text.EVE_cmd_button_var:000000b0 $d
    {standard input}:2476   .text.EVE_cmd_button_var_burst:00000000 $t
    {standard input}:2481   .text.EVE_cmd_button_var_burst:00000000 EVE_cmd_button_var_burst
    {standard input}:2523   .text.EVE_cmd_text_var:00000000 $t
    {standard input}:2528   .text.EVE_cmd_text_var:00000000 EVE_cmd_text_var
    {standard input}:2584   .text.EVE_cmd_text_var:00000088 $d
    {standard input}:2587   .text.EVE_cmd_text_var_burst:00000000 $t
    {standard input}:2592   .text.EVE_cmd_text_var_burst:00000000 EVE_cmd_text_var_burst
    {standard input}:2630   .text.EVE_cmd_toggle_var:00000000 $t
    {standard input}:2635   .text.EVE_cmd_toggle_var:00000000 EVE_cmd_toggle_var
    {standard input}:2702   .text.EVE_cmd_toggle_var:000000b0 $d
    {standard input}:2705   .text.EVE_cmd_toggle_var_burst:00000000 $t
    {standard input}:2710   .text.EVE_cmd_toggle_var_burst:00000000 EVE_cmd_toggle_var_burst
    {standard input}:2752   .text.EVE_cmd_dl:00000000 $t
    {standard input}:2757   .text.EVE_cmd_dl:00000000 EVE_cmd_dl
    {standard input}:2772   .text.EVE_cmd_dl:00000018 $d
    {standard input}:2775   .text.EVE_cmd_clearcache:00000000 $t
    {standard input}:2780   .text.EVE_cmd_clearcache:00000000 EVE_cmd_clearcache
    {standard input}:2809   .text.EVE_init_flash:00000000 $t
    {standard input}:2814   .text.EVE_init_flash:00000000 EVE_init_flash
    {standard input}:2863   .text.EVE_init_flash:00000060 $d
    {standard input}:2866   .text.EVE_cmd_dl_burst:00000000 $t
    {standard input}:2871   .text.EVE_cmd_dl_burst:00000000 EVE_cmd_dl_burst
    {standard input}:2878   .text.EVE_cmd_append:00000000 $t
    {standard input}:2883   .text.EVE_cmd_append:00000000 EVE_cmd_append
    {standard input}:2905   .text.EVE_cmd_append:0000002c $d
    {standard input}:2908   .text.EVE_cmd_append_burst:00000000 $t
    {standard input}:2913   .text.EVE_cmd_append_burst:00000000 EVE_cmd_append_burst
    {standard input}:2928   .text.EVE_cmd_bgcolor:00000000 $t
    {standard input}:2933   .text.EVE_cmd_bgcolor:00000000 EVE_cmd_bgcolor
    {standard input}:2959   .text.EVE_cmd_bgcolor:0000003c $d
    {standard input}:2962   .text.EVE_cmd_bgcolor_burst:00000000 $t
    {standard input}:2967   .text.EVE_cmd_bgcolor_burst:00000000 EVE_cmd_bgcolor_burst
    {standard input}:2979   .text.EVE_cmd_button:00000000 $t
    {standard input}:2984   .text.EVE_cmd_button:00000000 EVE_cmd_button
    {standard input}:3033   .text.EVE_cmd_button:00000090 $d
    {standard input}:3036   .text.EVE_cmd_button_burst:00000000 $t
    {standard input}:3041   .text.EVE_cmd_button_burst:00000000 EVE_cmd_button_burst
    {standard input}:3065   .text.EVE_cmd_calibrate:00000000 $t
    {standard input}:3070   .text.EVE_cmd_calibrate:00000000 EVE_cmd_calibrate
    {standard input}:3089   .text.EVE_cmd_calibrate:00000024 $d
    {standard input}:3092   .text.EVE_cmd_clock:00000000 $t
    {standard input}:3097   .text.EVE_cmd_clock:00000000 EVE_cmd_clock
    {standard input}:3154   .text.EVE_cmd_clock:000000a8 $d
    {standard input}:3157   .text.EVE_cmd_clock_burst:00000000 $t
    {standard input}:3162   .text.EVE_cmd_clock_burst:00000000 EVE_cmd_clock_burst
    {standard input}:3187   .text.EVE_cmd_dial:00000000 $t
    {standard input}:3192   .text.EVE_cmd_dial:00000000 EVE_cmd_dial
    {standard input}:3238   .text.EVE_cmd_dial:00000080 $d
    {standard input}:3241   .text.EVE_cmd_dial_burst:00000000 $t
    {standard input}:3246   .text.EVE_cmd_dial_burst:00000000 EVE_cmd_dial_burst
    {standard input}:3266   .text.EVE_cmd_fgcolor:00000000 $t
    {standard input}:3271   .text.EVE_cmd_fgcolor:00000000 EVE_cmd_fgcolor
    {standard input}:3297   .text.EVE_cmd_fgcolor:0000003c $d
    {standard input}:3300   .text.EVE_cmd_fgcolor_burst:00000000 $t
    {standard input}:3305   .text.EVE_cmd_fgcolor_burst:00000000 EVE_cmd_fgcolor_burst
    {standard input}:3317   .text.EVE_cmd_gauge:00000000 $t
    {standard input}:3322   .text.EVE_cmd_gauge:00000000 EVE_cmd_gauge
    {standard input}:3379   .text.EVE_cmd_gauge:000000a8 $d
    {standard input}:3382   .text.EVE_cmd_gauge_burst:00000000 $t
    {standard input}:3387   .text.EVE_cmd_gauge_burst:00000000 EVE_cmd_gauge_burst
    {standard input}:3412   .text.EVE_cmd_getmatrix:00000000 $t
    {standard input}:3417   .text.EVE_cmd_getmatrix:00000000 EVE_cmd_getmatrix
    {standard input}:3503   .text.EVE_cmd_getmatrix:000000ec $d
    {standard input}:3507   .text.EVE_cmd_gradcolor:00000000 $t
    {standard input}:3512   .text.EVE_cmd_gradcolor:00000000 EVE_cmd_gradcolor
    {standard input}:3538   .text.EVE_cmd_gradcolor:0000003c $d
    {standard input}:3541   .text.EVE_cmd_gradcolor_burst:00000000 $t
    {standard input}:3546   .text.EVE_cmd_gradcolor_burst:00000000 EVE_cmd_gradcolor_burst
    {standard input}:3558   .text.EVE_cmd_gradient:00000000 $t
    {standard input}:3563   .text.EVE_cmd_gradient:00000000 EVE_cmd_gradient
    {standard input}:3619   .text.EVE_cmd_gradient:000000a8 $d
    {standard input}:3622   .text.EVE_cmd_gradient_burst:00000000 $t
    {standard input}:3627   .text.EVE_cmd_gradient_burst:00000000 EVE_cmd_gradient_burst
    {standard input}:3650   .text.EVE_cmd_keys:00000000 $t
    {standard input}:3655   .text.EVE_cmd_keys:00000000 EVE_cmd_keys
    {standard input}:3704   .text.EVE_cmd_keys:00000090 $d
    {standard input}:3707   .text.EVE_cmd_keys_burst:00000000 $t
    {standard input}:3712   .text.EVE_cmd_keys_burst:00000000 EVE_cmd_keys_burst
    {standard input}:3736   .text.EVE_cmd_number:00000000 $t
    {standard input}:3741   .text.EVE_cmd_number:00000000 EVE_cmd_number
    {standard input}:3780   .text.EVE_cmd_number:00000068 $d
    {standard input}:3783   .text.EVE_cmd_number_burst:00000000 $t
    {standard input}:3788   .text.EVE_cmd_number_burst:00000000 EVE_cmd_number_burst
    {standard input}:3808   .text.EVE_cmd_progress:00000000 $t
    {standard input}:3813   .text.EVE_cmd_progress:00000000 EVE_cmd_progress
    {standard input}:3870   .text.EVE_cmd_progress:000000a8 $d
    {standard input}:3873   .text.EVE_cmd_progress_burst:00000000 $t
    {standard input}:3878   .text.EVE_cmd_progress_burst:00000000 EVE_cmd_progress_burst
    {standard input}:3902   .text.EVE_cmd_romfont:00000000 $t
    {standard input}:3907   .text.EVE_cmd_romfont:00000000 EVE_cmd_romfont
    {standard input}:3942   .text.EVE_cmd_romfont:00000058 $d
    {standard input}:3945   .text.EVE_cmd_romfont_burst:00000000 $t
    {standard input}:3950   .text.EVE_cmd_romfont_burst:00000000 EVE_cmd_romfont_burst
    {standard input}:3965   .text.EVE_cmd_rotate:00000000 $t
    {standard input}:3970   .text.EVE_cmd_rotate:00000000 EVE_cmd_rotate
    {standard input}:3989   .text.EVE_cmd_rotate:00000024 $d
    {standard input}:3992   .text.EVE_cmd_rotate_burst:00000000 $t
    {standard input}:3997   .text.EVE_cmd_rotate_burst:00000000 EVE_cmd_rotate_burst
    {standard input}:4009   .text.EVE_cmd_scale:00000000 $t
    {standard input}:4014   .text.EVE_cmd_scale:00000000 EVE_cmd_scale
    {standard input}:4036   .text.EVE_cmd_scale:0000002c $d
    {standard input}:4039   .text.EVE_cmd_scale_burst:00000000 $t
    {standard input}:4044   .text.EVE_cmd_scale_burst:00000000 EVE_cmd_scale_burst
    {standard input}:4059   .text.EVE_cmd_scrollbar:00000000 $t
    {standard input}:4064   .text.EVE_cmd_scrollbar:00000000 EVE_cmd_scrollbar
    {standard input}:4121   .text.EVE_cmd_scrollbar:000000a8 $d
    {standard input}:4124   .text.EVE_cmd_scrollbar_burst:00000000 $t
    {standard input}:4129   .text.EVE_cmd_scrollbar_burst:00000000 EVE_cmd_scrollbar_burst
    {standard input}:4154   .text.EVE_cmd_setbase:00000000 $t
    {standard input}:4159   .text.EVE_cmd_setbase:00000000 EVE_cmd_setbase
    {standard input}:4178   .text.EVE_cmd_setbase:00000024 $d
    {standard input}:4181   .text.EVE_cmd_setbase_burst:00000000 $t
    {standard input}:4186   .text.EVE_cmd_setbase_burst:00000000 EVE_cmd_setbase_burst
    {standard input}:4198   .text.EVE_cmd_setbitmap:00000000 $t
    {standard input}:4203   .text.EVE_cmd_setbitmap:00000000 EVE_cmd_setbitmap
    {standard input}:4242   .text.EVE_cmd_setbitmap:00000060 $d
    {standard input}:4245   .text.EVE_cmd_setbitmap_burst:00000000 $t
    {standard input}:4250   .text.EVE_cmd_setbitmap_burst:00000000 EVE_cmd_setbitmap_burst
    {standard input}:4269   .text.EVE_cmd_setfont:00000000 $t
    {standard input}:4274   .text.EVE_cmd_setfont:00000000 EVE_cmd_setfont
    {standard input}:4296   .text.EVE_cmd_setfont:0000002c $d
    {standard input}:4299   .text.EVE_cmd_setfont_burst:00000000 $t
    {standard input}:4304   .text.EVE_cmd_setfont_burst:00000000 EVE_cmd_setfont_burst
    {standard input}:4319   .text.EVE_cmd_setfont2:00000000 $t
    {standard input}:4324   .text.EVE_cmd_setfont2:00000000 EVE_cmd_setfont2
    {standard input}:4349   .text.EVE_cmd_setfont2:00000034 $d
    {standard input}:4352   .text.EVE_cmd_setfont2_burst:00000000 $t
    {standard input}:4357   .text.EVE_cmd_setfont2_burst:00000000 EVE_cmd_setfont2_burst
    {standard input}:4375   .text.EVE_cmd_setscratch:00000000 $t
    {standard input}:4380   .text.EVE_cmd_setscratch:00000000 EVE_cmd_setscratch
    {standard input}:4399   .text.EVE_cmd_setscratch:00000024 $d
    {standard input}:4402   .text.EVE_cmd_setscratch_burst:00000000 $t
    {standard input}:4407   .text.EVE_cmd_setscratch_burst:00000000 EVE_cmd_setscratch_burst
    {standard input}:4419   .text.EVE_cmd_sketch:00000000 $t
    {standard input}:4424   .text.EVE_cmd_sketch:00000000 EVE_cmd_sketch
    {standard input}:4473   .text.EVE_cmd_sketch:00000088 $d
    {standard input}:4476   .text.EVE_cmd_sketch_burst:00000000 $t
    {standard input}:4481   .text.EVE_cmd_sketch_burst:00000000 EVE_cmd_sketch_burst
    {standard input}:4504   .text.EVE_cmd_slider:00000000 $t
    {standard input}:4509   .text.EVE_cmd_slider:00000000 EVE_cmd_slider
    {standard input}:4566   .text.EVE_cmd_slider:000000a8 $d
    {standard input}:4569   .text.EVE_cmd_slider_burst:00000000 $t
    {standard input}:4574   .text.EVE_cmd_slider_burst:00000000 EVE_cmd_slider_burst
    {standard input}:4598   .text.EVE_cmd_spinner:00000000 $t
    {standard input}:4603   .text.EVE_cmd_spinner:00000000 EVE_cmd_spinner
    {standard input}:4639   .text.EVE_cmd_spinner:00000058 $d
    {standard input}:4642   .text.EVE_cmd_spinner_burst:00000000 $t
    {standard input}:4647   .text.EVE_cmd_spinner_burst:00000000 EVE_cmd_spinner_burst
    {standard input}:4664   .text.EVE_cmd_text:00000000 $t
    {standard input}:4669   .text.EVE_cmd_text:00000000 EVE_cmd_text
    {standard input}:4708   .text.EVE_cmd_text:00000068 $d
    {standard input}:4711   .text.EVE_cmd_text_burst:00000000 $t
    {standard input}:4716   .text.EVE_cmd_text_burst:00000000 EVE_cmd_text_burst
    {standard input}:4736   .text.EVE_cmd_double_burst:00000000 $t
    {standard input}:4741   .text.EVE_cmd_double_burst:00000000 EVE_cmd_double_burst
    {standard input}:4768   .text.EVE_cmd_double_burst:0000003c $d
    {standard input}:4771   .text.EVE_cmd_int_burst:00000000 $t
    {standard input}:4776   .text.EVE_cmd_int_burst:00000000 EVE_cmd_int_burst
    {standard input}:4803   .text.EVE_cmd_int_burst:00000038 $d
    {standard input}:4806   .text.EVE_cmd_toggle:00000000 $t
    {standard input}:4811   .text.EVE_cmd_toggle:00000000 EVE_cmd_toggle
    {standard input}:4860   .text.EVE_cmd_toggle:0000008c $d
    {standard input}:4863   .text.EVE_cmd_toggle_burst:00000000 $t
    {standard input}:4868   .text.EVE_cmd_toggle_burst:00000000 EVE_cmd_toggle_burst
    {standard input}:4892   .text.EVE_cmd_translate:00000000 $t
    {standard input}:4897   .text.EVE_cmd_translate:00000000 EVE_cmd_translate
    {standard input}:4919   .text.EVE_cmd_translate:0000002c $d
    {standard input}:4922   .text.EVE_cmd_translate_burst:00000000 $t
    {standard input}:4927   .text.EVE_cmd_translate_burst:00000000 EVE_cmd_translate_burst
    {standard input}:4942   .text.EVE_color_rgb:00000000 $t
    {standard input}:4947   .text.EVE_color_rgb:00000000 EVE_color_rgb
    {standard input}:4963   .text.EVE_color_rgb:0000001c $d
    {standard input}:4966   .text.EVE_color_rgb_burst:00000000 $t
    {standard input}:4971   .text.EVE_color_rgb_burst:00000000 EVE_color_rgb_burst
    {standard input}:4983   .text.EVE_calibrate_manual:00000000 $t
    {standard input}:4988   .text.EVE_calibrate_manual:00000000 EVE_calibrate_manual
    {standard input}:5235   .text.EVE_calibrate_manual:000002b0 $d
    {standard input}:5259   .bss.cmd_burst:00000000 cmd_burst
    {standard input}:5260   .bss.cmd_burst:00000000 $d
    {standard input}:5255   .text.EVE_calibrate_manual:000002f4 $t

UNDEFINED SYMBOLS
IO_DIO_DIGOUT_CS_TFT
SPI_MASTER_Transmit
SPI_MASTER_0
SPI_MASTER_Receive
puts
delay_ms
printf
IO_DIO_DIGOUT_PD_TFT
sprintf
__aeabi_i2d
__aeabi_dmul
__aeabi_d2uiz
__aeabi_ldivmod
