   1              	 .syntax unified
   2              	 .cpu cortex-m4
   3              	 .eabi_attribute 27,3
   4              	 .fpu fpv4-sp-d16
   5              	 .eabi_attribute 20,1
   6              	 .eabi_attribute 21,1
   7              	 .eabi_attribute 23,3
   8              	 .eabi_attribute 24,1
   9              	 .eabi_attribute 25,1
  10              	 .eabi_attribute 26,1
  11              	 .eabi_attribute 30,4
  12              	 .eabi_attribute 34,1
  13              	 .eabi_attribute 18,4
  14              	 .thumb
  15              	 .file "record.c"
  16              	 .section .text.record_writeCalFile_pair,"ax",%progbits
  17              	 .align 1
  18              	 .thumb
  19              	 .thumb_func
  21              	record_writeCalFile_pair:
  22              	 
  23              	 
  24 0000 0346     	 mov r3,r0
  25 0002 13B5     	 push {r0,r1,r4,lr}
  26 0004 0C46     	 mov r4,r1
  27 0006 0B48     	 ldr r0,.L5
  28 0008 1946     	 mov r1,r3
  29 000a FFF7FEFF 	 bl f_printf
  30 000e 2046     	 mov r0,r4
  31 0010 FFF7FEFF 	 bl strlen
  32 0014 2146     	 mov r1,r4
  33 0016 0246     	 mov r2,r0
  34 0018 01AB     	 add r3,sp,#4
  35 001a 0648     	 ldr r0,.L5
  36 001c FFF7FEFF 	 bl f_write
  37 0020 20B9     	 cbnz r0,.L3
  38 0022 0198     	 ldr r0,[sp,#4]
  39 0024 B0FA80F0 	 clz r0,r0
  40 0028 4009     	 lsrs r0,r0,#5
  41 002a 00E0     	 b .L2
  42              	.L3:
  43 002c 0120     	 movs r0,#1
  44              	.L2:
  45 002e 02B0     	 add sp,sp,#8
  46              	 
  47 0030 10BD     	 pop {r4,pc}
  48              	.L6:
  49 0032 00BF     	 .align 2
  50              	.L5:
  51 0034 00000000 	 .word .LANCHOR0
  53              	 .section .text.record_closeFile,"ax",%progbits
  54              	 .align 1
  55              	 .thumb
  56              	 .thumb_func
  58              	record_closeFile:
  59              	 
  60              	 
  61 0000 10B5     	 push {r4,lr}
  62 0002 114C     	 ldr r4,.L35
  63 0004 2378     	 ldrb r3,[r4]
  64 0006 032B     	 cmp r3,#3
  65 0008 1CD0     	 beq .L32
  66 000a DBB1     	 cbz r3,.L32
  67 000c 0128     	 cmp r0,#1
  68 000e 06D1     	 bne .L11
  69 0010 0E48     	 ldr r0,.L35+4
  70              	.L34:
  71 0012 0368     	 ldr r3,[r0]
  72 0014 3BB9     	 cbnz r3,.L31
  73              	.L15:
  74 0016 0D4B     	 ldr r3,.L35+4
  75 0018 1B68     	 ldr r3,[r3]
  76 001a 73B9     	 cbnz r3,.L13
  77 001c 12E0     	 b .L32
  78              	.L11:
  79 001e 0028     	 cmp r0,#0
  80 0020 F9D1     	 bne .L15
  81 0022 0B48     	 ldr r0,.L35+8
  82 0024 F5E7     	 b .L34
  83              	.L31:
  84 0026 FFF7FEFF 	 bl f_close
  85 002a 0028     	 cmp r0,#0
  86 002c F3D0     	 beq .L15
  87 002e 0928     	 cmp r0,#9
  88 0030 0CBF     	 ite eq
  89 0032 0123     	 moveq r3,#1
  90 0034 0323     	 movne r3,#3
  91 0036 2370     	 strb r3,[r4]
  92 0038 10BD     	 pop {r4,pc}
  93              	.L13:
  94 003a 054B     	 ldr r3,.L35+8
  95 003c 1B68     	 ldr r3,[r3]
  96 003e 0BB1     	 cbz r3,.L32
  97 0040 0123     	 movs r3,#1
  98 0042 2370     	 strb r3,[r4]
  99              	.L32:
 100 0044 0020     	 movs r0,#0
 101 0046 10BD     	 pop {r4,pc}
 102              	.L36:
 103              	 .align 2
 104              	.L35:
 105 0048 00000000 	 .word sdState
 106 004c 00000000 	 .word .LANCHOR1
 107 0050 00000000 	 .word .LANCHOR0
 109              	 .section .text.record_backupFile,"ax",%progbits
 110              	 .align 1
 111              	 .thumb
 112              	 .thumb_func
 114              	record_backupFile:
 115              	 
 116              	 
 117 0000 30B5     	 push {r4,r5,lr}
 118 0002 8FB0     	 sub sp,sp,#60
 119 0004 0546     	 mov r5,r0
 120 0006 FFF7FEFF 	 bl strlen
 121 000a 0538     	 subs r0,r0,#5
 122 000c 0528     	 cmp r0,#5
 123 000e 4FF00004 	 mov r4,#0
 124 0012 5ED8     	 bhi .L44
 125 0014 2846     	 mov r0,r5
 126 0016 8DF80F40 	 strb r4,[sp,#15]
 127 001a FFF7FEFF 	 bl strlen
 128 001e 2844     	 add r0,r0,r5
 129 0020 10F8013C 	 ldrb r3,[r0,#-1]
 130 0024 8DF80E30 	 strb r3,[sp,#14]
 131 0028 2846     	 mov r0,r5
 132 002a FFF7FEFF 	 bl strlen
 133 002e 2844     	 add r0,r0,r5
 134 0030 10F8023C 	 ldrb r3,[r0,#-2]
 135 0034 8DF80D30 	 strb r3,[sp,#13]
 136 0038 2846     	 mov r0,r5
 137 003a FFF7FEFF 	 bl strlen
 138 003e 2844     	 add r0,r0,r5
 139 0040 2946     	 mov r1,r5
 140 0042 10F8033C 	 ldrb r3,[r0,#-3]
 141 0046 8DF80C30 	 strb r3,[sp,#12]
 142 004a 04A8     	 add r0,sp,#16
 143 004c FFF7FEFF 	 bl sprintf
 144 0050 04A8     	 add r0,sp,#16
 145 0052 2146     	 mov r1,r4
 146 0054 FFF7FEFF 	 bl f_stat
 147 0058 0028     	 cmp r0,#0
 148 005a 36D1     	 bne .L39
 149 005c 04A8     	 add r0,sp,#16
 150 005e FFF7FEFF 	 bl strlen
 151 0062 03AD     	 add r5,sp,#12
 152 0064 C11E     	 subs r1,r0,#3
 153 0066 04AA     	 add r2,sp,#16
 154 0068 09A8     	 add r0,sp,#36
 155 006a FFF7FEFF 	 bl snprintf
 156 006e 04A8     	 add r0,sp,#16
 157 0070 1949     	 ldr r1,.L46
 158 0072 09AA     	 add r2,sp,#36
 159 0074 2B46     	 mov r3,r5
 160 0076 FFF7FEFF 	 bl sprintf
 161 007a 0224     	 movs r4,#2
 162              	.L41:
 163 007c 04A8     	 add r0,sp,#16
 164 007e 0021     	 movs r1,#0
 165 0080 FFF7FEFF 	 bl f_stat
 166 0084 58B9     	 cbnz r0,.L40
 167 0086 2346     	 mov r3,r4
 168 0088 0095     	 str r5,[sp]
 169 008a 04A8     	 add r0,sp,#16
 170 008c 1349     	 ldr r1,.L46+4
 171 008e 09AA     	 add r2,sp,#36
 172 0090 0134     	 adds r4,r4,#1
 173 0092 FFF7FEFF 	 bl sprintf
 174 0096 652C     	 cmp r4,#101
 175 0098 F0D1     	 bne .L41
 176              	.L42:
 177 009a 0020     	 movs r0,#0
 178 009c 1AE0     	 b .L38
 179              	.L40:
 180 009e 0428     	 cmp r0,#4
 181 00a0 FBD1     	 bne .L42
 182 00a2 09A8     	 add r0,sp,#36
 183 00a4 FFF7FEFF 	 bl strlen
 184 00a8 09AB     	 add r3,sp,#36
 185 00aa 0D49     	 ldr r1,.L46+8
 186 00ac 1844     	 add r0,r0,r3
 187 00ae 2A46     	 mov r2,r5
 188 00b0 FFF7FEFF 	 bl sprintf
 189 00b4 09A8     	 add r0,sp,#36
 190 00b6 04A9     	 add r1,sp,#16
 191 00b8 FFF7FEFF 	 bl f_rename
 192 00bc 0028     	 cmp r0,#0
 193 00be ECD1     	 bne .L42
 194 00c0 04A8     	 add r0,sp,#16
 195 00c2 09A9     	 add r1,sp,#36
 196 00c4 FFF7FEFF 	 bl sprintf
 197 00c8 01E0     	 b .L43
 198              	.L39:
 199 00ca 0428     	 cmp r0,#4
 200 00cc E5D1     	 bne .L42
 201              	.L43:
 202 00ce 0120     	 movs r0,#1
 203 00d0 00E0     	 b .L38
 204              	.L44:
 205 00d2 2046     	 mov r0,r4
 206              	.L38:
 207 00d4 0FB0     	 add sp,sp,#60
 208              	 
 209 00d6 30BD     	 pop {r4,r5,pc}
 210              	.L47:
 211              	 .align 2
 212              	.L46:
 213 00d8 00000000 	 .word .LC1
 214 00dc 08000000 	 .word .LC2
 215 00e0 12000000 	 .word .LC3
 217              	 .section .text.record_mountDisk,"ax",%progbits
 218              	 .align 1
 219              	 .global record_mountDisk
 220              	 .thumb
 221              	 .thumb_func
 223              	record_mountDisk:
 224              	 
 225              	 
 226 0000 38B5     	 push {r3,r4,r5,lr}
 227 0002 174B     	 ldr r3,.L66
 228 0004 174C     	 ldr r4,.L66+4
 229 0006 0546     	 mov r5,r0
 230 0008 5878     	 ldrb r0,[r3,#1]
 231 000a FFF7FEFF 	 bl disk_status
 232 000e 164B     	 ldr r3,.L66+8
 233 0010 1870     	 strb r0,[r3]
 234 0012 18B1     	 cbz r0,.L49
 235 0014 0020     	 movs r0,#0
 236 0016 2070     	 strb r0,[r4]
 237 0018 FFF7FEFF 	 bl disk_initialize
 238              	.L49:
 239 001c 2378     	 ldrb r3,[r4]
 240 001e 3BB1     	 cbz r3,.L50
 241 0020 0020     	 movs r0,#0
 242 0022 0246     	 mov r2,r0
 243 0024 1149     	 ldr r1,.L66+12
 244 0026 FFF7FEFF 	 bl f_mount
 245 002a 0E4B     	 ldr r3,.L66+4
 246 002c 0022     	 movs r2,#0
 247 002e 1A70     	 strb r2,[r3]
 248              	.L50:
 249 0030 5DB1     	 cbz r5,.L51
 250 0032 0B48     	 ldr r0,.L66
 251 0034 0D49     	 ldr r1,.L66+12
 252 0036 0122     	 movs r2,#1
 253 0038 FFF7FEFF 	 bl f_mount
 254 003c 08B9     	 cbnz r0,.L52
 255 003e 0123     	 movs r3,#1
 256 0040 0BE0     	 b .L65
 257              	.L52:
 258 0042 0328     	 cmp r0,#3
 259 0044 08D1     	 bne .L54
 260              	.L55:
 261 0046 0023     	 movs r3,#0
 262 0048 07E0     	 b .L65
 263              	.L51:
 264 004a 2846     	 mov r0,r5
 265 004c 0749     	 ldr r1,.L66+12
 266 004e 2A46     	 mov r2,r5
 267 0050 FFF7FEFF 	 bl f_mount
 268 0054 0028     	 cmp r0,#0
 269 0056 F6D0     	 beq .L55
 270              	.L54:
 271 0058 0323     	 movs r3,#3
 272              	.L65:
 273 005a 2370     	 strb r3,[r4]
 274 005c 38BD     	 pop {r3,r4,r5,pc}
 275              	.L67:
 276 005e 00BF     	 .align 2
 277              	.L66:
 278 0060 00000000 	 .word .LANCHOR2
 279 0064 00000000 	 .word sdState
 280 0068 00000000 	 .word diskStatus
 281 006c 16000000 	 .word .LC4
 283              	 .section .text.record_openFile.constprop.5,"ax",%progbits
 284              	 .align 1
 285              	 .thumb
 286              	 .thumb_func
 288              	record_openFile.constprop.5:
 289              	 
 290              	 
 291 0000 F8B5     	 push {r3,r4,r5,r6,r7,lr}
 292 0002 1A4D     	 ldr r5,.L98
 293 0004 2C78     	 ldrb r4,[r5]
 294 0006 0746     	 mov r7,r0
 295 0008 0E46     	 mov r6,r1
 296 000a 24B9     	 cbnz r4,.L69
 297 000c 0120     	 movs r0,#1
 298 000e FFF7FEFF 	 bl record_mountDisk
 299 0012 2046     	 mov r0,r4
 300 0014 13E0     	 b .L70
 301              	.L69:
 302 0016 0129     	 cmp r1,#1
 303 0018 04D1     	 bne .L71
 304 001a 1548     	 ldr r0,.L98+4
 305              	.L97:
 306 001c 0368     	 ldr r3,[r0]
 307 001e 2BB9     	 cbnz r3,.L93
 308              	.L74:
 309 0020 7F20     	 movs r0,#127
 310 0022 0CE0     	 b .L70
 311              	.L71:
 312 0024 0029     	 cmp r1,#0
 313 0026 FBD1     	 bne .L74
 314 0028 1248     	 ldr r0,.L98+8
 315 002a F7E7     	 b .L97
 316              	.L93:
 317 002c FFF7FEFF 	 bl f_close
 318 0030 7F28     	 cmp r0,#127
 319 0032 F5D0     	 beq .L74
 320 0034 08B9     	 cbnz r0,.L75
 321 0036 0123     	 movs r3,#1
 322 0038 00E0     	 b .L94
 323              	.L75:
 324 003a 0323     	 movs r3,#3
 325              	.L94:
 326 003c 2B70     	 strb r3,[r5]
 327              	.L70:
 328 003e 2B78     	 ldrb r3,[r5]
 329 0040 032B     	 cmp r3,#3
 330 0042 12D0     	 beq .L76
 331 0044 8BB1     	 cbz r3,.L76
 332 0046 012E     	 cmp r6,#1
 333 0048 03D1     	 bne .L77
 334 004a 0948     	 ldr r0,.L98+4
 335 004c 3946     	 mov r1,r7
 336 004e 1122     	 movs r2,#17
 337 0050 03E0     	 b .L95
 338              	.L77:
 339 0052 26B9     	 cbnz r6,.L78
 340 0054 0748     	 ldr r0,.L98+8
 341 0056 3946     	 mov r1,r7
 342 0058 1322     	 movs r2,#19
 343              	.L95:
 344 005a FFF7FEFF 	 bl f_open
 345              	.L78:
 346 005e 10F0F70F 	 tst r0,#247
 347 0062 0CBF     	 ite eq
 348 0064 0223     	 moveq r3,#2
 349 0066 0323     	 movne r3,#3
 350 0068 2B70     	 strb r3,[r5]
 351              	.L76:
 352 006a F8BD     	 pop {r3,r4,r5,r6,r7,pc}
 353              	.L99:
 354              	 .align 2
 355              	.L98:
 356 006c 00000000 	 .word sdState
 357 0070 00000000 	 .word .LANCHOR1
 358 0074 00000000 	 .word .LANCHOR0
 360              	 .global __aeabi_f2d
 361              	 .section .text.record_writeCalFile,"ax",%progbits
 362              	 .align 1
 363              	 .global record_writeCalFile
 364              	 .thumb
 365              	 .thumb_func
 367              	record_writeCalFile:
 368              	 
 369              	 
 370 0000 2DE9F04F 	 push {r4,r5,r6,r7,r8,r9,r10,fp,lr}
 371 0004 0446     	 mov r4,r0
 372 0006 ADF54F7D 	 sub sp,sp,#828
 373 000a 0120     	 movs r0,#1
 374 000c 1646     	 mov r6,r2
 375 000e 1D46     	 mov r5,r3
 376 0010 8846     	 mov r8,r1
 377 0012 FFF7FEFF 	 bl record_mountDisk
 378 0016 8C4B     	 ldr r3,.L122
 379 0018 1A78     	 ldrb r2,[r3]
 380 001a 013A     	 subs r2,r2,#1
 381 001c 012A     	 cmp r2,#1
 382 001e 1F46     	 mov r7,r3
 383 0020 00F20E81 	 bhi .L100
 384 0024 606B     	 ldr r0,[r4,#52]
 385 0026 0021     	 movs r1,#0
 386 0028 FFF7FEFF 	 bl f_stat
 387 002c 48B9     	 cbnz r0,.L103
 388 002e 2278     	 ldrb r2,[r4]
 389 0030 8649     	 ldr r1,.L122+4
 390 0032 6AA8     	 add r0,sp,#424
 391 0034 0132     	 adds r2,r2,#1
 392 0036 FFF7FEFF 	 bl sprintf
 393 003a 606B     	 ldr r0,[r4,#52]
 394 003c 6AA9     	 add r1,sp,#424
 395 003e FFF7FEFF 	 bl f_rename
 396              	.L103:
 397 0042 606B     	 ldr r0,[r4,#52]
 398 0044 0021     	 movs r1,#0
 399 0046 FFF7FEFF 	 bl record_openFile.constprop.5
 400 004a 3B78     	 ldrb r3,[r7]
 401 004c 022B     	 cmp r3,#2
 402 004e 40F0F780 	 bne .L100
 403 0052 2278     	 ldrb r2,[r4]
 404 0054 7E49     	 ldr r1,.L122+8
 405 0056 6368     	 ldr r3,[r4,#4]
 406 0058 7E48     	 ldr r0,.L122+12
 407 005a 0132     	 adds r2,r2,#1
 408 005c FFF7FEFF 	 bl f_printf
 409 0060 7D49     	 ldr r1,.L122+16
 410 0062 94F83920 	 ldrb r2,[r4,#57]
 411 0066 6AA8     	 add r0,sp,#424
 412 0068 FFF7FEFF 	 bl sprintf
 413 006c 7B48     	 ldr r0,.L122+20
 414 006e 6AA9     	 add r1,sp,#424
 415 0070 FFF7FEFF 	 bl record_writeCalFile_pair
 416 0074 0028     	 cmp r0,#0
 417 0076 40F0E080 	 bne .L106
 418 007a E06B     	 ldr r0,[r4,#60]
 419 007c FFF7FEFF 	 bl __aeabi_f2d
 420 0080 8246     	 mov r10,r0
 421 0082 206C     	 ldr r0,[r4,#64]
 422 0084 8B46     	 mov fp,r1
 423 0086 FFF7FEFF 	 bl __aeabi_f2d
 424 008a CDE90001 	 strd r0,[sp]
 425 008e 606C     	 ldr r0,[r4,#68]
 426 0090 FFF7FEFF 	 bl __aeabi_f2d
 427 0094 CDE90201 	 strd r0,[sp,#8]
 428 0098 A06C     	 ldr r0,[r4,#72]
 429 009a FFF7FEFF 	 bl __aeabi_f2d
 430 009e 5246     	 mov r2,r10
 431 00a0 CDE90401 	 strd r0,[sp,#16]
 432 00a4 5B46     	 mov r3,fp
 433 00a6 6E49     	 ldr r1,.L122+24
 434 00a8 06A8     	 add r0,sp,#24
 435 00aa FFF7FEFF 	 bl sprintf
 436 00ae 636C     	 ldr r3,[r4,#68]
 437 00b0 0093     	 str r3,[sp]
 438 00b2 A36C     	 ldr r3,[r4,#72]
 439 00b4 0193     	 str r3,[sp,#4]
 440 00b6 6B49     	 ldr r1,.L122+28
 441 00b8 E26B     	 ldr r2,[r4,#60]
 442 00ba 236C     	 ldr r3,[r4,#64]
 443 00bc 6AA8     	 add r0,sp,#424
 444 00be FFF7FEFF 	 bl sprintf
 445 00c2 06A8     	 add r0,sp,#24
 446 00c4 6AA9     	 add r1,sp,#424
 447 00c6 FFF7FEFF 	 bl record_writeCalFile_pair
 448 00ca 0028     	 cmp r0,#0
 449 00cc 40F0B580 	 bne .L106
 450 00d0 6149     	 ldr r1,.L122+16
 451 00d2 228E     	 ldrh r2,[r4,#48]
 452 00d4 6AA8     	 add r0,sp,#424
 453 00d6 FFF7FEFF 	 bl sprintf
 454 00da 6348     	 ldr r0,.L122+32
 455 00dc 6AA9     	 add r1,sp,#424
 456 00de FFF7FEFF 	 bl record_writeCalFile_pair
 457 00e2 0028     	 cmp r0,#0
 458 00e4 40F0A980 	 bne .L106
 459 00e8 5B49     	 ldr r1,.L122+16
 460 00ea E28C     	 ldrh r2,[r4,#38]
 461 00ec 6AA8     	 add r0,sp,#424
 462 00ee FFF7FEFF 	 bl sprintf
 463 00f2 5E48     	 ldr r0,.L122+36
 464 00f4 6AA9     	 add r1,sp,#424
 465 00f6 FFF7FEFF 	 bl record_writeCalFile_pair
 466 00fa 0028     	 cmp r0,#0
 467 00fc 40F09D80 	 bne .L106
 468 0100 5549     	 ldr r1,.L122+16
 469 0102 2A46     	 mov r2,r5
 470 0104 6AA8     	 add r0,sp,#424
 471 0106 FFF7FEFF 	 bl sprintf
 472 010a 5948     	 ldr r0,.L122+40
 473 010c 6AA9     	 add r1,sp,#424
 474 010e FFF7FEFF 	 bl record_writeCalFile_pair
 475 0112 0446     	 mov r4,r0
 476 0114 0028     	 cmp r0,#0
 477 0116 40F09080 	 bne .L106
 478 011a 4746     	 mov r7,r8
 479 011c 57F8040B 	 ldr r0,[r7],#4
 480 0120 FFF7FEFF 	 bl __aeabi_f2d
 481 0124 0B46     	 mov r3,r1
 482 0126 5349     	 ldr r1,.L122+44
 483 0128 0246     	 mov r2,r0
 484 012a 06A8     	 add r0,sp,#24
 485              	.L116:
 486 012c 0134     	 adds r4,r4,#1
 487 012e FFF7FEFF 	 bl sprintf
 488 0132 E3B2     	 uxtb r3,r4
 489 0134 AB42     	 cmp r3,r5
 490 0136 06A8     	 add r0,sp,#24
 491 0138 0DD2     	 bcs .L118
 492 013a FFF7FEFF 	 bl strlen
 493 013e 06AB     	 add r3,sp,#24
 494 0140 03EB0009 	 add r9,r3,r0
 495 0144 57F8040B 	 ldr r0,[r7],#4
 496 0148 FFF7FEFF 	 bl __aeabi_f2d
 497 014c 0246     	 mov r2,r0
 498 014e 0B46     	 mov r3,r1
 499 0150 4846     	 mov r0,r9
 500 0152 4949     	 ldr r1,.L122+48
 501 0154 EAE7     	 b .L116
 502              	.L118:
 503 0156 FFF7FEFF 	 bl strlen
 504 015a 06AB     	 add r3,sp,#24
 505 015c 1844     	 add r0,r0,r3
 506 015e 4749     	 ldr r1,.L122+52
 507 0160 FFF7FEFF 	 bl strcpy
 508 0164 6AA8     	 add r0,sp,#424
 509 0166 4649     	 ldr r1,.L122+56
 510 0168 D8F80020 	 ldr r2,[r8]
 511 016c FFF7FEFF 	 bl sprintf
 512 0170 0024     	 movs r4,#0
 513              	.L110:
 514 0172 0134     	 adds r4,r4,#1
 515 0174 E3B2     	 uxtb r3,r4
 516 0176 AB42     	 cmp r3,r5
 517 0178 6AA8     	 add r0,sp,#424
 518 017a 09D2     	 bcs .L119
 519 017c FFF7FEFF 	 bl strlen
 520 0180 6AAB     	 add r3,sp,#424
 521 0182 1844     	 add r0,r0,r3
 522 0184 3F49     	 ldr r1,.L122+60
 523 0186 58F82420 	 ldr r2,[r8,r4,lsl#2]
 524 018a FFF7FEFF 	 bl sprintf
 525 018e F0E7     	 b .L110
 526              	.L119:
 527 0190 FFF7FEFF 	 bl strlen
 528 0194 6AAB     	 add r3,sp,#424
 529 0196 1844     	 add r0,r0,r3
 530 0198 3B49     	 ldr r1,.L122+64
 531 019a 0022     	 movs r2,#0
 532 019c FFF7FEFF 	 bl sprintf
 533 01a0 06A8     	 add r0,sp,#24
 534 01a2 6AA9     	 add r1,sp,#424
 535 01a4 FFF7FEFF 	 bl record_writeCalFile_pair
 536 01a8 0446     	 mov r4,r0
 537 01aa 0028     	 cmp r0,#0
 538 01ac 45D1     	 bne .L106
 539 01ae 3746     	 mov r7,r6
 540 01b0 57F8040B 	 ldr r0,[r7],#4
 541 01b4 FFF7FEFF 	 bl __aeabi_f2d
 542 01b8 0B46     	 mov r3,r1
 543 01ba 3449     	 ldr r1,.L122+68
 544 01bc 0246     	 mov r2,r0
 545 01be 06A8     	 add r0,sp,#24
 546              	.L117:
 547 01c0 0134     	 adds r4,r4,#1
 548 01c2 FFF7FEFF 	 bl sprintf
 549 01c6 E3B2     	 uxtb r3,r4
 550 01c8 AB42     	 cmp r3,r5
 551 01ca 06A8     	 add r0,sp,#24
 552 01cc 0DD2     	 bcs .L120
 553 01ce FFF7FEFF 	 bl strlen
 554 01d2 06AB     	 add r3,sp,#24
 555 01d4 03EB0008 	 add r8,r3,r0
 556 01d8 57F8040B 	 ldr r0,[r7],#4
 557 01dc FFF7FEFF 	 bl __aeabi_f2d
 558 01e0 0246     	 mov r2,r0
 559 01e2 0B46     	 mov r3,r1
 560 01e4 4046     	 mov r0,r8
 561 01e6 2449     	 ldr r1,.L122+48
 562 01e8 EAE7     	 b .L117
 563              	.L120:
 564 01ea FFF7FEFF 	 bl strlen
 565 01ee 06AB     	 add r3,sp,#24
 566 01f0 1844     	 add r0,r0,r3
 567 01f2 2249     	 ldr r1,.L122+52
 568 01f4 FFF7FEFF 	 bl strcpy
 569 01f8 6AA8     	 add r0,sp,#424
 570 01fa 2149     	 ldr r1,.L122+56
 571 01fc 3268     	 ldr r2,[r6]
 572 01fe FFF7FEFF 	 bl sprintf
 573 0202 0024     	 movs r4,#0
 574              	.L114:
 575 0204 0134     	 adds r4,r4,#1
 576 0206 E3B2     	 uxtb r3,r4
 577 0208 AB42     	 cmp r3,r5
 578 020a 6AA8     	 add r0,sp,#424
 579 020c 09D2     	 bcs .L121
 580 020e FFF7FEFF 	 bl strlen
 581 0212 6AAB     	 add r3,sp,#424
 582 0214 1844     	 add r0,r0,r3
 583 0216 1B49     	 ldr r1,.L122+60
 584 0218 56F82420 	 ldr r2,[r6,r4,lsl#2]
 585 021c FFF7FEFF 	 bl sprintf
 586 0220 F0E7     	 b .L114
 587              	.L121:
 588 0222 FFF7FEFF 	 bl strlen
 589 0226 6AAB     	 add r3,sp,#424
 590 0228 1749     	 ldr r1,.L122+64
 591 022a 1844     	 add r0,r0,r3
 592 022c 0022     	 movs r2,#0
 593 022e FFF7FEFF 	 bl sprintf
 594 0232 06A8     	 add r0,sp,#24
 595 0234 6AA9     	 add r1,sp,#424
 596 0236 FFF7FEFF 	 bl record_writeCalFile_pair
 597              	.L106:
 598 023a 0020     	 movs r0,#0
 599 023c FFF7FEFF 	 bl record_closeFile
 600              	.L100:
 601 0240 0DF54F7D 	 add sp,sp,#828
 602              	 
 603 0244 BDE8F08F 	 pop {r4,r5,r6,r7,r8,r9,r10,fp,pc}
 604              	.L123:
 605              	 .align 2
 606              	.L122:
 607 0248 00000000 	 .word sdState
 608 024c 19000000 	 .word .LC5
 609 0250 24000000 	 .word .LC6
 610 0254 00000000 	 .word .LANCHOR0
 611 0258 B9000000 	 .word .LC7
 612 025c BD000000 	 .word .LC8
 613 0260 D8000000 	 .word .LC9
 614 0264 02010000 	 .word .LC10
 615 0268 1B010000 	 .word .LC11
 616 026c 34010000 	 .word .LC12
 617 0270 48010000 	 .word .LC13
 618 0274 62010000 	 .word .LC14
 619 0278 77010000 	 .word .LC15
 620 027c 7D010000 	 .word .LC16
 621 0280 81010000 	 .word .LC17
 622 0284 87010000 	 .word .LC18
 623 0288 8E010000 	 .word .LC19
 624 028c 92010000 	 .word .LC20
 626              	 .section .text.record_readCalFile,"ax",%progbits
 627              	 .align 1
 628              	 .global record_readCalFile
 629              	 .thumb
 630              	 .thumb_func
 632              	record_readCalFile:
 633              	 
 634              	 
 635 0000 2DE9F047 	 push {r4,r5,r6,r7,r8,r9,r10,lr}
 636 0004 914E     	 ldr r6,.L166
 637 0006 E6B0     	 sub sp,sp,#408
 638 0008 0546     	 mov r5,r0
 639 000a 0120     	 movs r0,#1
 640 000c 1F46     	 mov r7,r3
 641 000e 8846     	 mov r8,r1
 642 0010 9146     	 mov r9,r2
 643 0012 FFF7FEFF 	 bl record_mountDisk
 644 0016 3378     	 ldrb r3,[r6]
 645 0018 013B     	 subs r3,r3,#1
 646 001a 012B     	 cmp r3,#1
 647 001c 00F20D81 	 bhi .L126
 648 0020 686B     	 ldr r0,[r5,#52]
 649 0022 0021     	 movs r1,#0
 650 0024 FFF7FEFF 	 bl f_stat
 651 0028 0446     	 mov r4,r0
 652 002a 0028     	 cmp r0,#0
 653 002c 40F00581 	 bne .L126
 654 0030 686B     	 ldr r0,[r5,#52]
 655 0032 0121     	 movs r1,#1
 656 0034 FFF7FEFF 	 bl record_openFile.constprop.5
 657 0038 3378     	 ldrb r3,[r6]
 658 003a 022B     	 cmp r3,#2
 659 003c 40F0FD80 	 bne .L126
 660 0040 8348     	 ldr r0,.L166+4
 661 0042 2146     	 mov r1,r4
 662 0044 FFF7FEFF 	 bl f_lseek
 663 0048 0646     	 mov r6,r0
 664 004a 0028     	 cmp r0,#0
 665 004c 40F0F280 	 bne .L142
 666 0050 02AC     	 add r4,sp,#8
 667 0052 2046     	 mov r0,r4
 668 0054 4FF4C871 	 mov r1,#400
 669 0058 7D4A     	 ldr r2,.L166+4
 670 005a FFF7FEFF 	 bl f_gets
 671 005e 0028     	 cmp r0,#0
 672 0060 00F0E880 	 beq .L142
 673 0064 2046     	 mov r0,r4
 674 0066 4FF4C871 	 mov r1,#400
 675 006a 794A     	 ldr r2,.L166+4
 676 006c FFF7FEFF 	 bl f_gets
 677 0070 0028     	 cmp r0,#0
 678 0072 00F0DF80 	 beq .L142
 679 0076 3146     	 mov r1,r6
 680 0078 0A22     	 movs r2,#10
 681 007a 2046     	 mov r0,r4
 682 007c FFF7FEFF 	 bl strtoul
 683 0080 C0B2     	 uxtb r0,r0
 684 0082 85F83900 	 strb r0,[r5,#57]
 685 0086 6421     	 movs r1,#100
 686 0088 714A     	 ldr r2,.L166+4
 687 008a 2046     	 mov r0,r4
 688 008c FFF7FEFF 	 bl f_gets
 689 0090 2046     	 mov r0,r4
 690 0092 6421     	 movs r1,#100
 691 0094 6E4A     	 ldr r2,.L166+4
 692 0096 FFF7FEFF 	 bl f_gets
 693 009a 0028     	 cmp r0,#0
 694 009c 00F0CA80 	 beq .L142
 695 00a0 0094     	 str r4,[sp]
 696              	.L130:
 697 00a2 6946     	 mov r1,sp
 698 00a4 1022     	 movs r2,#16
 699 00a6 0098     	 ldr r0,[sp]
 700 00a8 FFF7FEFF 	 bl strtoul
 701 00ac 06F10E03 	 add r3,r6,#14
 702 00b0 05EB8303 	 add r3,r5,r3,lsl#2
 703 00b4 DDF800A0 	 ldr r10,[sp]
 704 00b8 5860     	 str r0,[r3,#4]
 705 00ba 2046     	 mov r0,r4
 706 00bc FFF7FEFF 	 bl strlen
 707 00c0 C4EB0A03 	 rsb r3,r4,r10
 708 00c4 8342     	 cmp r3,r0
 709 00c6 38BF     	 it cc
 710 00c8 0AF10103 	 addcc r3,r10,#1
 711 00cc 06F10106 	 add r6,r6,#1
 712 00d0 38BF     	 it cc
 713 00d2 0093     	 strcc r3,[sp]
 714 00d4 042E     	 cmp r6,#4
 715 00d6 E4D1     	 bne .L130
 716 00d8 4FF4C871 	 mov r1,#400
 717 00dc 5C4A     	 ldr r2,.L166+4
 718 00de 2046     	 mov r0,r4
 719 00e0 FFF7FEFF 	 bl f_gets
 720 00e4 2046     	 mov r0,r4
 721 00e6 4FF4C871 	 mov r1,#400
 722 00ea 594A     	 ldr r2,.L166+4
 723 00ec FFF7FEFF 	 bl f_gets
 724 00f0 0028     	 cmp r0,#0
 725 00f2 00F09F80 	 beq .L142
 726 00f6 0021     	 movs r1,#0
 727 00f8 0A22     	 movs r2,#10
 728 00fa 2046     	 mov r0,r4
 729 00fc FFF7FEFF 	 bl strtoul
 730 0100 80B2     	 uxth r0,r0
 731 0102 2886     	 strh r0,[r5,#48]
 732 0104 4FF4C871 	 mov r1,#400
 733 0108 514A     	 ldr r2,.L166+4
 734 010a 2046     	 mov r0,r4
 735 010c FFF7FEFF 	 bl f_gets
 736 0110 2046     	 mov r0,r4
 737 0112 4FF4C871 	 mov r1,#400
 738 0116 4E4A     	 ldr r2,.L166+4
 739 0118 FFF7FEFF 	 bl f_gets
 740 011c 0028     	 cmp r0,#0
 741 011e 00F08980 	 beq .L142
 742 0122 0021     	 movs r1,#0
 743 0124 0A22     	 movs r2,#10
 744 0126 2046     	 mov r0,r4
 745 0128 FFF7FEFF 	 bl strtoul
 746 012c 80B2     	 uxth r0,r0
 747 012e E884     	 strh r0,[r5,#38]
 748 0130 4FF4C871 	 mov r1,#400
 749 0134 464A     	 ldr r2,.L166+4
 750 0136 2046     	 mov r0,r4
 751 0138 FFF7FEFF 	 bl f_gets
 752 013c 2046     	 mov r0,r4
 753 013e 4FF4C871 	 mov r1,#400
 754 0142 434A     	 ldr r2,.L166+4
 755 0144 FFF7FEFF 	 bl f_gets
 756 0148 0028     	 cmp r0,#0
 757 014a 73D0     	 beq .L142
 758 014c 002F     	 cmp r7,#0
 759 014e 71D0     	 beq .L142
 760 0150 2046     	 mov r0,r4
 761 0152 0021     	 movs r1,#0
 762 0154 0A22     	 movs r2,#10
 763 0156 FFF7FEFF 	 bl strtoul
 764 015a C0B2     	 uxtb r0,r0
 765 015c 3880     	 strh r0,[r7]
 766 015e 0028     	 cmp r0,#0
 767 0160 68D0     	 beq .L142
 768 0162 0130     	 adds r0,r0,#1
 769 0164 8600     	 lsls r6,r0,#2
 770 0166 3046     	 mov r0,r6
 771 0168 FFF7FEFF 	 bl malloc
 772 016c C9F80000 	 str r0,[r9]
 773 0170 3046     	 mov r0,r6
 774 0172 FFF7FEFF 	 bl malloc
 775 0176 6421     	 movs r1,#100
 776 0178 C8F80000 	 str r0,[r8]
 777 017c 344A     	 ldr r2,.L166+4
 778 017e 0194     	 str r4,[sp,#4]
 779 0180 2046     	 mov r0,r4
 780 0182 FFF7FEFF 	 bl f_gets
 781 0186 2046     	 mov r0,r4
 782 0188 6421     	 movs r1,#100
 783 018a 314A     	 ldr r2,.L166+4
 784 018c FFF7FEFF 	 bl f_gets
 785 0190 20B9     	 cbnz r0,.L134
 786 0192 2D23     	 movs r3,#45
 787 0194 2370     	 strb r3,[r4]
 788 0196 3123     	 movs r3,#49
 789 0198 6370     	 strb r3,[r4,#1]
 790 019a A070     	 strb r0,[r4,#2]
 791              	.L134:
 792 019c 0194     	 str r4,[sp,#4]
 793 019e 4FF0000A 	 mov r10,#0
 794              	.L135:
 795 01a2 3B88     	 ldrh r3,[r7]
 796 01a4 5FFA8AF6 	 uxtb r6,r10
 797 01a8 9E42     	 cmp r6,r3
 798 01aa 15D2     	 bcs .L165
 799 01ac 01A9     	 add r1,sp,#4
 800 01ae 1022     	 movs r2,#16
 801 01b0 0198     	 ldr r0,[sp,#4]
 802 01b2 FFF7FEFF 	 bl strtoul
 803 01b6 D9F80030 	 ldr r3,[r9]
 804 01ba 03EB8603 	 add r3,r3,r6,lsl#2
 805 01be 019E     	 ldr r6,[sp,#4]
 806 01c0 1860     	 str r0,[r3]
 807 01c2 2046     	 mov r0,r4
 808 01c4 FFF7FEFF 	 bl strlen
 809 01c8 331B     	 subs r3,r6,r4
 810 01ca 8342     	 cmp r3,r0
 811 01cc 3CBF     	 itt cc
 812 01ce 0136     	 addcc r6,r6,#1
 813 01d0 0196     	 strcc r6,[sp,#4]
 814 01d2 0AF1010A 	 add r10,r10,#1
 815 01d6 E4E7     	 b .L135
 816              	.L165:
 817 01d8 6421     	 movs r1,#100
 818 01da 1D4A     	 ldr r2,.L166+4
 819 01dc 2046     	 mov r0,r4
 820 01de FFF7FEFF 	 bl f_gets
 821 01e2 2046     	 mov r0,r4
 822 01e4 6421     	 movs r1,#100
 823 01e6 1A4A     	 ldr r2,.L166+4
 824 01e8 FFF7FEFF 	 bl f_gets
 825 01ec 20B9     	 cbnz r0,.L138
 826 01ee 2D23     	 movs r3,#45
 827 01f0 2370     	 strb r3,[r4]
 828 01f2 3123     	 movs r3,#49
 829 01f4 6370     	 strb r3,[r4,#1]
 830 01f6 A070     	 strb r0,[r4,#2]
 831              	.L138:
 832 01f8 0194     	 str r4,[sp,#4]
 833 01fa 4FF00009 	 mov r9,#0
 834              	.L139:
 835 01fe 3B88     	 ldrh r3,[r7]
 836 0200 5FFA89F6 	 uxtb r6,r9
 837 0204 9E42     	 cmp r6,r3
 838 0206 15D2     	 bcs .L142
 839 0208 01A9     	 add r1,sp,#4
 840 020a 1022     	 movs r2,#16
 841 020c 0198     	 ldr r0,[sp,#4]
 842 020e FFF7FEFF 	 bl strtoul
 843 0212 D8F80030 	 ldr r3,[r8]
 844 0216 03EB8603 	 add r3,r3,r6,lsl#2
 845 021a 019E     	 ldr r6,[sp,#4]
 846 021c 1860     	 str r0,[r3]
 847 021e 2046     	 mov r0,r4
 848 0220 FFF7FEFF 	 bl strlen
 849 0224 331B     	 subs r3,r6,r4
 850 0226 8342     	 cmp r3,r0
 851 0228 3CBF     	 itt cc
 852 022a 0136     	 addcc r6,r6,#1
 853 022c 0196     	 strcc r6,[sp,#4]
 854 022e 09F10109 	 add r9,r9,#1
 855 0232 E4E7     	 b .L139
 856              	.L142:
 857 0234 0120     	 movs r0,#1
 858 0236 FFF7FEFF 	 bl record_closeFile
 859              	.L126:
 860 023a 298E     	 ldrh r1,[r5,#48]
 861 023c 2846     	 mov r0,r5
 862 023e 89B2     	 uxth r1,r1
 863 0240 0022     	 movs r2,#0
 864 0242 FFF7FEFF 	 bl measure_movAvgFilter_clean
 865 0246 66B0     	 add sp,sp,#408
 866              	 
 867 0248 BDE8F087 	 pop {r4,r5,r6,r7,r8,r9,r10,pc}
 868              	.L167:
 869              	 .align 2
 870              	.L166:
 871 024c 00000000 	 .word sdState
 872 0250 00000000 	 .word .LANCHOR1
 874              	 .section .text.record_openBMP,"ax",%progbits
 875              	 .align 1
 876              	 .global record_openBMP
 877              	 .thumb
 878              	 .thumb_func
 880              	record_openBMP:
 881              	 
 882              	 
 883 0000 F0B5     	 push {r4,r5,r6,r7,lr}
 884 0002 194B     	 ldr r3,.L177
 885 0004 91B0     	 sub sp,sp,#68
 886 0006 02AA     	 add r2,sp,#8
 887 0008 0546     	 mov r5,r0
 888 000a 03F13007 	 add r7,r3,#48
 889 000e 1646     	 mov r6,r2
 890              	.L169:
 891 0010 1868     	 ldr r0,[r3]
 892 0012 5968     	 ldr r1,[r3,#4]
 893 0014 1446     	 mov r4,r2
 894 0016 03C4     	 stmia r4!,{r0,r1}
 895 0018 0833     	 adds r3,r3,#8
 896 001a BB42     	 cmp r3,r7
 897 001c 2246     	 mov r2,r4
 898 001e F7D1     	 bne .L169
 899 0020 1868     	 ldr r0,[r3]
 900 0022 9B88     	 ldrh r3,[r3,#4]
 901 0024 2060     	 str r0,[r4]
 902 0026 A380     	 strh r3,[r4,#4]
 903 0028 104C     	 ldr r4,.L177+4
 904 002a 0120     	 movs r0,#1
 905 002c FFF7FEFF 	 bl record_mountDisk
 906 0030 2378     	 ldrb r3,[r4]
 907 0032 013B     	 subs r3,r3,#1
 908 0034 012B     	 cmp r3,#1
 909 0036 01D9     	 bls .L170
 910              	.L172:
 911 0038 0020     	 movs r0,#0
 912 003a 12E0     	 b .L171
 913              	.L170:
 914 003c 2846     	 mov r0,r5
 915 003e FFF7FEFF 	 bl record_backupFile
 916 0042 0028     	 cmp r0,#0
 917 0044 F8D0     	 beq .L172
 918 0046 2846     	 mov r0,r5
 919 0048 0021     	 movs r1,#0
 920 004a FFF7FEFF 	 bl record_openFile.constprop.5
 921 004e 2378     	 ldrb r3,[r4]
 922 0050 022B     	 cmp r3,#2
 923 0052 F1D1     	 bne .L172
 924 0054 0648     	 ldr r0,.L177+8
 925 0056 3146     	 mov r1,r6
 926 0058 3622     	 movs r2,#54
 927 005a 01AB     	 add r3,sp,#4
 928 005c FFF7FEFF 	 bl f_write
 929 0060 0120     	 movs r0,#1
 930              	.L171:
 931 0062 11B0     	 add sp,sp,#68
 932              	 
 933 0064 F0BD     	 pop {r4,r5,r6,r7,pc}
 934              	.L178:
 935 0066 00BF     	 .align 2
 936              	.L177:
 937 0068 00000000 	 .word .LANCHOR3
 938 006c 00000000 	 .word sdState
 939 0070 00000000 	 .word .LANCHOR0
 941              	 .section .text.record_writeBMP,"ax",%progbits
 942              	 .align 1
 943              	 .global record_writeBMP
 944              	 .thumb
 945              	 .thumb_func
 947              	record_writeBMP:
 948              	 
 949              	 
 950 0000 07B5     	 push {r0,r1,r2,lr}
 951 0002 0346     	 mov r3,r0
 952 0004 0A46     	 mov r2,r1
 953 0006 0448     	 ldr r0,.L180
 954 0008 1946     	 mov r1,r3
 955 000a 01AB     	 add r3,sp,#4
 956 000c FFF7FEFF 	 bl f_write
 957 0010 03B0     	 add sp,sp,#12
 958              	 
 959 0012 5DF804FB 	 ldr pc,[sp],#4
 960              	.L181:
 961 0016 00BF     	 .align 2
 962              	.L180:
 963 0018 00000000 	 .word .LANCHOR0
 965              	 .section .text.record_closeBMP,"ax",%progbits
 966              	 .align 1
 967              	 .global record_closeBMP
 968              	 .thumb
 969              	 .thumb_func
 971              	record_closeBMP:
 972              	 
 973              	 
 974              	 
 975 0000 044B     	 ldr r3,.L184
 976 0002 1B78     	 ldrb r3,[r3]
 977 0004 013B     	 subs r3,r3,#1
 978 0006 012B     	 cmp r3,#1
 979 0008 02D8     	 bhi .L182
 980 000a 0020     	 movs r0,#0
 981 000c FFF7FEBF 	 b record_closeFile
 982              	.L182:
 983 0010 7047     	 bx lr
 984              	.L185:
 985 0012 00BF     	 .align 2
 986              	.L184:
 987 0014 00000000 	 .word sdState
 989              	 .section .text.record_start,"ax",%progbits
 990              	 .align 1
 991              	 .global record_start
 992              	 .thumb
 993              	 .thumb_func
 995              	record_start:
 996              	 
 997              	 
 998 0000 30B5     	 push {r4,r5,lr}
 999 0002 284D     	 ldr r5,.L196
 1000 0004 87B0     	 sub sp,sp,#28
 1001 0006 0120     	 movs r0,#1
 1002 0008 FFF7FEFF 	 bl record_mountDisk
 1003 000c 2C78     	 ldrb r4,[r5]
 1004 000e 012C     	 cmp r4,#1
 1005 0010 43D1     	 bne .L189
 1006 0012 2549     	 ldr r1,.L196+4
 1007 0014 01A8     	 add r0,sp,#4
 1008 0016 FFF7FEFF 	 bl sprintf
 1009 001a 01A8     	 add r0,sp,#4
 1010 001c FFF7FEFF 	 bl strlen
 1011 0020 06AB     	 add r3,sp,#24
 1012 0022 1844     	 add r0,r0,r3
 1013 0024 4E23     	 movs r3,#78
 1014 0026 00F8153C 	 strb r3,[r0,#-21]
 1015 002a 01A8     	 add r0,sp,#4
 1016 002c FFF7FEFF 	 bl strlen
 1017 0030 06AB     	 add r3,sp,#24
 1018 0032 1844     	 add r0,r0,r3
 1019 0034 4923     	 movs r3,#73
 1020 0036 00F8163C 	 strb r3,[r0,#-22]
 1021 003a 01A8     	 add r0,sp,#4
 1022 003c FFF7FEFF 	 bl strlen
 1023 0040 06AB     	 add r3,sp,#24
 1024 0042 1844     	 add r0,r0,r3
 1025 0044 4223     	 movs r3,#66
 1026 0046 00F8173C 	 strb r3,[r0,#-23]
 1027 004a 01A8     	 add r0,sp,#4
 1028 004c FFF7FEFF 	 bl record_backupFile
 1029 0050 18B3     	 cbz r0,.L189
 1030 0052 01A8     	 add r0,sp,#4
 1031 0054 0021     	 movs r1,#0
 1032 0056 FFF7FEFF 	 bl record_openFile.constprop.5
 1033 005a 2D78     	 ldrb r5,[r5]
 1034 005c 022D     	 cmp r5,#2
 1035 005e 1CD1     	 bne .L189
 1036 0060 4FF48050 	 mov r0,#4096
 1037 0064 FFF7FEFF 	 bl malloc
 1038 0068 104A     	 ldr r2,.L196+8
 1039 006a 114B     	 ldr r3,.L196+12
 1040 006c 1060     	 str r0,[r2]
 1041 006e 0021     	 movs r1,#0
 1042 0070 1980     	 strh r1,[r3]
 1043 0072 104B     	 ldr r3,.L196+16
 1044 0074 1970     	 strb r1,[r3]
 1045 0076 104B     	 ldr r3,.L196+20
 1046 0078 1970     	 strb r1,[r3]
 1047 007a 104B     	 ldr r3,.L196+24
 1048 007c 1970     	 strb r1,[r3]
 1049 007e 5970     	 strb r1,[r3,#1]
 1050 0080 9970     	 strb r1,[r3,#2]
 1051 0082 D970     	 strb r1,[r3,#3]
 1052 0084 1368     	 ldr r3,[r2]
 1053 0086 43B1     	 cbz r3,.L189
 1054 0088 1068     	 ldr r0,[r2]
 1055 008a 4FF48052 	 mov r2,#4096
 1056 008e FFF7FEFF 	 bl memset
 1057 0092 0B4B     	 ldr r3,.L196+28
 1058 0094 2046     	 mov r0,r4
 1059 0096 1D70     	 strb r5,[r3]
 1060 0098 00E0     	 b .L187
 1061              	.L189:
 1062 009a 0020     	 movs r0,#0
 1063              	.L187:
 1064 009c 40B2     	 sxtb r0,r0
 1065 009e 07B0     	 add sp,sp,#28
 1066              	 
 1067 00a0 30BD     	 pop {r4,r5,pc}
 1068              	.L197:
 1069 00a2 00BF     	 .align 2
 1070              	.L196:
 1071 00a4 00000000 	 .word sdState
 1072 00a8 00000000 	 .word filename_rec
 1073 00ac 00000000 	 .word fifo_buf
 1074 00b0 00000000 	 .word fifo_writeBufIdx
 1075 00b4 00000000 	 .word fifo_writeBlock
 1076 00b8 00000000 	 .word fifo_recordBlock
 1077 00bc 00000000 	 .word fifo_finBlock
 1078 00c0 00000000 	 .word measureMode
 1080              	 .section .text.record_stop,"ax",%progbits
 1081              	 .align 1
 1082              	 .global record_stop
 1083              	 .thumb
 1084              	 .thumb_func
 1086              	record_stop:
 1087              	 
 1088              	 
 1089 0000 70B5     	 push {r4,r5,r6,lr}
 1090 0002 164D     	 ldr r5,.L208
 1091 0004 2B78     	 ldrb r3,[r5]
 1092 0006 022B     	 cmp r3,#2
 1093 0008 25D1     	 bne .L203
 1094 000a 154B     	 ldr r3,.L208+4
 1095 000c 0122     	 movs r2,#1
 1096 000e 1A70     	 strb r2,[r3]
 1097 0010 A8B1     	 cbz r0,.L200
 1098              	.L201:
 1099 0012 144C     	 ldr r4,.L208+8
 1100 0014 144E     	 ldr r6,.L208+12
 1101 0016 2378     	 ldrb r3,[r4]
 1102 0018 DBB2     	 uxtb r3,r3
 1103 001a F35C     	 ldrb r3,[r6,r3]
 1104 001c 012B     	 cmp r3,#1
 1105 001e 0ED1     	 bne .L200
 1106 0020 FFF7FEFF 	 bl record_block
 1107 0024 2378     	 ldrb r3,[r4]
 1108 0026 DBB2     	 uxtb r3,r3
 1109 0028 0022     	 movs r2,#0
 1110 002a F254     	 strb r2,[r6,r3]
 1111 002c 2378     	 ldrb r3,[r4]
 1112 002e 0133     	 adds r3,r3,#1
 1113 0030 DBB2     	 uxtb r3,r3
 1114 0032 2370     	 strb r3,[r4]
 1115 0034 2378     	 ldrb r3,[r4]
 1116 0036 042B     	 cmp r3,#4
 1117 0038 EBD1     	 bne .L201
 1118 003a 2270     	 strb r2,[r4]
 1119 003c E9E7     	 b .L201
 1120              	.L200:
 1121 003e 0B4B     	 ldr r3,.L208+16
 1122 0040 1868     	 ldr r0,[r3]
 1123 0042 FFF7FEFF 	 bl free
 1124 0046 0020     	 movs r0,#0
 1125 0048 FFF7FEFF 	 bl record_closeFile
 1126 004c 2878     	 ldrb r0,[r5]
 1127 004e 0338     	 subs r0,r0,#3
 1128 0050 18BF     	 it ne
 1129 0052 0120     	 movne r0,#1
 1130 0054 70BD     	 pop {r4,r5,r6,pc}
 1131              	.L203:
 1132 0056 0020     	 movs r0,#0
 1133 0058 70BD     	 pop {r4,r5,r6,pc}
 1134              	.L209:
 1135 005a 00BF     	 .align 2
 1136              	.L208:
 1137 005c 00000000 	 .word sdState
 1138 0060 00000000 	 .word measureMode
 1139 0064 00000000 	 .word fifo_recordBlock
 1140 0068 00000000 	 .word fifo_finBlock
 1141 006c 00000000 	 .word fifo_buf
 1143              	 .section .text.record_block,"ax",%progbits
 1144              	 .align 1
 1145              	 .global record_block
 1146              	 .thumb
 1147              	 .thumb_func
 1149              	record_block:
 1150              	 
 1151              	 
 1152 0000 07B5     	 push {r0,r1,r2,lr}
 1153 0002 0B4B     	 ldr r3,.L216
 1154 0004 0B4A     	 ldr r2,.L216+4
 1155 0006 1B68     	 ldr r3,[r3]
 1156 0008 1178     	 ldrb r1,[r2]
 1157 000a 0B48     	 ldr r0,.L216+8
 1158 000c 03EB8121 	 add r1,r3,r1,lsl#10
 1159 0010 4FF48062 	 mov r2,#1024
 1160 0014 01AB     	 add r3,sp,#4
 1161 0016 FFF7FEFF 	 bl f_write
 1162 001a 18B9     	 cbnz r0,.L211
 1163 001c 019B     	 ldr r3,[sp,#4]
 1164 001e B3F5806F 	 cmp r3,#1024
 1165 0022 02D0     	 beq .L210
 1166              	.L211:
 1167 0024 0020     	 movs r0,#0
 1168 0026 FFF7FEFF 	 bl record_stop
 1169              	.L210:
 1170 002a 03B0     	 add sp,sp,#12
 1171              	 
 1172 002c 5DF804FB 	 ldr pc,[sp],#4
 1173              	.L217:
 1174              	 .align 2
 1175              	.L216:
 1176 0030 00000000 	 .word fifo_buf
 1177 0034 00000000 	 .word fifo_recordBlock
 1178 0038 00000000 	 .word .LANCHOR0
 1180              	 .global __aeabi_dadd
 1181              	 .global __aeabi_d2f
 1182              	 .section .text.record_convertBinFile,"ax",%progbits
 1183              	 .align 1
 1184              	 .global record_convertBinFile
 1185              	 .thumb
 1186              	 .thumb_func
 1188              	record_convertBinFile:
 1189              	 
 1190              	 
 1191 0000 2DE9F04F 	 push {r4,r5,r6,r7,r8,r9,r10,fp,lr}
 1192 0004 A04D     	 ldr r5,.L236+8
 1193 0006 0023     	 movs r3,#0
 1194 0008 CBB0     	 sub sp,sp,#300
 1195 000a 8246     	 mov r10,r0
 1196 000c 0520     	 movs r0,#5
 1197 000e 8946     	 mov r9,r1
 1198 0010 2B70     	 strb r3,[r5]
 1199 0012 FFF7FEFF 	 bl delay_ms
 1200 0016 A9F10406 	 sub r6,r9,#4
 1201 001a 3446     	 mov r4,r6
 1202 001c 09F10409 	 add r9,r9,#4
 1203              	.L219:
 1204 0020 54F8043F 	 ldr r3,[r4,#4]!
 1205 0024 DA89     	 ldrh r2,[r3,#14]
 1206 0026 9A81     	 strh r2,[r3,#12]
 1207 0028 1A8E     	 ldrh r2,[r3,#48]
 1208 002a 83F82420 	 strb r2,[r3,#36]
 1209 002e 4FF00008 	 mov r8,#0
 1210 0032 0027     	 movs r7,#0
 1211 0034 C3F82880 	 str r8,[r3,#40]
 1212 0038 DF62     	 str r7,[r3,#44]
 1213 003a 2368     	 ldr r3,[r4]
 1214 003c DA89     	 ldrh r2,[r3,#14]
 1215 003e 1869     	 ldr r0,[r3,#16]
 1216 0040 0132     	 adds r2,r2,#1
 1217 0042 4146     	 mov r1,r8
 1218 0044 5200     	 lsls r2,r2,#1
 1219 0046 FFF7FEFF 	 bl memset
 1220 004a 2368     	 ldr r3,[r4]
 1221 004c DA89     	 ldrh r2,[r3,#14]
 1222 004e 5869     	 ldr r0,[r3,#20]
 1223 0050 0132     	 adds r2,r2,#1
 1224 0052 4146     	 mov r1,r8
 1225 0054 9200     	 lsls r2,r2,#2
 1226 0056 FFF7FEFF 	 bl memset
 1227 005a 2368     	 ldr r3,[r4]
 1228 005c DA89     	 ldrh r2,[r3,#14]
 1229 005e 9869     	 ldr r0,[r3,#24]
 1230 0060 0132     	 adds r2,r2,#1
 1231 0062 4146     	 mov r1,r8
 1232 0064 9200     	 lsls r2,r2,#2
 1233 0066 FFF7FEFF 	 bl memset
 1234 006a 4C45     	 cmp r4,r9
 1235 006c D8D1     	 bne .L219
 1236 006e 0120     	 movs r0,#1
 1237 0070 FFF7FEFF 	 bl record_mountDisk
 1238 0074 854B     	 ldr r3,.L236+12
 1239 0076 1B78     	 ldrb r3,[r3]
 1240 0078 013B     	 subs r3,r3,#1
 1241 007a 012B     	 cmp r3,#1
 1242 007c 00F2F980 	 bhi .L220
 1243 0080 5146     	 mov r1,r10
 1244 0082 13A8     	 add r0,sp,#76
 1245 0084 FFF7FEFF 	 bl sprintf
 1246 0088 13A8     	 add r0,sp,#76
 1247 008a FFF7FEFF 	 bl strlen
 1248 008e 4AAB     	 add r3,sp,#296
 1249 0090 1844     	 add r0,r0,r3
 1250 0092 4E23     	 movs r3,#78
 1251 0094 00F8DD3C 	 strb r3,[r0,#-221]
 1252 0098 13A8     	 add r0,sp,#76
 1253 009a FFF7FEFF 	 bl strlen
 1254 009e 4AAB     	 add r3,sp,#296
 1255 00a0 1844     	 add r0,r0,r3
 1256 00a2 4923     	 movs r3,#73
 1257 00a4 00F8DE3C 	 strb r3,[r0,#-222]
 1258 00a8 13A8     	 add r0,sp,#76
 1259 00aa FFF7FEFF 	 bl strlen
 1260 00ae 4AAB     	 add r3,sp,#296
 1261 00b0 1844     	 add r0,r0,r3
 1262 00b2 4223     	 movs r3,#66
 1263 00b4 5146     	 mov r1,r10
 1264 00b6 00F8DF3C 	 strb r3,[r0,#-223]
 1265 00ba 0EA8     	 add r0,sp,#56
 1266 00bc FFF7FEFF 	 bl sprintf
 1267 00c0 0EA8     	 add r0,sp,#56
 1268 00c2 FFF7FEFF 	 bl strlen
 1269 00c6 4AAB     	 add r3,sp,#296
 1270 00c8 1844     	 add r0,r0,r3
 1271 00ca 5623     	 movs r3,#86
 1272 00cc 00F8F13C 	 strb r3,[r0,#-241]
 1273 00d0 0EA8     	 add r0,sp,#56
 1274 00d2 FFF7FEFF 	 bl strlen
 1275 00d6 4AAB     	 add r3,sp,#296
 1276 00d8 1844     	 add r0,r0,r3
 1277 00da 5323     	 movs r3,#83
 1278 00dc 00F8F23C 	 strb r3,[r0,#-242]
 1279 00e0 0EA8     	 add r0,sp,#56
 1280 00e2 FFF7FEFF 	 bl strlen
 1281 00e6 4AAB     	 add r3,sp,#296
 1282 00e8 1844     	 add r0,r0,r3
 1283 00ea 4323     	 movs r3,#67
 1284 00ec 00F8F33C 	 strb r3,[r0,#-243]
 1285 00f0 0EA8     	 add r0,sp,#56
 1286 00f2 FFF7FEFF 	 bl record_backupFile
 1287 00f6 4146     	 mov r1,r8
 1288 00f8 0446     	 mov r4,r0
 1289 00fa 13A8     	 add r0,sp,#76
 1290 00fc FFF7FEFF 	 bl f_stat
 1291 0100 012C     	 cmp r4,#1
 1292 0102 8046     	 mov r8,r0
 1293 0104 40F0B580 	 bne .L220
 1294 0108 0028     	 cmp r0,#0
 1295 010a 40F0B280 	 bne .L220
 1296 010e 2146     	 mov r1,r4
 1297 0110 13A8     	 add r0,sp,#76
 1298 0112 FFF7FEFF 	 bl record_openFile.constprop.5
 1299 0116 4146     	 mov r1,r8
 1300 0118 0446     	 mov r4,r0
 1301 011a 0EA8     	 add r0,sp,#56
 1302 011c FFF7FEFF 	 bl record_openFile.constprop.5
 1303 0120 2043     	 orrs r0,r0,r4
 1304 0122 10F0FF04 	 ands r4,r0,#255
 1305 0126 06D0     	 beq .L222
 1306              	.L227:
 1307 0128 0120     	 movs r0,#1
 1308 012a FFF7FEFF 	 bl record_closeFile
 1309 012e 0020     	 movs r0,#0
 1310 0130 FFF7FEFF 	 bl record_closeFile
 1311 0134 9DE0     	 b .L220
 1312              	.L222:
 1313 0136 2146     	 mov r1,r4
 1314 0138 5548     	 ldr r0,.L236+16
 1315 013a FFF7FEFF 	 bl f_lseek
 1316 013e 2146     	 mov r1,r4
 1317 0140 5448     	 ldr r0,.L236+20
 1318 0142 FFF7FEFF 	 bl f_lseek
 1319 0146 5449     	 ldr r1,.L236+24
 1320 0148 18A8     	 add r0,sp,#96
 1321 014a FFF7FEFF 	 bl strcpy
 1322 014e 18A8     	 add r0,sp,#96
 1323 0150 FFF7FEFF 	 bl strlen
 1324 0154 18A9     	 add r1,sp,#96
 1325 0156 0246     	 mov r2,r0
 1326 0158 0CAB     	 add r3,sp,#48
 1327 015a 4E48     	 ldr r0,.L236+20
 1328 015c FFF7FEFF 	 bl f_write
 1329 0160 8DF86040 	 strb r4,[sp,#96]
 1330 0164 3846     	 mov r0,r7
 1331              	.L223:
 1332 0166 4A4B     	 ldr r3,.L236+16
 1333 0168 1A68     	 ldr r2,[r3]
 1334 016a 002A     	 cmp r2,#0
 1335 016c DCD0     	 beq .L227
 1336 016e 9A69     	 ldr r2,[r3,#24]
 1337 0170 DB68     	 ldr r3,[r3,#12]
 1338 0172 9A42     	 cmp r2,r3
 1339 0174 D8D0     	 beq .L227
 1340 0176 0024     	 movs r4,#0
 1341 0178 ADF82E40 	 strh r4,[sp,#46]
 1342 017c FFF7FEFF 	 bl __aeabi_f2d
 1343 0180 8046     	 mov r8,r0
 1344 0182 8946     	 mov r9,r1
 1345 0184 18A8     	 add r0,sp,#96
 1346 0186 4549     	 ldr r1,.L236+28
 1347 0188 4246     	 mov r2,r8
 1348 018a 4B46     	 mov r3,r9
 1349 018c FFF7FEFF 	 bl sprintf
 1350 0190 B246     	 mov r10,r6
 1351 0192 3B27     	 movs r7,#59
 1352              	.L226:
 1353 0194 4AA9     	 add r1,sp,#296
 1354 0196 4FF0000B 	 mov fp,#0
 1355 019a 21F8FABD 	 strh fp,[r1,#-250]!
 1356 019e 0222     	 movs r2,#2
 1357 01a0 0DAB     	 add r3,sp,#52
 1358 01a2 3B48     	 ldr r0,.L236+16
 1359 01a4 FFF7FEFF 	 bl f_read
 1360 01a8 5AF8040F 	 ldr r0,[r10,#4]!
 1361 01ac BDF82E10 	 ldrh r1,[sp,#46]
 1362 01b0 8389     	 ldrh r3,[r0,#12]
 1363 01b2 C289     	 ldrh r2,[r0,#14]
 1364 01b4 0133     	 adds r3,r3,#1
 1365 01b6 9BB2     	 uxth r3,r3
 1366 01b8 9A42     	 cmp r2,r3
 1367 01ba 8381     	 strh r3,[r0,#12]
 1368 01bc 38BF     	 it cc
 1369 01be A0F80CB0 	 strhcc fp,[r0,#12]
 1370 01c2 8289     	 ldrh r2,[r0,#12]
 1371 01c4 0369     	 ldr r3,[r0,#16]
 1372 01c6 23F81210 	 strh r1,[r3,r2,lsl#1]
 1373 01ca FFF7FEFF 	 bl measure_postProcessing
 1374 01ce 012C     	 cmp r4,#1
 1375 01d0 18A8     	 add r0,sp,#96
 1376 01d2 08BF     	 it eq
 1377 01d4 0A27     	 moveq r7,#10
 1378 01d6 FFF7FEFF 	 bl strlen
 1379 01da DAF800B0 	 ldr fp,[r10]
 1380 01de 18A9     	 add r1,sp,#96
 1381 01e0 BBF80C20 	 ldrh r2,[fp,#12]
 1382 01e4 01EB000C 	 add ip,r1,r0
 1383 01e8 DBF81010 	 ldr r1,[fp,#16]
 1384 01ec CDF824C0 	 str ip,[sp,#36]
 1385 01f0 9300     	 lsls r3,r2,#2
 1386 01f2 31F81220 	 ldrh r2,[r1,r2,lsl#1]
 1387 01f6 DBF81410 	 ldr r1,[fp,#20]
 1388 01fa 0892     	 str r2,[sp,#32]
 1389 01fc 1944     	 add r1,r1,r3
 1390 01fe 0793     	 str r3,[sp,#28]
 1391 0200 0868     	 ldr r0,[r1]
 1392 0202 FFF7FEFF 	 bl __aeabi_f2d
 1393 0206 CDE90001 	 strd r0,[sp]
 1394 020a 079B     	 ldr r3,[sp,#28]
 1395 020c DBF81810 	 ldr r1,[fp,#24]
 1396 0210 0B44     	 add r3,r3,r1
 1397 0212 1868     	 ldr r0,[r3]
 1398 0214 FFF7FEFF 	 bl __aeabi_f2d
 1399 0218 CDE90201 	 strd r0,[sp,#8]
 1400 021c DDF824C0 	 ldr ip,[sp,#36]
 1401 0220 9BF82430 	 ldrb r3,[fp,#36]
 1402 0224 0493     	 str r3,[sp,#16]
 1403 0226 0597     	 str r7,[sp,#20]
 1404 0228 6046     	 mov r0,ip
 1405 022a 1D49     	 ldr r1,.L236+32
 1406 022c 089A     	 ldr r2,[sp,#32]
 1407 022e FFF7FEFF 	 bl sprintf
 1408 0232 0CB9     	 cbnz r4,.L235
 1409 0234 0124     	 movs r4,#1
 1410 0236 ADE7     	 b .L226
 1411              	.L235:
 1412 0238 18A8     	 add r0,sp,#96
 1413 023a FFF7FEFF 	 bl strlen
 1414 023e 18A9     	 add r1,sp,#96
 1415 0240 0246     	 mov r2,r0
 1416 0242 0CAB     	 add r3,sp,#48
 1417 0244 1348     	 ldr r0,.L236+20
 1418 0246 FFF7FEFF 	 bl f_write
 1419 024a 0DF12E01 	 add r1,sp,#46
 1420 024e 0DAB     	 add r3,sp,#52
 1421 0250 0022     	 movs r2,#0
 1422 0252 0F48     	 ldr r0,.L236+16
 1423 0254 FFF7FEFF 	 bl f_read
 1424 0258 0023     	 movs r3,#0
 1425 025a 8DF86030 	 strb r3,[sp,#96]
 1426 025e 4046     	 mov r0,r8
 1427 0260 07A3     	 adr r3,.L236
 1428 0262 D3E90023 	 ldrd r2,[r3]
 1429 0266 4946     	 mov r1,r9
 1430 0268 FFF7FEFF 	 bl __aeabi_dadd
 1431 026c FFF7FEFF 	 bl __aeabi_d2f
 1432 0270 79E7     	 b .L223
 1433              	.L220:
 1434 0272 0123     	 movs r3,#1
 1435 0274 2B70     	 strb r3,[r5]
 1436 0276 4BB0     	 add sp,sp,#300
 1437              	 
 1438 0278 BDE8F08F 	 pop {r4,r5,r6,r7,r8,r9,r10,fp,pc}
 1439              	.L237:
 1440 027c AFF30080 	 .align 3
 1441              	.L236:
 1442 0280 7B14AE47 	 .word 1202590843
 1443 0284 E17A743F 	 .word 1064598241
 1444 0288 00000000 	 .word measureMode
 1445 028c 00000000 	 .word sdState
 1446 0290 00000000 	 .word .LANCHOR1
 1447 0294 00000000 	 .word .LANCHOR0
 1448 0298 A7010000 	 .word .LC21
 1449 029c F9010000 	 .word .LC22
 1450 02a0 FF010000 	 .word .LC23
 1452              	 .comm diskStatus,1,1
 1453              	 .comm frameover,1,1
 1454              	 .comm sdState,1,1
 1455              	 .comm measureMode,1,1
 1456              	 .comm fifo_recordBlock,1,1
 1457              	 .comm fifo_writeBlock,1,1
 1458              	 .comm fifo_writeBufIdx,2,2
 1459              	 .comm fifo_buf,4,4
 1460              	 .comm filename_rec_curLength,1,1
 1461              	 .comm sensor2,76,4
 1462              	 .comm s2_filename_cal,20,1
 1463              	 .comm sensor1,76,4
 1464              	 .comm s1_filename_cal,20,1
 1465              	 .comm measurementCurSensor,1,1
 1466              	 .comm measurementCounter,4,4
 1467              	 .comm main_trigger,1,1
 1468              	 .comm _msCounter,4,4
 1469 02a4 AFF30080 	 .section .rodata
 1470              	 .set .LANCHOR3,.+0
 1471              	.LC0:
 1472 0000 42       	 .byte 66
 1473 0001 4D       	 .byte 77
 1474 0002 38       	 .byte 56
 1475 0003 F8       	 .byte -8
 1476 0004 07       	 .byte 7
 1477 0005 00       	 .byte 0
 1478 0006 00       	 .byte 0
 1479 0007 00       	 .byte 0
 1480 0008 00       	 .byte 0
 1481 0009 00       	 .byte 0
 1482 000a 36       	 .byte 54
 1483 000b 00       	 .byte 0
 1484 000c 00       	 .byte 0
 1485 000d 00       	 .byte 0
 1486 000e 28       	 .byte 40
 1487 000f 00       	 .byte 0
 1488 0010 00       	 .byte 0
 1489 0011 00       	 .byte 0
 1490 0012 E0       	 .byte -32
 1491 0013 01       	 .byte 1
 1492 0014 00       	 .byte 0
 1493 0015 00       	 .byte 0
 1494 0016 F0       	 .byte -16
 1495 0017 FE       	 .byte -2
 1496 0018 FF       	 .byte -1
 1497 0019 FF       	 .byte -1
 1498 001a 01       	 .byte 1
 1499 001b 00       	 .byte 0
 1500 001c 20       	 .byte 32
 1501 001d 00       	 .byte 0
 1502 001e 00       	 .byte 0
 1503 001f 00       	 .byte 0
 1504 0020 00       	 .byte 0
 1505 0021 00       	 .byte 0
 1506 0022 02       	 .byte 2
 1507 0023 F8       	 .byte -8
 1508 0024 07       	 .byte 7
 1509 0025 00       	 .byte 0
 1510 0026 12       	 .byte 18
 1511 0027 0B       	 .byte 11
 1512 0028 00       	 .byte 0
 1513 0029 00       	 .byte 0
 1514 002a 12       	 .byte 18
 1515 002b 0B       	 .byte 11
 1516 002c 00       	 .byte 0
 1517 002d 00       	 .byte 0
 1518 002e 00       	 .byte 0
 1519 002f 00       	 .byte 0
 1520 0030 00       	 .byte 0
 1521 0031 00       	 .byte 0
 1522 0032 00       	 .byte 0
 1523 0033 00       	 .byte 0
 1524 0034 00       	 .byte 0
 1525 0035 00       	 .byte 0
 1526              	 .section .bss.fil_w,"aw",%nobits
 1527              	 .align 2
 1528              	 .set .LANCHOR0,.+0
 1531              	fil_w:
 1532 0000 00000000 	 .space 556
 1532      00000000 
 1532      00000000 
 1532      00000000 
 1532      00000000 
 1533              	 .section .bss.fs,"aw",%nobits
 1534              	 .align 2
 1535              	 .set .LANCHOR2,.+0
 1538              	fs:
 1539 0000 00000000 	 .space 564
 1539      00000000 
 1539      00000000 
 1539      00000000 
 1539      00000000 
 1540              	 .section .rodata.str1.1,"aMS",%progbits,1
 1541              	.LC1:
 1542 0000 25733031 	 .ascii "%s01.%s\000"
 1542      2E257300 
 1543              	.LC2:
 1544 0008 25732530 	 .ascii "%s%02d.%s\000"
 1544      32642E25 
 1544      7300
 1545              	.LC3:
 1546 0012 2E257300 	 .ascii ".%s\000"
 1547              	.LC4:
 1548 0016 303A00   	 .ascii "0:\000"
 1549              	.LC5:
 1550 0019 53256442 	 .ascii "S%dBAK.CAL\000"
 1550      414B2E43 
 1550      414C00
 1551              	.LC6:
 1552 0024 23205370 	 .ascii "# Specification of sensor %d '%s'. Odd lines are co"
 1552      65636966 
 1552      69636174 
 1552      696F6E20 
 1552      6F662073 
 1553 0057 6D6D656E 	 .ascii "mments, even lines are values. Float values are con"
 1553      74732C20 
 1553      6576656E 
 1553      206C696E 
 1553      65732061 
 1554 008a 76657274 	 .ascii "verted to 32bit integer hex (memory content). \000"
 1554      65642074 
 1554      6F203332 
 1554      62697420 
 1554      696E7465 
 1555              	.LC7:
 1556 00b9 25640A00 	 .ascii "%d\012\000"
 1557              	.LC8:
 1558 00bd 43757276 	 .ascii "Curve fit function order:\012\000"
 1558      65206669 
 1558      74206675 
 1558      6E637469 
 1558      6F6E206F 
 1559              	.LC9:
 1560 00d8 2320436F 	 .ascii "# Coefficients (%.8f, %.8f, %.8f, %.8f):\012\000"
 1560      65666669 
 1560      6369656E 
 1560      74732028 
 1560      252E3866 
 1561              	.LC10:
 1562 0102 2530386C 	 .ascii "%08lX,%08lX,%08lX,%08lX\012\000"
 1562      582C2530 
 1562      386C582C 
 1562      2530386C 
 1562      582C2530 
 1563              	.LC11:
 1564 011b 23204176 	 .ascii "# Average filter order:\012\000"
 1564      65726167 
 1564      65206669 
 1564      6C746572 
 1564      206F7264 
 1565              	.LC12:
 1566 0134 23204572 	 .ascii "# Error threshold:\012\000"
 1566      726F7220 
 1566      74687265 
 1566      73686F6C 
 1566      643A0A00 
 1567              	.LC13:
 1568 0148 23204E75 	 .ascii "# Number of data points:\012\000"
 1568      6D626572 
 1568      206F6620 
 1568      64617461 
 1568      20706F69 
 1569              	.LC14:
 1570 0162 23204461 	 .ascii "# Datapoints x (%.8f\000"
 1570      7461706F 
 1570      696E7473 
 1570      20782028 
 1570      252E3866 
 1571              	.LC15:
 1572 0177 2C252E38 	 .ascii ",%.8f\000"
 1572      6600
 1573              	.LC16:
 1574 017d 293A0A00 	 .ascii "):\012\000"
 1575              	.LC17:
 1576 0181 2530386C 	 .ascii "%08lX\000"
 1576      5800
 1577              	.LC18:
 1578 0187 2C253038 	 .ascii ",%08lX\000"
 1578      6C5800
 1579              	.LC19:
 1580 018e 0A256300 	 .ascii "\012%c\000"
 1581              	.LC20:
 1582 0192 23204461 	 .ascii "# Datapoints y (%.8f\000"
 1582      7461706F 
 1582      696E7473 
 1582      20792028 
 1582      252E3866 
 1583              	.LC21:
 1584 01a7 54696D65 	 .ascii "Time;S1_RAW;S1_FILTERED;S1_CONVERTED;S1_EO;S2_RAW;S"
 1584      3B53315F 
 1584      5241573B 
 1584      53315F46 
 1584      494C5445 
 1585 01da 325F4649 	 .ascii "2_FILTERED;S2_CONVERTED;S2_EO\012\000"
 1585      4C544552 
 1585      45443B53 
 1585      325F434F 
 1585      4E564552 
 1586              	.LC22:
 1587 01f9 252E3366 	 .ascii "%.3f;\000"
 1587      3B00
 1588              	.LC23:
 1589 01ff 25643B25 	 .ascii "%d;%.1f;%.2f;%d%c\000"
 1589      2E31663B 
 1589      252E3266 
 1589      3B256425 
 1589      6300
 1590              	 .section .bss.fil_r,"aw",%nobits
 1591              	 .align 2
 1592              	 .set .LANCHOR1,.+0
 1595              	fil_r:
 1596 0000 00000000 	 .space 556
 1596      00000000 
 1596      00000000 
 1596      00000000 
 1596      00000000 
 1597              	 .ident "GCC: (GNU Tools for ARM Embedded Processors) 4.9.3 20141119 (release) [ARM/embedded-4_9-branch revision 218278]"
DEFINED SYMBOLS
                            *ABS*:00000000 record.c
    {standard input}:17     .text.record_writeCalFile_pair:00000000 $t
    {standard input}:21     .text.record_writeCalFile_pair:00000000 record_writeCalFile_pair
    {standard input}:51     .text.record_writeCalFile_pair:00000034 $d
    {standard input}:54     .text.record_closeFile:00000000 $t
    {standard input}:58     .text.record_closeFile:00000000 record_closeFile
    {standard input}:105    .text.record_closeFile:00000048 $d
                            *COM*:00000001 sdState
    {standard input}:110    .text.record_backupFile:00000000 $t
    {standard input}:114    .text.record_backupFile:00000000 record_backupFile
    {standard input}:213    .text.record_backupFile:000000d8 $d
    {standard input}:218    .text.record_mountDisk:00000000 $t
    {standard input}:223    .text.record_mountDisk:00000000 record_mountDisk
    {standard input}:278    .text.record_mountDisk:00000060 $d
                            *COM*:00000001 diskStatus
    {standard input}:284    .text.record_openFile.constprop.5:00000000 $t
    {standard input}:288    .text.record_openFile.constprop.5:00000000 record_openFile.constprop.5
    {standard input}:356    .text.record_openFile.constprop.5:0000006c $d
    {standard input}:362    .text.record_writeCalFile:00000000 $t
    {standard input}:367    .text.record_writeCalFile:00000000 record_writeCalFile
    {standard input}:607    .text.record_writeCalFile:00000248 $d
    {standard input}:627    .text.record_readCalFile:00000000 $t
    {standard input}:632    .text.record_readCalFile:00000000 record_readCalFile
    {standard input}:871    .text.record_readCalFile:0000024c $d
    {standard input}:875    .text.record_openBMP:00000000 $t
    {standard input}:880    .text.record_openBMP:00000000 record_openBMP
    {standard input}:937    .text.record_openBMP:00000068 $d
    {standard input}:942    .text.record_writeBMP:00000000 $t
    {standard input}:947    .text.record_writeBMP:00000000 record_writeBMP
    {standard input}:963    .text.record_writeBMP:00000018 $d
    {standard input}:966    .text.record_closeBMP:00000000 $t
    {standard input}:971    .text.record_closeBMP:00000000 record_closeBMP
    {standard input}:987    .text.record_closeBMP:00000014 $d
    {standard input}:990    .text.record_start:00000000 $t
    {standard input}:995    .text.record_start:00000000 record_start
    {standard input}:1071   .text.record_start:000000a4 $d
                            *COM*:00000004 fifo_buf
                            *COM*:00000002 fifo_writeBufIdx
                            *COM*:00000001 fifo_writeBlock
                            *COM*:00000001 fifo_recordBlock
                            *COM*:00000001 measureMode
    {standard input}:1081   .text.record_stop:00000000 $t
    {standard input}:1086   .text.record_stop:00000000 record_stop
    {standard input}:1149   .text.record_block:00000000 record_block
    {standard input}:1137   .text.record_stop:0000005c $d
    {standard input}:1144   .text.record_block:00000000 $t
    {standard input}:1176   .text.record_block:00000030 $d
    {standard input}:1183   .text.record_convertBinFile:00000000 $t
    {standard input}:1188   .text.record_convertBinFile:00000000 record_convertBinFile
    {standard input}:1442   .text.record_convertBinFile:00000280 $d
                            *COM*:00000001 frameover
                            *COM*:00000001 filename_rec_curLength
                            *COM*:0000004c sensor2
                            *COM*:00000014 s2_filename_cal
                            *COM*:0000004c sensor1
                            *COM*:00000014 s1_filename_cal
                            *COM*:00000001 measurementCurSensor
                            *COM*:00000004 measurementCounter
                            *COM*:00000001 main_trigger
                            *COM*:00000004 _msCounter
    {standard input}:1527   .bss.fil_w:00000000 $d
    {standard input}:1531   .bss.fil_w:00000000 fil_w
    {standard input}:1534   .bss.fs:00000000 $d
    {standard input}:1538   .bss.fs:00000000 fs
    {standard input}:1591   .bss.fil_r:00000000 $d
    {standard input}:1595   .bss.fil_r:00000000 fil_r
    {standard input}:1469   .text.record_convertBinFile:000002a4 $t

UNDEFINED SYMBOLS
f_printf
strlen
f_write
f_close
sprintf
f_stat
snprintf
f_rename
disk_status
disk_initialize
f_mount
f_open
__aeabi_f2d
strcpy
f_lseek
f_gets
strtoul
malloc
measure_movAvgFilter_clean
memset
filename_rec
fifo_finBlock
free
__aeabi_dadd
__aeabi_d2f
delay_ms
f_read
measure_postProcessing
