   1              	 .syntax unified
   2              	 .cpu cortex-m4
   3              	 .eabi_attribute 27,3
   4              	 .fpu fpv4-sp-d16
   5              	 .eabi_attribute 20,1
   6              	 .eabi_attribute 21,1
   7              	 .eabi_attribute 23,3
   8              	 .eabi_attribute 24,1
   9              	 .eabi_attribute 25,1
  10              	 .eabi_attribute 26,1
  11              	 .eabi_attribute 30,4
  12              	 .eabi_attribute 34,1
  13              	 .eabi_attribute 18,4
  14              	 .thumb
  15              	 .file "tft.c"
  16              	 .section .text.keypad_open,"ax",%progbits
  17              	 .align 1
  18              	 .global keypad_open
  19              	 .thumb
  20              	 .thumb_func
  22              	keypad_open:
  23              	 
  24              	 
  25              	 
  26 0000 054A     	 ldr r2,.L4
  27 0002 1378     	 ldrb r3,[r2]
  28 0004 3BB9     	 cbnz r3,.L1
  29 0006 0123     	 movs r3,#1
  30 0008 1370     	 strb r3,[r2]
  31 000a 044A     	 ldr r2,.L4+4
  32 000c 1070     	 strb r0,[r2]
  33 000e 044A     	 ldr r2,.L4+8
  34 0010 1170     	 strb r1,[r2]
  35 0012 044A     	 ldr r2,.L4+12
  36 0014 1370     	 strb r3,[r2]
  37              	.L1:
  38 0016 7047     	 bx lr
  39              	.L5:
  40              	 .align 2
  41              	.L4:
  42 0018 00000000 	 .word .LANCHOR0
  43 001c 00000000 	 .word .LANCHOR1
  44 0020 00000000 	 .word .LANCHOR2
  45 0024 00000000 	 .word .LANCHOR3
  47              	 .section .text.keypad_close,"ax",%progbits
  48              	 .align 1
  49              	 .global keypad_close
  50              	 .thumb
  51              	 .thumb_func
  53              	keypad_close:
  54              	 
  55              	 
  56              	 
  57 0000 044A     	 ldr r2,.L7
  58 0002 0023     	 movs r3,#0
  59 0004 1370     	 strb r3,[r2]
  60 0006 044A     	 ldr r2,.L7+4
  61 0008 1370     	 strb r3,[r2]
  62 000a 044A     	 ldr r2,.L7+8
  63 000c 1370     	 strb r3,[r2]
  64 000e 044A     	 ldr r2,.L7+12
  65 0010 1370     	 strb r3,[r2]
  66 0012 7047     	 bx lr
  67              	.L8:
  68              	 .align 2
  69              	.L7:
  70 0014 00000000 	 .word .LANCHOR0
  71 0018 00000000 	 .word .LANCHOR1
  72 001c 00000000 	 .word .LANCHOR2
  73 0020 00000000 	 .word .LANCHOR4
  75              	 .section .text.str_insert,"ax",%progbits
  76              	 .align 1
  77              	 .global str_insert
  78              	 .thumb
  79              	 .thumb_func
  81              	str_insert:
  82              	 
  83              	 
  84 0000 2DE9F041 	 push {r4,r5,r6,r7,r8,lr}
  85 0004 0C4C     	 ldr r4,.L10
  86 0006 0646     	 mov r6,r0
  87 0008 1D46     	 mov r5,r3
  88 000a 0F46     	 mov r7,r1
  89 000c 9046     	 mov r8,r2
  90 000e 3146     	 mov r1,r6
  91 0010 1A46     	 mov r2,r3
  92 0012 2046     	 mov r0,r4
  93 0014 FFF7FEFF 	 bl strncpy
  94 0018 681C     	 adds r0,r5,#1
  95 001a 7119     	 adds r1,r6,r5
  96 001c 2044     	 add r0,r0,r4
  97 001e FFF7FEFF 	 bl strcpy
  98 0022 3046     	 mov r0,r6
  99 0024 2146     	 mov r1,r4
 100 0026 04F80580 	 strb r8,[r4,r5]
 101 002a FFF7FEFF 	 bl strcpy
 102 002e 3B78     	 ldrb r3,[r7]
 103 0030 0133     	 adds r3,r3,#1
 104 0032 3B70     	 strb r3,[r7]
 105 0034 BDE8F081 	 pop {r4,r5,r6,r7,r8,pc}
 106              	.L11:
 107              	 .align 2
 108              	.L10:
 109 0038 00000000 	 .word .LANCHOR5
 111              	 .section .text.TFT_setMenu,"ax",%progbits
 112              	 .align 1
 113              	 .global TFT_setMenu
 114              	 .thumb
 115              	 .thumb_func
 117              	TFT_setMenu:
 118              	 
 119              	 
 120 0000 08B5     	 push {r3,lr}
 121 0002 0D4B     	 ldr r3,.L15
 122 0004 0122     	 movs r2,#1
 123 0006 1A70     	 strb r2,[r3]
 124 0008 0C4B     	 ldr r3,.L15+4
 125 000a 0028     	 cmp r0,#0
 126 000c A8BF     	 it ge
 127 000e 1870     	 strbge r0,[r3]
 128 0010 93F90020 	 ldrsb r2,[r3]
 129 0014 0A4B     	 ldr r3,.L15+8
 130 0016 93F90030 	 ldrsb r3,[r3]
 131 001a 9A42     	 cmp r2,r3
 132 001c 0AD0     	 beq .L12
 133 001e 094B     	 ldr r3,.L15+12
 134 0020 53F82030 	 ldr r3,[r3,r0,lsl#2]
 135 0024 1A89     	 ldrh r2,[r3,#8]
 136 0026 084B     	 ldr r3,.L15+16
 137 0028 1A80     	 strh r2,[r3]
 138 002a FFF7FEFF 	 bl keypad_close
 139 002e 074B     	 ldr r3,.L15+20
 140 0030 0022     	 movs r2,#0
 141 0032 1A80     	 strh r2,[r3]
 142              	.L12:
 143 0034 08BD     	 pop {r3,pc}
 144              	.L16:
 145 0036 00BF     	 .align 2
 146              	.L15:
 147 0038 00000000 	 .word .LANCHOR6
 148 003c 00000000 	 .word .LANCHOR7
 149 0040 00000000 	 .word .LANCHOR8
 150 0044 00000000 	 .word Menu_Objects
 151 0048 00000000 	 .word .LANCHOR9
 152 004c 00000000 	 .word .LANCHOR10
 154              	 .section .text.TFT_setColor,"ax",%progbits
 155              	 .align 1
 156              	 .global TFT_setColor
 157              	 .thumb
 158              	 .thumb_func
 160              	TFT_setColor:
 161              	 
 162              	 
 163 0000 70B5     	 push {r4,r5,r6,lr}
 164 0002 049C     	 ldr r4,[sp,#16]
 165 0004 1646     	 mov r6,r2
 166 0006 1D46     	 mov r5,r3
 167 0008 B0B1     	 cbz r0,.L18
 168 000a 0029     	 cmp r1,#0
 169 000c 03DB     	 blt .L19
 170 000e 41F08060 	 orr r0,r1,#67108864
 171 0012 FFF7FEFF 	 bl EVE_cmd_dl_burst
 172              	.L19:
 173 0016 002E     	 cmp r6,#0
 174 0018 02DB     	 blt .L20
 175 001a 3046     	 mov r0,r6
 176 001c FFF7FEFF 	 bl EVE_cmd_fgcolor_burst
 177              	.L20:
 178 0020 002D     	 cmp r5,#0
 179 0022 02DB     	 blt .L21
 180 0024 2846     	 mov r0,r5
 181 0026 FFF7FEFF 	 bl EVE_cmd_bgcolor_burst
 182              	.L21:
 183 002a 002C     	 cmp r4,#0
 184 002c 1BDB     	 blt .L17
 185 002e 2046     	 mov r0,r4
 186 0030 BDE87040 	 pop {r4,r5,r6,lr}
 187 0034 FFF7FEBF 	 b EVE_cmd_gradcolor_burst
 188              	.L18:
 189 0038 0029     	 cmp r1,#0
 190 003a 03DB     	 blt .L24
 191 003c 41F08060 	 orr r0,r1,#67108864
 192 0040 FFF7FEFF 	 bl EVE_cmd_dl
 193              	.L24:
 194 0044 002E     	 cmp r6,#0
 195 0046 02DB     	 blt .L25
 196 0048 3046     	 mov r0,r6
 197 004a FFF7FEFF 	 bl EVE_cmd_fgcolor
 198              	.L25:
 199 004e 002D     	 cmp r5,#0
 200 0050 02DB     	 blt .L26
 201 0052 2846     	 mov r0,r5
 202 0054 FFF7FEFF 	 bl EVE_cmd_bgcolor
 203              	.L26:
 204 0058 002C     	 cmp r4,#0
 205 005a 04DB     	 blt .L17
 206 005c 2046     	 mov r0,r4
 207 005e BDE87040 	 pop {r4,r5,r6,lr}
 208 0062 FFF7FEBF 	 b EVE_cmd_gradcolor
 209              	.L17:
 210 0066 70BD     	 pop {r4,r5,r6,pc}
 212              	 .section .text.TFT_header,"ax",%progbits
 213              	 .align 1
 214              	 .global TFT_header
 215              	 .thumb
 216              	 .thumb_func
 218              	TFT_header:
 219              	 
 220              	 
 221 0000 3C4B     	 ldr r3,.L29
 222 0002 73B5     	 push {r0,r1,r4,r5,r6,lr}
 223 0004 0D46     	 mov r5,r1
 224 0006 53F82040 	 ldr r4,[r3,r0,lsl#2]
 225 000a 0646     	 mov r6,r0
 226 000c 3A48     	 ldr r0,.L29+4
 227 000e A047     	 blx r4
 228 0010 3A48     	 ldr r0,.L29+8
 229 0012 A047     	 blx r4
 230 0014 A869     	 ldr r0,[r5,#24]
 231 0016 40F08060 	 orr r0,r0,#67108864
 232 001a A047     	 blx r4
 233 001c 3848     	 ldr r0,.L29+12
 234 001e A047     	 blx r4
 235 0020 6889     	 ldrh r0,[r5,#10]
 236 0022 C0F30E00 	 ubfx r0,r0,#0,#15
 237 0026 40F08040 	 orr r0,r0,#1073741824
 238 002a A047     	 blx r4
 239 002c 6B89     	 ldrh r3,[r5,#10]
 240 002e A889     	 ldrh r0,[r5,#12]
 241 0030 C3F30E03 	 ubfx r3,r3,#0,#15
 242 0034 43F08043 	 orr r3,r3,#1073741824
 243 0038 C0F30E00 	 ubfx r0,r0,#0,#15
 244 003c 43EAC030 	 orr r0,r3,r0,lsl#15
 245 0040 A047     	 blx r4
 246 0042 EB89     	 ldrh r3,[r5,#14]
 247 0044 288A     	 ldrh r0,[r5,#16]
 248 0046 C3F30E03 	 ubfx r3,r3,#0,#15
 249 004a 43F08043 	 orr r3,r3,#1073741824
 250 004e C0F30E00 	 ubfx r0,r0,#0,#15
 251 0052 43EAC030 	 orr r0,r3,r0,lsl#15
 252 0056 A047     	 blx r4
 253 0058 E889     	 ldrh r0,[r5,#14]
 254 005a C0F30E00 	 ubfx r0,r0,#0,#15
 255 005e 40F08140 	 orr r0,r0,#1082130432
 256 0062 40F4E000 	 orr r0,r0,#7340032
 257 0066 A047     	 blx r4
 258 0068 4FF00450 	 mov r0,#553648128
 259 006c A047     	 blx r4
 260 006e E869     	 ldr r0,[r5,#28]
 261 0070 40F08060 	 orr r0,r0,#67108864
 262 0074 A047     	 blx r4
 263 0076 2348     	 ldr r0,.L29+16
 264 0078 A047     	 blx r4
 265 007a 6889     	 ldrh r0,[r5,#10]
 266 007c C0F30E00 	 ubfx r0,r0,#0,#15
 267 0080 40F08040 	 orr r0,r0,#1073741824
 268 0084 A047     	 blx r4
 269 0086 6B89     	 ldrh r3,[r5,#10]
 270 0088 A889     	 ldrh r0,[r5,#12]
 271 008a C3F30E03 	 ubfx r3,r3,#0,#15
 272 008e 43F08043 	 orr r3,r3,#1073741824
 273 0092 C0F30E00 	 ubfx r0,r0,#0,#15
 274 0096 43EAC030 	 orr r0,r3,r0,lsl#15
 275 009a A047     	 blx r4
 276 009c EB89     	 ldrh r3,[r5,#14]
 277 009e 288A     	 ldrh r0,[r5,#16]
 278 00a0 C3F30E03 	 ubfx r3,r3,#0,#15
 279 00a4 43F08043 	 orr r3,r3,#1073741824
 280 00a8 C0F30E00 	 ubfx r0,r0,#0,#15
 281 00ac 43EAC030 	 orr r0,r3,r0,lsl#15
 282 00b0 A047     	 blx r4
 283 00b2 E889     	 ldrh r0,[r5,#14]
 284 00b4 C0F30E00 	 ubfx r0,r0,#0,#15
 285 00b8 40F08140 	 orr r0,r0,#1082130432
 286 00bc 40F4E000 	 orr r0,r0,#7340032
 287 00c0 A047     	 blx r4
 288 00c2 4FF00450 	 mov r0,#553648128
 289 00c6 A047     	 blx r4
 290 00c8 286A     	 ldr r0,[r5,#32]
 291 00ca 40F08060 	 orr r0,r0,#67108864
 292 00ce A047     	 blx r4
 293 00d0 6B68     	 ldr r3,[r5,#4]
 294 00d2 0093     	 str r3,[sp]
 295 00d4 0C4B     	 ldr r3,.L29+20
 296 00d6 1420     	 movs r0,#20
 297 00d8 53F82650 	 ldr r5,[r3,r6,lsl#2]
 298 00dc 0F21     	 movs r1,#15
 299 00de 1E22     	 movs r2,#30
 300 00e0 0023     	 movs r3,#0
 301 00e2 A847     	 blx r5
 302 00e4 4FF04070 	 mov r0,#50331648
 303 00e8 2346     	 mov r3,r4
 304 00ea 02B0     	 add sp,sp,#8
 305              	 
 306 00ec BDE87040 	 pop {r4,r5,r6,lr}
 307 00f0 1847     	 bx r3
 308              	.L30:
 309 00f2 00BF     	 .align 2
 310              	.L29:
 311 00f4 00000000 	 .word .LANCHOR11
 312 00f8 01000003 	 .word 50331649
 313 00fc 1000000E 	 .word 234881040
 314 0100 0700001F 	 .word 520093703
 315 0104 0400001F 	 .word 520093700
 316 0108 00000000 	 .word .LANCHOR12
 318              	 .global __aeabi_f2d
 319              	 .global __aeabi_dadd
 320              	 .global __aeabi_d2iz
 321              	 .global __aeabi_dsub
 322              	 .section .text.TFT_label,"ax",%progbits
 323              	 .align 1
 324              	 .global TFT_label
 325              	 .thumb
 326              	 .thumb_func
 328              	TFT_label:
 329              	 
 330              	 
 331 0000 2DE9F047 	 push {r4,r5,r6,r7,r8,r9,r10,lr}
 332 0004 2DED028B 	 fstmfdd sp!,{d8}
 333 0008 4B7E     	 ldrb r3,[r1,#25]
 334 000a 4D88     	 ldrh r5,[r1,#2]
 335 000c 86B0     	 sub sp,sp,#24
 336 000e 0646     	 mov r6,r0
 337 0010 0C46     	 mov r4,r1
 338 0012 6BB9     	 cbnz r3,.L32
 339 0014 644B     	 ldr r3,.L55
 340 0016 1988     	 ldrh r1,[r3]
 341 0018 644B     	 ldr r3,.L55+4
 342 001a 6D1A     	 subs r5,r5,r1
 343 001c B3F90030 	 ldrsh r3,[r3]
 344 0020 ADB2     	 uxth r5,r5
 345 0022 9D42     	 cmp r5,r3
 346 0024 40F3BB80 	 ble .L31
 347 0028 B5F5887F 	 cmp r5,#272
 348 002c 80F0B780 	 bcs .L31
 349              	.L32:
 350 0030 5F4B     	 ldr r3,.L55+8
 351 0032 4FF04070 	 mov r0,#50331648
 352 0036 53F82630 	 ldr r3,[r3,r6,lsl#2]
 353 003a 9847     	 blx r3
 354 003c 227B     	 ldrb r2,[r4,#12]
 355 003e 002A     	 cmp r2,#0
 356 0040 00F0A180 	 beq .L36
 357 0044 012A     	 cmp r2,#1
 358 0046 1CD1     	 bne .L37
 359 0048 E388     	 ldrh r3,[r4,#6]
 360 004a D4F814E0 	 ldr lr,[r4,#20]
 361 004e B4F90000 	 ldrsh r0,[r4]
 362 0052 584F     	 ldr r7,.L55+12
 363 0054 29B2     	 sxth r1,r5
 364 0056 A568     	 ldr r5,[r4,#8]
 365 0058 2469     	 ldr r4,[r4,#16]
 366 005a 0095     	 str r5,[sp]
 367 005c 43F48053 	 orr r3,r3,#4096
 368 0060 0192     	 str r2,[sp,#4]
 369 0062 BEF1000F 	 cmp lr,#0
 370 0066 01D1     	 bne .L38
 371 0068 2288     	 ldrh r2,[r4]
 372 006a 03E0     	 b .L54
 373              	.L38:
 374 006c BEF80020 	 ldrh r2,[lr]
 375 0070 34F81220 	 ldrh r2,[r4,r2,lsl#1]
 376              	.L54:
 377 0074 0292     	 str r2,[sp,#8]
 378 0076 57F82640 	 ldr r4,[r7,r6,lsl#2]
 379 007a 1A22     	 movs r2,#26
 380 007c 9BB2     	 uxth r3,r3
 381 007e A047     	 blx r4
 382 0080 8DE0     	 b .L31
 383              	.L37:
 384 0082 022A     	 cmp r2,#2
 385 0084 40F08B80 	 bne .L31
 386 0088 6269     	 ldr r2,[r4,#20]
 387 008a 2369     	 ldr r3,[r4,#16]
 388 008c 12B1     	 cbz r2,.L51
 389 008e 1288     	 ldrh r2,[r2]
 390 0090 03EB8203 	 add r3,r3,r2,lsl#2
 391              	.L51:
 392 0094 1868     	 ldr r0,[r3]
 393 0096 05A9     	 add r1,sp,#20
 394 0098 FFF7FEFF 	 bl modff
 395 009c 454B     	 ldr r3,.L55+12
 396 009e DDED057A 	 flds s15,[sp,#20]
 397 00a2 53F82670 	 ldr r7,[r3,r6,lsl#2]
 398 00a6 E688     	 ldrh r6,[r4,#6]
 399 00a8 B4F80080 	 ldrh r8,[r4]
 400 00ac D4F808A0 	 ldr r10,[r4,#8]
 401 00b0 F5EEC07A 	 fcmpezs s15
 402 00b4 46F48056 	 orr r6,r6,#4096
 403 00b8 F1EE10FA 	 fmstat
 404 00bc 08EE100A 	 fmsr s16,r0
 405 00c0 ADB2     	 uxth r5,r5
 406 00c2 B6B2     	 uxth r6,r6
 407 00c4 17EE900A 	 fmrs r0,s15
 408 00c8 06DB     	 blt .L49
 409 00ca FFF7FEFF 	 bl __aeabi_f2d
 410 00ce 0022     	 movs r2,#0
 411 00d0 394B     	 ldr r3,.L55+16
 412 00d2 FFF7FEFF 	 bl __aeabi_dadd
 413 00d6 05E0     	 b .L52
 414              	.L49:
 415 00d8 FFF7FEFF 	 bl __aeabi_f2d
 416 00dc 0022     	 movs r2,#0
 417 00de 364B     	 ldr r3,.L55+16
 418 00e0 FFF7FEFF 	 bl __aeabi_dsub
 419              	.L52:
 420 00e4 FFF7FEFF 	 bl __aeabi_d2iz
 421 00e8 0FFA80F9 	 sxth r9,r0
 422 00ec 207E     	 ldrb r0,[r4,#24]
 423 00ee 07EE900A 	 fmsr s15,r0
 424 00f2 F8EE677A 	 fuitos s15,s15
 425 00f6 17EE900A 	 fmrs r0,s15
 426 00fa FFF7FEFF 	 bl pow10f
 427 00fe 07EE900A 	 fmsr s15,r0
 428 0102 68EE277A 	 fmuls s15,s16,s15
 429 0106 237E     	 ldrb r3,[r4,#24]
 430 0108 F0EEE77A 	 fabss s15,s15
 431 010c F5EEC07A 	 fcmpezs s15
 432 0110 07EE903A 	 fmsr s15,r3
 433 0114 F8EE677A 	 fuitos s15,s15
 434 0118 F1EE10FA 	 fmstat
 435 011c 17EE900A 	 fmrs r0,s15
 436 0120 10DB     	 blt .L50
 437 0122 FFF7FEFF 	 bl pow10f
 438 0126 07EE900A 	 fmsr s15,r0
 439 012a 28EE278A 	 fmuls s16,s16,s15
 440 012e F0EEC87A 	 fabss s15,s16
 441 0132 17EE900A 	 fmrs r0,s15
 442 0136 FFF7FEFF 	 bl __aeabi_f2d
 443 013a 0022     	 movs r2,#0
 444 013c 1E4B     	 ldr r3,.L55+16
 445 013e FFF7FEFF 	 bl __aeabi_dadd
 446 0142 0FE0     	 b .L53
 447              	.L50:
 448 0144 FFF7FEFF 	 bl pow10f
 449 0148 07EE900A 	 fmsr s15,r0
 450 014c 28EE278A 	 fmuls s16,s16,s15
 451 0150 F0EEC87A 	 fabss s15,s16
 452 0154 17EE900A 	 fmrs r0,s15
 453 0158 FFF7FEFF 	 bl __aeabi_f2d
 454 015c 0022     	 movs r2,#0
 455 015e 164B     	 ldr r3,.L55+16
 456 0160 FFF7FEFF 	 bl __aeabi_dsub
 457              	.L53:
 458 0164 FFF7FEFF 	 bl __aeabi_d2iz
 459 0168 0223     	 movs r3,#2
 460 016a 00B2     	 sxth r0,r0
 461 016c 0193     	 str r3,[sp,#4]
 462 016e 0390     	 str r0,[sp,#12]
 463 0170 CDF800A0 	 str r10,[sp]
 464 0174 CDF80890 	 str r9,[sp,#8]
 465 0178 0FFA88F0 	 sxth r0,r8
 466 017c 29B2     	 sxth r1,r5
 467 017e 1A22     	 movs r2,#26
 468 0180 3346     	 mov r3,r6
 469 0182 B847     	 blx r7
 470 0184 0BE0     	 b .L31
 471              	.L36:
 472 0186 A168     	 ldr r1,[r4,#8]
 473 0188 B4F90000 	 ldrsh r0,[r4]
 474 018c B4F90420 	 ldrsh r2,[r4,#4]
 475 0190 E388     	 ldrh r3,[r4,#6]
 476 0192 0091     	 str r1,[sp]
 477 0194 0949     	 ldr r1,.L55+20
 478 0196 51F82640 	 ldr r4,[r1,r6,lsl#2]
 479 019a 29B2     	 sxth r1,r5
 480 019c A047     	 blx r4
 481              	.L31:
 482 019e 06B0     	 add sp,sp,#24
 483              	 
 484 01a0 BDEC028B 	 fldmfdd sp!,{d8}
 485 01a4 BDE8F087 	 pop {r4,r5,r6,r7,r8,r9,r10,pc}
 486              	.L56:
 487              	 .align 2
 488              	.L55:
 489 01a8 00000000 	 .word .LANCHOR10
 490 01ac 00000000 	 .word .LANCHOR9
 491 01b0 00000000 	 .word .LANCHOR11
 492 01b4 00000000 	 .word .LANCHOR13
 493 01b8 0000E03F 	 .word 1071644672
 494 01bc 00000000 	 .word .LANCHOR12
 496              	 .section .text.TFT_control,"ax",%progbits
 497              	 .align 1
 498              	 .global TFT_control
 499              	 .thumb
 500              	 .thumb_func
 502              	TFT_control:
 503              	 
 504              	 
 505 0000 7FB5     	 push {r0,r1,r2,r3,r4,r5,r6,lr}
 506 0002 C37D     	 ldrb r3,[r0,#23]
 507 0004 4588     	 ldrh r5,[r0,#2]
 508 0006 0446     	 mov r4,r0
 509 0008 5BB9     	 cbnz r3,.L58
 510 000a 204B     	 ldr r3,.L63
 511 000c 1988     	 ldrh r1,[r3]
 512 000e 204B     	 ldr r3,.L63+4
 513 0010 6D1A     	 subs r5,r5,r1
 514 0012 B3F90030 	 ldrsh r3,[r3]
 515 0016 ADB2     	 uxth r5,r5
 516 0018 9D42     	 cmp r5,r3
 517 001a 35DD     	 ble .L57
 518 001c B5F5887F 	 cmp r5,#272
 519 0020 32D2     	 bcs .L57
 520              	.L58:
 521 0022 207B     	 ldrb r0,[r4,#12]
 522 0024 40F04070 	 orr r0,r0,#50331648
 523 0028 FFF7FEFF 	 bl EVE_cmd_dl_burst
 524 002c A37D     	 ldrb r3,[r4,#22]
 525 002e 8BB1     	 cbz r3,.L61
 526 0030 012B     	 cmp r3,#1
 527 0032 22D1     	 bne .L60
 528 0034 6189     	 ldrh r1,[r4,#10]
 529 0036 0091     	 str r1,[sp]
 530 0038 A18A     	 ldrh r1,[r4,#20]
 531 003a 0191     	 str r1,[sp,#4]
 532 003c 2169     	 ldr r1,[r4,#16]
 533 003e 0291     	 str r1,[sp,#8]
 534 0040 B4F90000 	 ldrsh r0,[r4]
 535 0044 B4F90420 	 ldrsh r2,[r4,#4]
 536 0048 B4F90830 	 ldrsh r3,[r4,#8]
 537 004c 29B2     	 sxth r1,r5
 538 004e FFF7FEFF 	 bl EVE_cmd_toggle_burst
 539 0052 12E0     	 b .L60
 540              	.L61:
 541 0054 B4F90810 	 ldrsh r1,[r4,#8]
 542 0058 0091     	 str r1,[sp]
 543 005a A68A     	 ldrh r6,[r4,#20]
 544 005c 6189     	 ldrh r1,[r4,#10]
 545 005e B4F90000 	 ldrsh r0,[r4]
 546 0062 B4F90420 	 ldrsh r2,[r4,#4]
 547 0066 B4F90630 	 ldrsh r3,[r4,#6]
 548 006a 3143     	 orrs r1,r1,r6
 549 006c 89B2     	 uxth r1,r1
 550 006e 0191     	 str r1,[sp,#4]
 551 0070 2169     	 ldr r1,[r4,#16]
 552 0072 0291     	 str r1,[sp,#8]
 553 0074 29B2     	 sxth r1,r5
 554 0076 FFF7FEFF 	 bl EVE_cmd_button_burst
 555              	.L60:
 556 007a 4FF04070 	 mov r0,#50331648
 557 007e 04B0     	 add sp,sp,#16
 558              	 
 559 0080 BDE87040 	 pop {r4,r5,r6,lr}
 560 0084 FFF7FEBF 	 b EVE_cmd_dl_burst
 561              	.L57:
 562 0088 04B0     	 add sp,sp,#16
 563              	 
 564 008a 70BD     	 pop {r4,r5,r6,pc}
 565              	.L64:
 566              	 .align 2
 567              	.L63:
 568 008c 00000000 	 .word .LANCHOR10
 569 0090 00000000 	 .word .LANCHOR9
 571              	 .section .text.TFT_textbox_static,"ax",%progbits
 572              	 .align 1
 573              	 .global TFT_textbox_static
 574              	 .thumb
 575              	 .thumb_func
 577              	TFT_textbox_static:
 578              	 
 579              	 
 580 0000 394A     	 ldr r2,.L70
 581 0002 4B88     	 ldrh r3,[r1,#2]
 582 0004 2DE9F347 	 push {r0,r1,r4,r5,r6,r7,r8,r9,r10,lr}
 583 0008 1588     	 ldrh r5,[r2]
 584 000a 5D1B     	 subs r5,r3,r5
 585 000c 374B     	 ldr r3,.L70+4
 586 000e B3F90030 	 ldrsh r3,[r3]
 587 0012 ADB2     	 uxth r5,r5
 588 0014 9D42     	 cmp r5,r3
 589 0016 8146     	 mov r9,r0
 590 0018 0C46     	 mov r4,r1
 591 001a 61DD     	 ble .L65
 592 001c B5F5887F 	 cmp r5,#272
 593 0020 5ED2     	 bcs .L65
 594 0022 A368     	 ldr r3,[r4,#8]
 595 0024 B1F90000 	 ldrsh r0,[r1]
 596 0028 0093     	 str r3,[sp]
 597 002a 314B     	 ldr r3,.L70+8
 598 002c DFF8D0A0 	 ldr r10,.L70+24
 599 0030 53F82960 	 ldr r6,[r3,r9,lsl#2]
 600 0034 05F10801 	 add r1,r5,#8
 601 0038 0023     	 movs r3,#0
 602 003a 09B2     	 sxth r1,r1
 603 003c 1A22     	 movs r2,#26
 604 003e B047     	 blx r6
 605 0040 E688     	 ldrh r6,[r4,#6]
 606 0042 2388     	 ldrh r3,[r4]
 607 0044 A788     	 ldrh r7,[r4,#4]
 608 0046 207B     	 ldrb r0,[r4,#12]
 609 0048 5AF82940 	 ldr r4,[r10,r9,lsl#2]
 610 004c 1E44     	 add r6,r6,r3
 611 004e B6B2     	 uxth r6,r6
 612 0050 3744     	 add r7,r7,r6
 613 0052 05F11F08 	 add r8,r5,#31
 614 0056 BFB2     	 uxth r7,r7
 615 0058 1FFA88F8 	 uxth r8,r8
 616 005c 20B9     	 cbnz r0,.L67
 617 005e 4FF04070 	 mov r0,#50331648
 618 0062 A047     	 blx r4
 619 0064 2348     	 ldr r0,.L70+12
 620 0066 04E0     	 b .L69
 621              	.L67:
 622 0068 40F04070 	 orr r0,r0,#50331648
 623 006c A047     	 blx r4
 624 006e 6FF07B40 	 mvn r0,#-83886080
 625              	.L69:
 626 0072 C6F30E06 	 ubfx r6,r6,#0,#15
 627 0076 F603     	 lsls r6,r6,#15
 628 0078 45F08045 	 orr r5,r5,#1073741824
 629 007c C7F30E07 	 ubfx r7,r7,#0,#15
 630 0080 A047     	 blx r4
 631 0082 FF03     	 lsls r7,r7,#15
 632 0084 5AF82940 	 ldr r4,[r10,r9,lsl#2]
 633 0088 1B48     	 ldr r0,.L70+16
 634 008a 45EA060A 	 orr r10,r5,r6
 635 008e 48F08049 	 orr r9,r8,#1073741824
 636 0092 A047     	 blx r4
 637 0094 49EA0709 	 orr r9,r9,r7
 638 0098 5046     	 mov r0,r10
 639 009a A047     	 blx r4
 640 009c 4846     	 mov r0,r9
 641 009e A047     	 blx r4
 642 00a0 4FF00450 	 mov r0,#553648128
 643 00a4 A047     	 blx r4
 644 00a6 4FF08060 	 mov r0,#67108864
 645 00aa A047     	 blx r4
 646 00ac 1348     	 ldr r0,.L70+20
 647 00ae A047     	 blx r4
 648 00b0 5046     	 mov r0,r10
 649 00b2 A047     	 blx r4
 650 00b4 46EA0800 	 orr r0,r6,r8
 651 00b8 40F08040 	 orr r0,r0,#1073741824
 652 00bc A047     	 blx r4
 653 00be 4846     	 mov r0,r9
 654 00c0 A047     	 blx r4
 655 00c2 47EA0500 	 orr r0,r7,r5
 656 00c6 A047     	 blx r4
 657 00c8 5046     	 mov r0,r10
 658 00ca A047     	 blx r4
 659 00cc 4FF00450 	 mov r0,#553648128
 660 00d0 A047     	 blx r4
 661 00d2 4FF04070 	 mov r0,#50331648
 662 00d6 2346     	 mov r3,r4
 663 00d8 02B0     	 add sp,sp,#8
 664              	 
 665 00da BDE8F047 	 pop {r4,r5,r6,r7,r8,r9,r10,lr}
 666 00de 1847     	 bx r3
 667              	.L65:
 668 00e0 02B0     	 add sp,sp,#8
 669              	 
 670 00e2 BDE8F087 	 pop {r4,r5,r6,r7,r8,r9,r10,pc}
 671              	.L71:
 672 00e6 00BF     	 .align 2
 673              	.L70:
 674 00e8 00000000 	 .word .LANCHOR10
 675 00ec 00000000 	 .word .LANCHOR9
 676 00f0 00000000 	 .word .LANCHOR12
 677 00f4 CCCCCC04 	 .word 80530636
 678 00f8 0900001F 	 .word 520093705
 679 00fc 0400001F 	 .word 520093700
 680 0100 00000000 	 .word .LANCHOR11
 682              	 .section .text.TFT_textbox_display,"ax",%progbits
 683              	 .align 1
 684              	 .global TFT_textbox_display
 685              	 .thumb
 686              	 .thumb_func
 688              	TFT_textbox_display:
 689              	 
 690              	 
 691 0000 2DE9F041 	 push {r4,r5,r6,r7,r8,lr}
 692 0004 874B     	 ldr r3,.L102
 693 0006 4588     	 ldrh r5,[r0,#2]
 694 0008 1988     	 ldrh r1,[r3]
 695 000a 874B     	 ldr r3,.L102+4
 696 000c 0835     	 adds r5,r5,#8
 697 000e 2DED028B 	 fstmfdd sp!,{d8}
 698 0012 6D1A     	 subs r5,r5,r1
 699 0014 B3F90030 	 ldrsh r3,[r3]
 700 0018 ADB2     	 uxth r5,r5
 701 001a 9D42     	 cmp r5,r3
 702 001c 86B0     	 sub sp,sp,#24
 703 001e 0446     	 mov r4,r0
 704 0020 40F3FB80 	 ble .L72
 705 0024 B5F5887F 	 cmp r5,#272
 706 0028 80F0F780 	 bcs .L72
 707 002c 007B     	 ldrb r0,[r0,#12]
 708 002e 40F04070 	 orr r0,r0,#50331648
 709 0032 FFF7FEFF 	 bl EVE_cmd_dl_burst
 710 0036 4FF08060 	 mov r0,#67108864
 711 003a FFF7FEFF 	 bl EVE_cmd_dl_burst
 712 003e 7B4B     	 ldr r3,.L102+8
 713 0040 1B78     	 ldrb r3,[r3]
 714 0042 002B     	 cmp r3,#0
 715 0044 37D0     	 beq .L74
 716 0046 7A4B     	 ldr r3,.L102+12
 717 0048 1A78     	 ldrb r2,[r3]
 718 004a 94F90C30 	 ldrsb r3,[r4,#12]
 719 004e 9A42     	 cmp r2,r3
 720 0050 31D1     	 bne .L74
 721 0052 784E     	 ldr r6,.L102+16
 722 0054 DFF8EC81 	 ldr r8,.L102+32
 723 0058 FFF7FEFF 	 bl SYSTIMER_GetTime
 724 005c 3368     	 ldr r3,[r6]
 725 005e 03F50623 	 add r3,r3,#548864
 726 0062 03F58E63 	 add r3,r3,#1136
 727 0066 9842     	 cmp r0,r3
 728 0068 0AD9     	 bls .L75
 729 006a FFF7FEFF 	 bl SYSTIMER_GetTime
 730 006e 98F80030 	 ldrb r3,[r8]
 731 0072 3060     	 str r0,[r6]
 732 0074 7C2B     	 cmp r3,#124
 733 0076 0CBF     	 ite eq
 734 0078 2023     	 moveq r3,#32
 735 007a 7C23     	 movne r3,#124
 736 007c 88F80030 	 strb r3,[r8]
 737              	.L75:
 738 0080 6D4B     	 ldr r3,.L102+20
 739 0082 6E4E     	 ldr r6,.L102+24
 740 0084 1F78     	 ldrb r7,[r3]
 741 0086 2169     	 ldr r1,[r4,#16]
 742 0088 3A46     	 mov r2,r7
 743 008a 3046     	 mov r0,r6
 744 008c FFF7FEFF 	 bl strncpy
 745 0090 98F80030 	 ldrb r3,[r8]
 746 0094 F355     	 strb r3,[r6,r7]
 747 0096 2169     	 ldr r1,[r4,#16]
 748 0098 781C     	 adds r0,r7,#1
 749 009a 3944     	 add r1,r1,r7
 750 009c 3044     	 add r0,r0,r6
 751 009e FFF7FEFF 	 bl strcpy
 752 00a2 E388     	 ldrh r3,[r4,#6]
 753 00a4 2088     	 ldrh r0,[r4]
 754 00a6 0096     	 str r6,[sp]
 755 00a8 1844     	 add r0,r0,r3
 756 00aa 0730     	 adds r0,r0,#7
 757 00ac 00B2     	 sxth r0,r0
 758 00ae 29B2     	 sxth r1,r5
 759 00b0 1A22     	 movs r2,#26
 760 00b2 0023     	 movs r3,#0
 761 00b4 A6E0     	 b .L101
 762              	.L74:
 763 00b6 94F82830 	 ldrb r3,[r4,#40]
 764 00ba 002B     	 cmp r3,#0
 765 00bc 00F09980 	 beq .L78
 766 00c0 012B     	 cmp r3,#1
 767 00c2 17D1     	 bne .L79
 768 00c4 2088     	 ldrh r0,[r4]
 769 00c6 E288     	 ldrh r2,[r4,#6]
 770 00c8 266B     	 ldr r6,[r4,#48]
 771 00ca 29B2     	 sxth r1,r5
 772 00cc 1044     	 add r0,r0,r2
 773 00ce 256A     	 ldr r5,[r4,#32]
 774 00d0 E46A     	 ldr r4,[r4,#44]
 775 00d2 0095     	 str r5,[sp]
 776 00d4 0730     	 adds r0,r0,#7
 777 00d6 0193     	 str r3,[sp,#4]
 778 00d8 0EB9     	 cbnz r6,.L80
 779 00da 2388     	 ldrh r3,[r4]
 780 00dc 02E0     	 b .L100
 781              	.L80:
 782 00de 3388     	 ldrh r3,[r6]
 783 00e0 34F81330 	 ldrh r3,[r4,r3,lsl#1]
 784              	.L100:
 785 00e4 0293     	 str r3,[sp,#8]
 786 00e6 00B2     	 sxth r0,r0
 787 00e8 1A22     	 movs r2,#26
 788 00ea 4FF48053 	 mov r3,#4096
 789 00ee FFF7FEFF 	 bl EVE_cmd_text_var_burst
 790 00f2 89E0     	 b .L77
 791              	.L79:
 792 00f4 022B     	 cmp r3,#2
 793 00f6 40F08780 	 bne .L77
 794 00fa 226B     	 ldr r2,[r4,#48]
 795 00fc E36A     	 ldr r3,[r4,#44]
 796 00fe 12B1     	 cbz r2,.L97
 797 0100 1288     	 ldrh r2,[r2]
 798 0102 03EB8203 	 add r3,r3,r2,lsl#2
 799              	.L97:
 800 0106 1868     	 ldr r0,[r3]
 801 0108 05A9     	 add r1,sp,#20
 802 010a FFF7FEFF 	 bl modff
 803 010e DDED057A 	 flds s15,[sp,#20]
 804 0112 2688     	 ldrh r6,[r4]
 805 0114 E388     	 ldrh r3,[r4,#6]
 806 0116 D4F82080 	 ldr r8,[r4,#32]
 807 011a 1E44     	 add r6,r6,r3
 808 011c F5EEC07A 	 fcmpezs s15
 809 0120 0736     	 adds r6,r6,#7
 810 0122 F1EE10FA 	 fmstat
 811 0126 08EE100A 	 fmsr s16,r0
 812 012a B6B2     	 uxth r6,r6
 813 012c ADB2     	 uxth r5,r5
 814 012e 17EE900A 	 fmrs r0,s15
 815 0132 06DB     	 blt .L94
 816 0134 FFF7FEFF 	 bl __aeabi_f2d
 817 0138 0022     	 movs r2,#0
 818 013a 414B     	 ldr r3,.L102+28
 819 013c FFF7FEFF 	 bl __aeabi_dadd
 820 0140 05E0     	 b .L98
 821              	.L94:
 822 0142 FFF7FEFF 	 bl __aeabi_f2d
 823 0146 0022     	 movs r2,#0
 824 0148 3D4B     	 ldr r3,.L102+28
 825 014a FFF7FEFF 	 bl __aeabi_dsub
 826              	.L98:
 827 014e FFF7FEFF 	 bl __aeabi_d2iz
 828 0152 07B2     	 sxth r7,r0
 829 0154 94F82400 	 ldrb r0,[r4,#36]
 830 0158 07EE900A 	 fmsr s15,r0
 831 015c F8EE677A 	 fuitos s15,s15
 832 0160 17EE900A 	 fmrs r0,s15
 833 0164 FFF7FEFF 	 bl pow10f
 834 0168 07EE900A 	 fmsr s15,r0
 835 016c 68EE277A 	 fmuls s15,s16,s15
 836 0170 94F82430 	 ldrb r3,[r4,#36]
 837 0174 F0EEE77A 	 fabss s15,s15
 838 0178 F5EEC07A 	 fcmpezs s15
 839 017c 07EE903A 	 fmsr s15,r3
 840 0180 F8EE677A 	 fuitos s15,s15
 841 0184 F1EE10FA 	 fmstat
 842 0188 17EE900A 	 fmrs r0,s15
 843 018c 10DB     	 blt .L95
 844 018e FFF7FEFF 	 bl pow10f
 845 0192 07EE900A 	 fmsr s15,r0
 846 0196 28EE278A 	 fmuls s16,s16,s15
 847 019a F0EEC87A 	 fabss s15,s16
 848 019e 17EE900A 	 fmrs r0,s15
 849 01a2 FFF7FEFF 	 bl __aeabi_f2d
 850 01a6 0022     	 movs r2,#0
 851 01a8 254B     	 ldr r3,.L102+28
 852 01aa FFF7FEFF 	 bl __aeabi_dadd
 853 01ae 0FE0     	 b .L99
 854              	.L95:
 855 01b0 FFF7FEFF 	 bl pow10f
 856 01b4 07EE900A 	 fmsr s15,r0
 857 01b8 28EE278A 	 fmuls s16,s16,s15
 858 01bc F0EEC87A 	 fabss s15,s16
 859 01c0 17EE900A 	 fmrs r0,s15
 860 01c4 FFF7FEFF 	 bl __aeabi_f2d
 861 01c8 0022     	 movs r2,#0
 862 01ca 1D4B     	 ldr r3,.L102+28
 863 01cc FFF7FEFF 	 bl __aeabi_dsub
 864              	.L99:
 865 01d0 FFF7FEFF 	 bl __aeabi_d2iz
 866 01d4 0223     	 movs r3,#2
 867 01d6 00B2     	 sxth r0,r0
 868 01d8 0193     	 str r3,[sp,#4]
 869 01da 0390     	 str r0,[sp,#12]
 870 01dc CDF80080 	 str r8,[sp]
 871 01e0 0297     	 str r7,[sp,#8]
 872 01e2 30B2     	 sxth r0,r6
 873 01e4 29B2     	 sxth r1,r5
 874 01e6 1A22     	 movs r2,#26
 875 01e8 4FF48053 	 mov r3,#4096
 876 01ec FFF7FEFF 	 bl EVE_cmd_text_var_burst
 877 01f0 0AE0     	 b .L77
 878              	.L78:
 879 01f2 E288     	 ldrh r2,[r4,#6]
 880 01f4 2088     	 ldrh r0,[r4]
 881 01f6 1044     	 add r0,r0,r2
 882 01f8 0730     	 adds r0,r0,#7
 883 01fa 2269     	 ldr r2,[r4,#16]
 884 01fc 0092     	 str r2,[sp]
 885 01fe 00B2     	 sxth r0,r0
 886 0200 29B2     	 sxth r1,r5
 887 0202 1A22     	 movs r2,#26
 888              	.L101:
 889 0204 FFF7FEFF 	 bl EVE_cmd_text_burst
 890              	.L77:
 891 0208 4FF04070 	 mov r0,#50331648
 892 020c 06B0     	 add sp,sp,#24
 893              	 
 894 020e BDEC028B 	 fldmfdd sp!,{d8}
 895 0212 BDE8F041 	 pop {r4,r5,r6,r7,r8,lr}
 896 0216 FFF7FEBF 	 b EVE_cmd_dl_burst
 897              	.L72:
 898 021a 06B0     	 add sp,sp,#24
 899              	 
 900 021c BDEC028B 	 fldmfdd sp!,{d8}
 901 0220 BDE8F081 	 pop {r4,r5,r6,r7,r8,pc}
 902              	.L103:
 903              	 .align 2
 904              	.L102:
 905 0224 00000000 	 .word .LANCHOR10
 906 0228 00000000 	 .word .LANCHOR9
 907 022c 00000000 	 .word .LANCHOR0
 908 0230 00000000 	 .word .LANCHOR1
 909 0234 00000000 	 .word .LANCHOR14
 910 0238 00000000 	 .word .LANCHOR16
 911 023c 00000000 	 .word .LANCHOR5
 912 0240 0000E03F 	 .word 1071644672
 913 0244 00000000 	 .word .LANCHOR15
 915              	 .section .text.TFT_textbox_setStatus,"ax",%progbits
 916              	 .align 1
 917              	 .global TFT_textbox_setStatus
 918              	 .thumb
 919              	 .thumb_func
 921              	TFT_textbox_setStatus:
 922              	 
 923              	 
 924 0000 2DE9F041 	 push {r4,r5,r6,r7,r8,lr}
 925 0004 2DED028B 	 fstmfdd sp!,{d8}
 926 0008 0129     	 cmp r1,#1
 927 000a 82B0     	 sub sp,sp,#8
 928 000c 0446     	 mov r4,r0
 929 000e 1546     	 mov r5,r2
 930 0010 40F0A980 	 bne .L105
 931 0014 90F91C30 	 ldrsb r3,[r0,#28]
 932 0018 002B     	 cmp r3,#0
 933 001a 40F0A080 	 bne .L121
 934 001e 90F82830 	 ldrb r3,[r0,#40]
 935 0022 012B     	 cmp r3,#1
 936 0024 0ED1     	 bne .L107
 937 0026 026B     	 ldr r2,[r0,#48]
 938 0028 C36A     	 ldr r3,[r0,#44]
 939 002a 1AB9     	 cbnz r2,.L108
 940 002c 0069     	 ldr r0,[r0,#16]
 941 002e 216A     	 ldr r1,[r4,#32]
 942 0030 1A88     	 ldrh r2,[r3]
 943 0032 04E0     	 b .L146
 944              	.L108:
 945 0034 1288     	 ldrh r2,[r2]
 946 0036 0069     	 ldr r0,[r0,#16]
 947 0038 216A     	 ldr r1,[r4,#32]
 948 003a 33F81220 	 ldrh r2,[r3,r2,lsl#1]
 949              	.L146:
 950 003e FFF7FEFF 	 bl sprintf
 951 0042 6FE0     	 b .L150
 952              	.L107:
 953 0044 022B     	 cmp r3,#2
 954 0046 72D1     	 bne .L110
 955 0048 026B     	 ldr r2,[r0,#48]
 956 004a C36A     	 ldr r3,[r0,#44]
 957 004c 12B1     	 cbz r2,.L147
 958 004e 1288     	 ldrh r2,[r2]
 959 0050 03EB8203 	 add r3,r3,r2,lsl#2
 960              	.L147:
 961 0054 1868     	 ldr r0,[r3]
 962 0056 01A9     	 add r1,sp,#4
 963 0058 FFF7FEFF 	 bl modff
 964 005c DDED017A 	 flds s15,[sp,#4]
 965 0060 D4F81080 	 ldr r8,[r4,#16]
 966 0064 276A     	 ldr r7,[r4,#32]
 967 0066 F5EEC07A 	 fcmpezs s15
 968 006a F1EE10FA 	 fmstat
 969 006e 08EE100A 	 fmsr s16,r0
 970 0072 17EE900A 	 fmrs r0,s15
 971 0076 06DB     	 blt .L140
 972 0078 FFF7FEFF 	 bl __aeabi_f2d
 973 007c 0022     	 movs r2,#0
 974 007e 744B     	 ldr r3,.L155
 975 0080 FFF7FEFF 	 bl __aeabi_dadd
 976 0084 05E0     	 b .L148
 977              	.L140:
 978 0086 FFF7FEFF 	 bl __aeabi_f2d
 979 008a 0022     	 movs r2,#0
 980 008c 704B     	 ldr r3,.L155
 981 008e FFF7FEFF 	 bl __aeabi_dsub
 982              	.L148:
 983 0092 FFF7FEFF 	 bl __aeabi_d2iz
 984 0096 06B2     	 sxth r6,r0
 985 0098 94F82400 	 ldrb r0,[r4,#36]
 986 009c 07EE900A 	 fmsr s15,r0
 987 00a0 F8EE677A 	 fuitos s15,s15
 988 00a4 17EE900A 	 fmrs r0,s15
 989 00a8 FFF7FEFF 	 bl pow10f
 990 00ac 07EE900A 	 fmsr s15,r0
 991 00b0 68EE277A 	 fmuls s15,s16,s15
 992 00b4 94F82430 	 ldrb r3,[r4,#36]
 993 00b8 F0EEE77A 	 fabss s15,s15
 994 00bc F5EEC07A 	 fcmpezs s15
 995 00c0 07EE903A 	 fmsr s15,r3
 996 00c4 F8EE677A 	 fuitos s15,s15
 997 00c8 F1EE10FA 	 fmstat
 998 00cc 17EE900A 	 fmrs r0,s15
 999 00d0 10DB     	 blt .L141
 1000 00d2 FFF7FEFF 	 bl pow10f
 1001 00d6 07EE900A 	 fmsr s15,r0
 1002 00da 28EE278A 	 fmuls s16,s16,s15
 1003 00de F0EEC87A 	 fabss s15,s16
 1004 00e2 17EE900A 	 fmrs r0,s15
 1005 00e6 FFF7FEFF 	 bl __aeabi_f2d
 1006 00ea 0022     	 movs r2,#0
 1007 00ec 584B     	 ldr r3,.L155
 1008 00ee FFF7FEFF 	 bl __aeabi_dadd
 1009 00f2 0FE0     	 b .L149
 1010              	.L141:
 1011 00f4 FFF7FEFF 	 bl pow10f
 1012 00f8 07EE900A 	 fmsr s15,r0
 1013 00fc 28EE278A 	 fmuls s16,s16,s15
 1014 0100 F0EEC87A 	 fabss s15,s16
 1015 0104 17EE900A 	 fmrs r0,s15
 1016 0108 FFF7FEFF 	 bl __aeabi_f2d
 1017 010c 0022     	 movs r2,#0
 1018 010e 504B     	 ldr r3,.L155
 1019 0110 FFF7FEFF 	 bl __aeabi_dsub
 1020              	.L149:
 1021 0114 FFF7FEFF 	 bl __aeabi_d2iz
 1022 0118 3946     	 mov r1,r7
 1023 011a 03B2     	 sxth r3,r0
 1024 011c 3246     	 mov r2,r6
 1025 011e 4046     	 mov r0,r8
 1026 0120 FFF7FEFF 	 bl sprintf
 1027              	.L150:
 1028 0124 2069     	 ldr r0,[r4,#16]
 1029 0126 A669     	 ldr r6,[r4,#24]
 1030 0128 FFF7FEFF 	 bl strlen
 1031 012c 3070     	 strb r0,[r6]
 1032              	.L110:
 1033 012e 6388     	 ldrh r3,[r4,#2]
 1034 0130 484A     	 ldr r2,.L155+4
 1035 0132 94F83410 	 ldrb r1,[r4,#52]
 1036 0136 207B     	 ldrb r0,[r4,#12]
 1037 0138 483B     	 subs r3,r3,#72
 1038 013a 1380     	 strh r3,[r2]
 1039 013c 0123     	 movs r3,#1
 1040 013e 2377     	 strb r3,[r4,#28]
 1041 0140 FFF7FEFF 	 bl keypad_open
 1042 0144 691C     	 adds r1,r5,#1
 1043 0146 A369     	 ldr r3,[r4,#24]
 1044 0148 03D1     	 bne .L142
 1045 014a 1A78     	 ldrb r2,[r3]
 1046 014c 424B     	 ldr r3,.L155+8
 1047 014e 1A70     	 strb r2,[r3]
 1048 0150 05E0     	 b .L121
 1049              	.L142:
 1050 0152 93F90030 	 ldrsb r3,[r3]
 1051 0156 AB42     	 cmp r3,r5
 1052 0158 01DB     	 blt .L121
 1053 015a 3F4B     	 ldr r3,.L155+8
 1054 015c 1D70     	 strb r5,[r3]
 1055              	.L121:
 1056 015e 94F91C30 	 ldrsb r3,[r4,#28]
 1057 0162 012B     	 cmp r3,#1
 1058 0164 61D0     	 beq .L154
 1059              	.L105:
 1060 0166 94F82830 	 ldrb r3,[r4,#40]
 1061 016a 012B     	 cmp r3,#1
 1062 016c 46D1     	 bne .L125
 1063 016e 236B     	 ldr r3,[r4,#48]
 1064 0170 E56A     	 ldr r5,[r4,#44]
 1065 0172 03BB     	 cbnz r3,.L126
 1066 0174 2069     	 ldr r0,[r4,#16]
 1067 0176 FFF7FEFF 	 bl atoff
 1068 017a 07EE900A 	 fmsr s15,r0
 1069 017e F5EEC07A 	 fcmpezs s15
 1070 0182 F1EE10FA 	 fmstat
 1071 0186 2069     	 ldr r0,[r4,#16]
 1072 0188 08DB     	 blt .L144
 1073 018a FFF7FEFF 	 bl atoff
 1074 018e FFF7FEFF 	 bl __aeabi_f2d
 1075 0192 0022     	 movs r2,#0
 1076 0194 2E4B     	 ldr r3,.L155
 1077 0196 FFF7FEFF 	 bl __aeabi_dadd
 1078 019a 07E0     	 b .L151
 1079              	.L144:
 1080 019c FFF7FEFF 	 bl atoff
 1081 01a0 FFF7FEFF 	 bl __aeabi_f2d
 1082 01a4 0022     	 movs r2,#0
 1083 01a6 2A4B     	 ldr r3,.L155
 1084 01a8 FFF7FEFF 	 bl __aeabi_dsub
 1085              	.L151:
 1086 01ac FFF7FEFF 	 bl __aeabi_d2iz
 1087 01b0 80B2     	 uxth r0,r0
 1088 01b2 2880     	 strh r0,[r5]
 1089 01b4 2EE0     	 b .L130
 1090              	.L126:
 1091 01b6 2069     	 ldr r0,[r4,#16]
 1092 01b8 1E88     	 ldrh r6,[r3]
 1093 01ba FFF7FEFF 	 bl atoff
 1094 01be 07EE900A 	 fmsr s15,r0
 1095 01c2 F5EEC07A 	 fcmpezs s15
 1096 01c6 F1EE10FA 	 fmstat
 1097 01ca 2069     	 ldr r0,[r4,#16]
 1098 01cc 08DB     	 blt .L145
 1099 01ce FFF7FEFF 	 bl atoff
 1100 01d2 FFF7FEFF 	 bl __aeabi_f2d
 1101 01d6 0022     	 movs r2,#0
 1102 01d8 1D4B     	 ldr r3,.L155
 1103 01da FFF7FEFF 	 bl __aeabi_dadd
 1104 01de 07E0     	 b .L152
 1105              	.L145:
 1106 01e0 FFF7FEFF 	 bl atoff
 1107 01e4 FFF7FEFF 	 bl __aeabi_f2d
 1108 01e8 0022     	 movs r2,#0
 1109 01ea 194B     	 ldr r3,.L155
 1110 01ec FFF7FEFF 	 bl __aeabi_dsub
 1111              	.L152:
 1112 01f0 FFF7FEFF 	 bl __aeabi_d2iz
 1113 01f4 80B2     	 uxth r0,r0
 1114 01f6 25F81600 	 strh r0,[r5,r6,lsl#1]
 1115 01fa 0BE0     	 b .L130
 1116              	.L125:
 1117 01fc 022B     	 cmp r3,#2
 1118 01fe 09D1     	 bne .L130
 1119 0200 236B     	 ldr r3,[r4,#48]
 1120 0202 E56A     	 ldr r5,[r4,#44]
 1121 0204 13B1     	 cbz r3,.L153
 1122 0206 1B88     	 ldrh r3,[r3]
 1123 0208 05EB8305 	 add r5,r5,r3,lsl#2
 1124              	.L153:
 1125 020c 2069     	 ldr r0,[r4,#16]
 1126 020e FFF7FEFF 	 bl atoff
 1127 0212 2860     	 str r0,[r5]
 1128              	.L130:
 1129 0214 0F4A     	 ldr r2,.L155+4
 1130 0216 0023     	 movs r3,#0
 1131 0218 1380     	 strh r3,[r2]
 1132 021a 2377     	 strb r3,[r4,#28]
 1133 021c 02B0     	 add sp,sp,#8
 1134              	 
 1135 021e BDEC028B 	 fldmfdd sp!,{d8}
 1136 0222 BDE8F041 	 pop {r4,r5,r6,r7,r8,lr}
 1137 0226 FFF7FEBF 	 b keypad_close
 1138              	.L154:
 1139 022a 6A1C     	 adds r2,r5,#1
 1140 022c A369     	 ldr r3,[r4,#24]
 1141 022e 03D1     	 bne .L143
 1142 0230 1A78     	 ldrb r2,[r3]
 1143 0232 094B     	 ldr r3,.L155+8
 1144 0234 1A70     	 strb r2,[r3]
 1145 0236 05E0     	 b .L104
 1146              	.L143:
 1147 0238 93F90030 	 ldrsb r3,[r3]
 1148 023c AB42     	 cmp r3,r5
 1149 023e 01DB     	 blt .L104
 1150 0240 054B     	 ldr r3,.L155+8
 1151 0242 1D70     	 strb r5,[r3]
 1152              	.L104:
 1153 0244 02B0     	 add sp,sp,#8
 1154              	 
 1155 0246 BDEC028B 	 fldmfdd sp!,{d8}
 1156 024a BDE8F081 	 pop {r4,r5,r6,r7,r8,pc}
 1157              	.L156:
 1158 024e 00BF     	 .align 2
 1159              	.L155:
 1160 0250 0000E03F 	 .word 1071644672
 1161 0254 00000000 	 .word .LANCHOR10
 1162 0258 00000000 	 .word .LANCHOR16
 1164              	 .section .text.TFT_textbox_touch,"ax",%progbits
 1165              	 .align 1
 1166              	 .global TFT_textbox_touch
 1167              	 .thumb
 1168              	 .thumb_func
 1170              	TFT_textbox_touch:
 1171              	 
 1172              	 
 1173 0000 F8B5     	 push {r3,r4,r5,r6,r7,lr}
 1174 0002 2D4B     	 ldr r3,.L178
 1175 0004 1B78     	 ldrb r3,[r3]
 1176 0006 0446     	 mov r4,r0
 1177 0008 002B     	 cmp r3,#0
 1178 000a 54D0     	 beq .L157
 1179 000c 2B4B     	 ldr r3,.L178+4
 1180 000e 1A78     	 ldrb r2,[r3]
 1181 0010 90F90C30 	 ldrsb r3,[r0,#12]
 1182 0014 9A42     	 cmp r2,r3
 1183 0016 4ED1     	 bne .L157
 1184 0018 294E     	 ldr r6,.L178+8
 1185 001a 3378     	 ldrb r3,[r6]
 1186 001c 002B     	 cmp r3,#0
 1187 001e 4AD0     	 beq .L157
 1188 0020 284D     	 ldr r5,.L178+12
 1189 0022 2A78     	 ldrb r2,[r5]
 1190 0024 A2F12003 	 sub r3,r2,#32
 1191 0028 602B     	 cmp r3,#96
 1192 002a 44D8     	 bhi .L157
 1193 002c 802A     	 cmp r2,#128
 1194 002e 04D1     	 bne .L159
 1195 0030 0021     	 movs r1,#0
 1196 0032 0A46     	 mov r2,r1
 1197 0034 FFF7FEFF 	 bl TFT_textbox_setStatus
 1198 0038 3AE0     	 b .L160
 1199              	.L159:
 1200 003a 7F2A     	 cmp r2,#127
 1201 003c 15D1     	 bne .L161
 1202 003e 224F     	 ldr r7,.L178+16
 1203 0040 3B78     	 ldrb r3,[r7]
 1204 0042 002B     	 cmp r3,#0
 1205 0044 34D0     	 beq .L160
 1206 0046 8269     	 ldr r2,[r0,#24]
 1207 0048 92F90020 	 ldrsb r2,[r2]
 1208 004c 9342     	 cmp r3,r2
 1209 004e 2FDC     	 bgt .L160
 1210 0050 0169     	 ldr r1,[r0,#16]
 1211 0052 581E     	 subs r0,r3,#1
 1212 0054 0844     	 add r0,r0,r1
 1213 0056 1944     	 add r1,r1,r3
 1214 0058 FFF7FEFF 	 bl strcpy
 1215 005c A269     	 ldr r2,[r4,#24]
 1216 005e 1378     	 ldrb r3,[r2]
 1217 0060 013B     	 subs r3,r3,#1
 1218 0062 1370     	 strb r3,[r2]
 1219 0064 3B78     	 ldrb r3,[r7]
 1220 0066 013B     	 subs r3,r3,#1
 1221 0068 21E0     	 b .L176
 1222              	.L161:
 1223 006a 3C2A     	 cmp r2,#60
 1224 006c 04D1     	 bne .L162
 1225 006e 164A     	 ldr r2,.L178+16
 1226 0070 1378     	 ldrb r3,[r2]
 1227 0072 EBB1     	 cbz r3,.L160
 1228 0074 013B     	 subs r3,r3,#1
 1229 0076 09E0     	 b .L177
 1230              	.L162:
 1231 0078 3E2A     	 cmp r2,#62
 1232 007a 8169     	 ldr r1,[r0,#24]
 1233 007c 08D1     	 bne .L163
 1234 007e 124A     	 ldr r2,.L178+16
 1235 0080 91F90010 	 ldrsb r1,[r1]
 1236 0084 1378     	 ldrb r3,[r2]
 1237 0086 8B42     	 cmp r3,r1
 1238 0088 12DA     	 bge .L160
 1239 008a 0133     	 adds r3,r3,#1
 1240              	.L177:
 1241 008c 1370     	 strb r3,[r2]
 1242 008e 0FE0     	 b .L160
 1243              	.L163:
 1244 0090 94F91430 	 ldrsb r3,[r4,#20]
 1245 0094 91F90000 	 ldrsb r0,[r1]
 1246 0098 013B     	 subs r3,r3,#1
 1247 009a 9842     	 cmp r0,r3
 1248 009c 08DA     	 bge .L160
 1249 009e 0A4F     	 ldr r7,.L178+16
 1250 00a0 2069     	 ldr r0,[r4,#16]
 1251 00a2 97F90030 	 ldrsb r3,[r7]
 1252 00a6 FFF7FEFF 	 bl str_insert
 1253 00aa 3B78     	 ldrb r3,[r7]
 1254 00ac 0133     	 adds r3,r3,#1
 1255              	.L176:
 1256 00ae 3B70     	 strb r3,[r7]
 1257              	.L160:
 1258 00b0 0023     	 movs r3,#0
 1259 00b2 3370     	 strb r3,[r6]
 1260 00b4 2B70     	 strb r3,[r5]
 1261              	.L157:
 1262 00b6 F8BD     	 pop {r3,r4,r5,r6,r7,pc}
 1263              	.L179:
 1264              	 .align 2
 1265              	.L178:
 1266 00b8 00000000 	 .word .LANCHOR0
 1267 00bc 00000000 	 .word .LANCHOR1
 1268 00c0 00000000 	 .word .LANCHOR4
 1269 00c4 00000000 	 .word .LANCHOR17
 1270 00c8 00000000 	 .word .LANCHOR16
 1272              	 .section .text.TFT_graph_static,"ax",%progbits
 1273              	 .align 1
 1274              	 .global TFT_graph_static
 1275              	 .thumb
 1276              	 .thumb_func
 1278              	TFT_graph_static:
 1279              	 
 1280              	 
 1281 0000 B34A     	 ldr r2,.L199
 1282 0002 4B88     	 ldrh r3,[r1,#2]
 1283 0004 D1ED0A7A 	 flds s15,[r1,#40]
 1284 0008 2DE9F04F 	 push {r4,r5,r6,r7,r8,r9,r10,fp,lr}
 1285 000c 1588     	 ldrh r5,[r2]
 1286 000e DFF8DCA2 	 ldr r10,.L199+28
 1287 0012 DFF8DC82 	 ldr r8,.L199+32
 1288 0016 5AF82070 	 ldr r7,[r10,r0,lsl#2]
 1289 001a 5D1B     	 subs r5,r3,r5
 1290 001c 8B88     	 ldrh r3,[r1,#4]
 1291 001e 2DED048B 	 fstmfdd sp!,{d8,d9}
 1292 0022 09EE103A 	 fmsr s18,r3
 1293 0026 CB88     	 ldrh r3,[r1,#6]
 1294 0028 B8EE499A 	 fuitos s18,s18
 1295 002c 08EE903A 	 fmsr s17,r3
 1296 0030 0C46     	 mov r4,r1
 1297 0032 89EE279A 	 fdivs s18,s18,s15
 1298 0036 8DB0     	 sub sp,sp,#52
 1299 0038 0646     	 mov r6,r0
 1300 003a A648     	 ldr r0,.L199+4
 1301 003c ADB2     	 uxth r5,r5
 1302 003e 4FF0010B 	 mov fp,#1
 1303 0042 D1ED097A 	 flds s15,[r1,#36]
 1304 0046 F8EE688A 	 fuitos s17,s17
 1305 004a C8EEA78A 	 fdivs s17,s17,s15
 1306 004e B847     	 blx r7
 1307 0050 2189     	 ldrh r1,[r4,#8]
 1308 0052 6388     	 ldrh r3,[r4,#2]
 1309 0054 2088     	 ldrh r0,[r4]
 1310 0056 58F82690 	 ldr r9,[r8,r6,lsl#2]
 1311 005a 0844     	 add r0,r0,r1
 1312 005c 1944     	 add r1,r1,r3
 1313 005e 0630     	 adds r0,r0,#6
 1314 0060 2369     	 ldr r3,[r4,#16]
 1315 0062 0093     	 str r3,[sp]
 1316 0064 1439     	 subs r1,r1,#20
 1317 0066 00B2     	 sxth r0,r0
 1318 0068 09B2     	 sxth r1,r1
 1319 006a 1A22     	 movs r2,#26
 1320 006c 0023     	 movs r3,#0
 1321 006e C847     	 blx r9
 1322 0070 2189     	 ldrh r1,[r4,#8]
 1323 0072 2288     	 ldrh r2,[r4]
 1324 0074 6388     	 ldrh r3,[r4,#2]
 1325 0076 A088     	 ldrh r0,[r4,#4]
 1326 0078 0A44     	 add r2,r2,r1
 1327 007a 0B44     	 add r3,r3,r1
 1328 007c E188     	 ldrh r1,[r4,#6]
 1329 007e 0232     	 adds r2,r2,#2
 1330 0080 163B     	 subs r3,r3,#22
 1331 0082 1044     	 add r0,r0,r2
 1332 0084 1944     	 add r1,r1,r3
 1333 0086 E368     	 ldr r3,[r4,#12]
 1334 0088 0093     	 str r3,[sp]
 1335 008a 09B2     	 sxth r1,r1
 1336 008c 1A22     	 movs r2,#26
 1337 008e 4FF40063 	 mov r3,#2048
 1338 0092 00B2     	 sxth r0,r0
 1339 0094 C847     	 blx r9
 1340 0096 9048     	 ldr r0,.L199+8
 1341 0098 B847     	 blx r7
 1342 009a 2389     	 ldrh r3,[r4,#8]
 1343 009c 2088     	 ldrh r0,[r4]
 1344 009e C5F30E09 	 ubfx r9,r5,#0,#15
 1345 00a2 1844     	 add r0,r0,r3
 1346 00a4 49F08049 	 orr r9,r9,#1073741824
 1347 00a8 C0F30E00 	 ubfx r0,r0,#0,#15
 1348 00ac 49EAC030 	 orr r0,r9,r0,lsl#15
 1349 00b0 B847     	 blx r7
 1350 00b2 2089     	 ldrh r0,[r4,#8]
 1351 00b4 2388     	 ldrh r3,[r4]
 1352 00b6 E288     	 ldrh r2,[r4,#6]
 1353 00b8 0344     	 add r3,r3,r0
 1354 00ba C3F30E03 	 ubfx r3,r3,#0,#15
 1355 00be 05EB4000 	 add r0,r5,r0,lsl#1
 1356 00c2 1044     	 add r0,r0,r2
 1357 00c4 DB03     	 lsls r3,r3,#15
 1358 00c6 43F08043 	 orr r3,r3,#1073741824
 1359 00ca C0F30E00 	 ubfx r0,r0,#0,#15
 1360 00ce 1843     	 orrs r0,r0,r3
 1361 00d0 B847     	 blx r7
 1362 00d2 2388     	 ldrh r3,[r4]
 1363 00d4 2089     	 ldrh r0,[r4,#8]
 1364 00d6 E288     	 ldrh r2,[r4,#6]
 1365 00d8 C3F30E03 	 ubfx r3,r3,#0,#15
 1366 00dc 2844     	 add r0,r0,r5
 1367 00de 1044     	 add r0,r0,r2
 1368 00e0 DB03     	 lsls r3,r3,#15
 1369 00e2 43F08043 	 orr r3,r3,#1073741824
 1370 00e6 C0F30E00 	 ubfx r0,r0,#0,#15
 1371 00ea 1843     	 orrs r0,r0,r3
 1372 00ec B847     	 blx r7
 1373 00ee 2389     	 ldrh r3,[r4,#8]
 1374 00f0 2088     	 ldrh r0,[r4]
 1375 00f2 A288     	 ldrh r2,[r4,#4]
 1376 00f4 00EB4300 	 add r0,r0,r3,lsl#1
 1377 00f8 1044     	 add r0,r0,r2
 1378 00fa E288     	 ldrh r2,[r4,#6]
 1379 00fc 2B44     	 add r3,r3,r5
 1380 00fe 1344     	 add r3,r3,r2
 1381 0100 C3F30E03 	 ubfx r3,r3,#0,#15
 1382 0104 C0F30E00 	 ubfx r0,r0,#0,#15
 1383 0108 43EAC030 	 orr r0,r3,r0,lsl#15
 1384 010c 40F08040 	 orr r0,r0,#1073741824
 1385 0110 B847     	 blx r7
 1386 0112 7248     	 ldr r0,.L199+12
 1387 0114 B847     	 blx r7
 1388 0116 7248     	 ldr r0,.L199+16
 1389 0118 B847     	 blx r7
 1390              	.L181:
 1391 011a A06A     	 ldr r0,[r4,#40]
 1392 011c FFF7FEFF 	 bl __aeabi_f2d
 1393 0120 FFF7FEFF 	 bl floor
 1394 0124 FFF7FEFF 	 bl __aeabi_d2iz
 1395 0128 8345     	 cmp fp,r0
 1396 012a 2EDC     	 bgt .L195
 1397 012c 07EE90BA 	 fmsr s15,fp
 1398 0130 F8EEE77A 	 fsitos s15,s15
 1399 0134 2289     	 ldrh r2,[r4,#8]
 1400 0136 2188     	 ldrh r1,[r4]
 1401 0138 69EE277A 	 fmuls s15,s18,s15
 1402 013c A818     	 adds r0,r5,r2
 1403 013e FCEEE77A 	 ftouizs s15,s15
 1404 0142 0A44     	 add r2,r2,r1
 1405 0144 CDED037A 	 fsts s15,[sp,#12]
 1406 0148 BDF80C30 	 ldrh r3,[sp,#12]
 1407 014c 0393     	 str r3,[sp,#12]
 1408 014e 1A44     	 add r2,r2,r3
 1409 0150 C0F30E00 	 ubfx r0,r0,#0,#15
 1410 0154 C2F30E02 	 ubfx r2,r2,#0,#15
 1411 0158 40F08040 	 orr r0,r0,#1073741824
 1412 015c 40EAC230 	 orr r0,r0,r2,lsl#15
 1413 0160 B847     	 blx r7
 1414 0162 2189     	 ldrh r1,[r4,#8]
 1415 0164 E288     	 ldrh r2,[r4,#6]
 1416 0166 039B     	 ldr r3,[sp,#12]
 1417 0168 6818     	 adds r0,r5,r1
 1418 016a 0244     	 add r2,r2,r0
 1419 016c 2088     	 ldrh r0,[r4]
 1420 016e 0844     	 add r0,r0,r1
 1421 0170 1844     	 add r0,r0,r3
 1422 0172 C2F30E02 	 ubfx r2,r2,#0,#15
 1423 0176 42F08042 	 orr r2,r2,#1073741824
 1424 017a C0F30E00 	 ubfx r0,r0,#0,#15
 1425 017e 42EAC030 	 orr r0,r2,r0,lsl#15
 1426 0182 B847     	 blx r7
 1427 0184 0BF1010B 	 add fp,fp,#1
 1428 0188 C7E7     	 b .L181
 1429              	.L195:
 1430 018a 4FF0010B 	 mov fp,#1
 1431              	.L183:
 1432 018e 606A     	 ldr r0,[r4,#36]
 1433 0190 FFF7FEFF 	 bl __aeabi_f2d
 1434 0194 FFF7FEFF 	 bl floor
 1435 0198 FFF7FEFF 	 bl __aeabi_d2iz
 1436 019c 8345     	 cmp fp,r0
 1437 019e 32DC     	 bgt .L196
 1438 01a0 07EE90BA 	 fmsr s15,fp
 1439 01a4 F8EEE77A 	 fsitos s15,s15
 1440 01a8 2089     	 ldrh r0,[r4,#8]
 1441 01aa 2388     	 ldrh r3,[r4]
 1442 01ac E188     	 ldrh r1,[r4,#6]
 1443 01ae 68EEA77A 	 fmuls s15,s17,s15
 1444 01b2 0344     	 add r3,r3,r0
 1445 01b4 FCEEE77A 	 ftouizs s15,s15
 1446 01b8 2844     	 add r0,r0,r5
 1447 01ba CDED037A 	 fsts s15,[sp,#12]
 1448 01be BDF80C20 	 ldrh r2,[sp,#12]
 1449 01c2 0392     	 str r2,[sp,#12]
 1450 01c4 0844     	 add r0,r0,r1
 1451 01c6 C3F30E03 	 ubfx r3,r3,#0,#15
 1452 01ca 801A     	 subs r0,r0,r2
 1453 01cc DB03     	 lsls r3,r3,#15
 1454 01ce 43F08043 	 orr r3,r3,#1073741824
 1455 01d2 C0F30E00 	 ubfx r0,r0,#0,#15
 1456 01d6 1843     	 orrs r0,r0,r3
 1457 01d8 B847     	 blx r7
 1458 01da 2089     	 ldrh r0,[r4,#8]
 1459 01dc 2388     	 ldrh r3,[r4]
 1460 01de A188     	 ldrh r1,[r4,#4]
 1461 01e0 039A     	 ldr r2,[sp,#12]
 1462 01e2 0344     	 add r3,r3,r0
 1463 01e4 0B44     	 add r3,r3,r1
 1464 01e6 E188     	 ldrh r1,[r4,#6]
 1465 01e8 2844     	 add r0,r0,r5
 1466 01ea 0844     	 add r0,r0,r1
 1467 01ec C3F30E03 	 ubfx r3,r3,#0,#15
 1468 01f0 801A     	 subs r0,r0,r2
 1469 01f2 DB03     	 lsls r3,r3,#15
 1470 01f4 43F08043 	 orr r3,r3,#1073741824
 1471 01f8 C0F30E00 	 ubfx r0,r0,#0,#15
 1472 01fc 1843     	 orrs r0,r0,r3
 1473 01fe B847     	 blx r7
 1474 0200 0BF1010B 	 add fp,fp,#1
 1475 0204 C3E7     	 b .L183
 1476              	.L196:
 1477 0206 4FF00450 	 mov r0,#553648128
 1478 020a B847     	 blx r7
 1479 020c 3148     	 ldr r0,.L199+4
 1480 020e B847     	 blx r7
 1481 0210 4FF0010B 	 mov fp,#1
 1482              	.L185:
 1483 0214 D4ED0A9A 	 flds s19,[r4,#40]
 1484 0218 19EE900A 	 fmrs r0,s19
 1485 021c FFF7FEFF 	 bl __aeabi_f2d
 1486 0220 FFF7FEFF 	 bl ceil
 1487 0224 FFF7FEFF 	 bl __aeabi_d2iz
 1488 0228 8345     	 cmp fp,r0
 1489 022a 63DC     	 bgt .L197
 1490 022c D4ED087A 	 flds s15,[r4,#32]
 1491 0230 C7EEA97A 	 fdivs s15,s15,s19
 1492 0234 0BF1FF33 	 add r3,fp,#-1
 1493 0238 08EE103A 	 fmsr s16,r3
 1494 023c B8EEC88A 	 fsitos s16,s16
 1495 0240 67EE887A 	 fmuls s15,s15,s16
 1496 0244 29EE088A 	 fmuls s16,s18,s16
 1497 0248 BCEEE77A 	 ftouizs s14,s15
 1498 024c B8EE477A 	 fuitos s14,s14
 1499 0250 37EEC77A 	 fsubs s14,s15,s14
 1500 0254 B5EE407A 	 fcmpzs s14
 1501 0258 F1EE10FA 	 fmstat
 1502 025c 14D1     	 bne .L186
 1503 025e 2389     	 ldrh r3,[r4,#8]
 1504 0260 2088     	 ldrh r0,[r4]
 1505 0262 E188     	 ldrh r1,[r4,#6]
 1506 0264 BCEEC88A 	 ftouizs s16,s16
 1507 0268 1844     	 add r0,r0,r3
 1508 026a 18EE103A 	 fmrs r3,s16
 1509 026e 0330     	 adds r0,r0,#3
 1510 0270 0344     	 add r3,r3,r0
 1511 0272 1846     	 mov r0,r3
 1512 0274 FDEEE77A 	 ftosizs s15,s15
 1513 0278 1A4B     	 ldr r3,.L199+20
 1514 027a CDED007A 	 fsts s15,[sp]
 1515 027e 0A31     	 adds r1,r1,#10
 1516 0280 2944     	 add r1,r1,r5
 1517 0282 53F82670 	 ldr r7,[r3,r6,lsl#2]
 1518 0286 1AE0     	 b .L193
 1519              	.L186:
 1520 0288 17EE900A 	 fmrs r0,s15
 1521 028c FFF7FEFF 	 bl __aeabi_f2d
 1522 0290 04AF     	 add r7,sp,#16
 1523 0292 0B46     	 mov r3,r1
 1524 0294 0246     	 mov r2,r0
 1525 0296 1449     	 ldr r1,.L199+24
 1526 0298 3846     	 mov r0,r7
 1527 029a FFF7FEFF 	 bl sprintf
 1528 029e 2389     	 ldrh r3,[r4,#8]
 1529 02a0 2088     	 ldrh r0,[r4]
 1530 02a2 E188     	 ldrh r1,[r4,#6]
 1531 02a4 0097     	 str r7,[sp]
 1532 02a6 BCEEC88A 	 ftouizs s16,s16
 1533 02aa 1844     	 add r0,r0,r3
 1534 02ac 18EE103A 	 fmrs r3,s16
 1535 02b0 0330     	 adds r0,r0,#3
 1536 02b2 0344     	 add r3,r3,r0
 1537 02b4 0A31     	 adds r1,r1,#10
 1538 02b6 58F82670 	 ldr r7,[r8,r6,lsl#2]
 1539 02ba 1846     	 mov r0,r3
 1540 02bc 2944     	 add r1,r1,r5
 1541              	.L193:
 1542 02be 00B2     	 sxth r0,r0
 1543 02c0 09B2     	 sxth r1,r1
 1544 02c2 1422     	 movs r2,#20
 1545 02c4 0023     	 movs r3,#0
 1546 02c6 B847     	 blx r7
 1547 02c8 0BF1010B 	 add fp,fp,#1
 1548 02cc A2E7     	 b .L185
 1549              	.L200:
 1550 02ce 00BF     	 .align 2
 1551              	.L199:
 1552 02d0 00000000 	 .word .LANCHOR10
 1553 02d4 0B1E3B04 	 .word 70983179
 1554 02d8 0300001F 	 .word 520093699
 1555 02dc 0900000E 	 .word 234881033
 1556 02e0 E2DAC504 	 .word 80075490
 1557 02e4 00000000 	 .word .LANCHOR18
 1558 02e8 00000000 	 .word .LC0
 1559 02ec 00000000 	 .word .LANCHOR11
 1560 02f0 00000000 	 .word .LANCHOR12
 1561              	.L197:
 1562 02f4 4FF0010B 	 mov fp,#1
 1563              	.L189:
 1564 02f8 94ED098A 	 flds s16,[r4,#36]
 1565 02fc 18EE100A 	 fmrs r0,s16
 1566 0300 FFF7FEFF 	 bl __aeabi_f2d
 1567 0304 FFF7FEFF 	 bl floor
 1568 0308 FFF7FEFF 	 bl __aeabi_d2iz
 1569 030c 8345     	 cmp fp,r0
 1570 030e 4ADC     	 bgt .L198
 1571 0310 D4ED067A 	 flds s15,[r4,#24]
 1572 0314 C7EE887A 	 fdivs s15,s15,s16
 1573 0318 07EE10BA 	 fmsr s14,fp
 1574 031c B8EEC78A 	 fsitos s16,s14
 1575 0320 67EE887A 	 fmuls s15,s15,s16
 1576 0324 28EE888A 	 fmuls s16,s17,s16
 1577 0328 BCEEE77A 	 ftouizs s14,s15
 1578 032c B8EE477A 	 fuitos s14,s14
 1579 0330 37EEC77A 	 fsubs s14,s15,s14
 1580 0334 B5EE407A 	 fcmpzs s14
 1581 0338 F1EE10FA 	 fmstat
 1582 033c 12D1     	 bne .L190
 1583 033e 2389     	 ldrh r3,[r4,#8]
 1584 0340 E188     	 ldrh r1,[r4,#6]
 1585 0342 2088     	 ldrh r0,[r4]
 1586 0344 BCEEC88A 	 ftouizs s16,s16
 1587 0348 1944     	 add r1,r1,r3
 1588 034a 18EE103A 	 fmrs r3,s16
 1589 034e 2944     	 add r1,r1,r5
 1590 0350 C91A     	 subs r1,r1,r3
 1591 0352 FDEEE77A 	 ftosizs s15,s15
 1592 0356 4A4B     	 ldr r3,.L201
 1593 0358 CDED007A 	 fsts s15,[sp]
 1594 035c 0738     	 subs r0,r0,#7
 1595 035e 53F82670 	 ldr r7,[r3,r6,lsl#2]
 1596 0362 18E0     	 b .L194
 1597              	.L190:
 1598 0364 17EE900A 	 fmrs r0,s15
 1599 0368 FFF7FEFF 	 bl __aeabi_f2d
 1600 036c 04AF     	 add r7,sp,#16
 1601 036e 0B46     	 mov r3,r1
 1602 0370 0246     	 mov r2,r0
 1603 0372 4449     	 ldr r1,.L201+4
 1604 0374 3846     	 mov r0,r7
 1605 0376 FFF7FEFF 	 bl sprintf
 1606 037a 2389     	 ldrh r3,[r4,#8]
 1607 037c E188     	 ldrh r1,[r4,#6]
 1608 037e 2088     	 ldrh r0,[r4]
 1609 0380 0097     	 str r7,[sp]
 1610 0382 BCEEC88A 	 ftouizs s16,s16
 1611 0386 1944     	 add r1,r1,r3
 1612 0388 18EE103A 	 fmrs r3,s16
 1613 038c 2944     	 add r1,r1,r5
 1614 038e 58F82670 	 ldr r7,[r8,r6,lsl#2]
 1615 0392 0738     	 subs r0,r0,#7
 1616 0394 C91A     	 subs r1,r1,r3
 1617              	.L194:
 1618 0396 00B2     	 sxth r0,r0
 1619 0398 09B2     	 sxth r1,r1
 1620 039a 1422     	 movs r2,#20
 1621 039c 0023     	 movs r3,#0
 1622 039e B847     	 blx r7
 1623 03a0 0BF1010B 	 add fp,fp,#1
 1624 03a4 A8E7     	 b .L189
 1625              	.L198:
 1626 03a6 5AF82660 	 ldr r6,[r10,r6,lsl#2]
 1627 03aa 3748     	 ldr r0,.L201+8
 1628 03ac B047     	 blx r6
 1629 03ae 2389     	 ldrh r3,[r4,#8]
 1630 03b0 2088     	 ldrh r0,[r4]
 1631 03b2 1844     	 add r0,r0,r3
 1632 03b4 6F1D     	 adds r7,r5,#5
 1633 03b6 0530     	 adds r0,r0,#5
 1634 03b8 C7F30E07 	 ubfx r7,r7,#0,#15
 1635 03bc C0F30E00 	 ubfx r0,r0,#0,#15
 1636 03c0 47EAC030 	 orr r0,r7,r0,lsl#15
 1637 03c4 40F08040 	 orr r0,r0,#1073741824
 1638 03c8 B047     	 blx r6
 1639 03ca 2389     	 ldrh r3,[r4,#8]
 1640 03cc 2088     	 ldrh r0,[r4]
 1641 03ce 1844     	 add r0,r0,r3
 1642 03d0 C0F30E00 	 ubfx r0,r0,#0,#15
 1643 03d4 49EAC030 	 orr r0,r9,r0,lsl#15
 1644 03d8 B047     	 blx r6
 1645 03da 2389     	 ldrh r3,[r4,#8]
 1646 03dc 2088     	 ldrh r0,[r4]
 1647 03de 1844     	 add r0,r0,r3
 1648 03e0 0538     	 subs r0,r0,#5
 1649 03e2 C0F30E00 	 ubfx r0,r0,#0,#15
 1650 03e6 47EAC030 	 orr r0,r7,r0,lsl#15
 1651 03ea 40F08040 	 orr r0,r0,#1073741824
 1652 03ee B047     	 blx r6
 1653 03f0 4FF00450 	 mov r0,#553648128
 1654 03f4 B047     	 blx r6
 1655 03f6 2448     	 ldr r0,.L201+8
 1656 03f8 B047     	 blx r6
 1657 03fa 2389     	 ldrh r3,[r4,#8]
 1658 03fc 2088     	 ldrh r0,[r4]
 1659 03fe A288     	 ldrh r2,[r4,#4]
 1660 0400 00EB4300 	 add r0,r0,r3,lsl#1
 1661 0404 1044     	 add r0,r0,r2
 1662 0406 E288     	 ldrh r2,[r4,#6]
 1663 0408 2B44     	 add r3,r3,r5
 1664 040a 1344     	 add r3,r3,r2
 1665 040c 0538     	 subs r0,r0,#5
 1666 040e 0533     	 adds r3,r3,#5
 1667 0410 C3F30E03 	 ubfx r3,r3,#0,#15
 1668 0414 C0F30E00 	 ubfx r0,r0,#0,#15
 1669 0418 43EAC030 	 orr r0,r3,r0,lsl#15
 1670 041c 40F08040 	 orr r0,r0,#1073741824
 1671 0420 B047     	 blx r6
 1672 0422 2389     	 ldrh r3,[r4,#8]
 1673 0424 2088     	 ldrh r0,[r4]
 1674 0426 A288     	 ldrh r2,[r4,#4]
 1675 0428 00EB4300 	 add r0,r0,r3,lsl#1
 1676 042c 1044     	 add r0,r0,r2
 1677 042e E288     	 ldrh r2,[r4,#6]
 1678 0430 2B44     	 add r3,r3,r5
 1679 0432 1344     	 add r3,r3,r2
 1680 0434 C3F30E03 	 ubfx r3,r3,#0,#15
 1681 0438 C0F30E00 	 ubfx r0,r0,#0,#15
 1682 043c 43EAC030 	 orr r0,r3,r0,lsl#15
 1683 0440 40F08040 	 orr r0,r0,#1073741824
 1684 0444 B047     	 blx r6
 1685 0446 2289     	 ldrh r2,[r4,#8]
 1686 0448 2088     	 ldrh r0,[r4]
 1687 044a A388     	 ldrh r3,[r4,#4]
 1688 044c 00EB4200 	 add r0,r0,r2,lsl#1
 1689 0450 1844     	 add r0,r0,r3
 1690 0452 E388     	 ldrh r3,[r4,#6]
 1691 0454 1544     	 add r5,r5,r2
 1692 0456 1D44     	 add r5,r5,r3
 1693 0458 0538     	 subs r0,r0,#5
 1694 045a 053D     	 subs r5,r5,#5
 1695 045c C5F30E05 	 ubfx r5,r5,#0,#15
 1696 0460 C0F30E00 	 ubfx r0,r0,#0,#15
 1697 0464 45EAC030 	 orr r0,r5,r0,lsl#15
 1698 0468 40F08040 	 orr r0,r0,#1073741824
 1699 046c B047     	 blx r6
 1700 046e 4FF00450 	 mov r0,#553648128
 1701 0472 B047     	 blx r6
 1702 0474 0DB0     	 add sp,sp,#52
 1703              	 
 1704 0476 BDEC048B 	 fldmfdd sp!,{d8-d9}
 1705 047a BDE8F08F 	 pop {r4,r5,r6,r7,r8,r9,r10,fp,pc}
 1706              	.L202:
 1707 047e 00BF     	 .align 2
 1708              	.L201:
 1709 0480 00000000 	 .word .LANCHOR18
 1710 0484 00000000 	 .word .LC0
 1711 0488 0400001F 	 .word 520093700
 1713              	 .section .text.TFT_graph_pixeldata_i,"ax",%progbits
 1714              	 .align 1
 1715              	 .global TFT_graph_pixeldata_i
 1716              	 .thumb
 1717              	 .thumb_func
 1719              	TFT_graph_pixeldata_i:
 1720              	 
 1721              	 
 1722 0000 2DE9F047 	 push {r4,r5,r6,r7,r8,r9,r10,lr}
 1723 0004 9146     	 mov r9,r2
 1724 0006 5F4A     	 ldr r2,.L217
 1725 0008 0446     	 mov r4,r0
 1726 000a 1E46     	 mov r6,r3
 1727 000c 4388     	 ldrh r3,[r0,#2]
 1728 000e 0898     	 ldr r0,[sp,#32]
 1729 0010 1588     	 ldrh r5,[r2]
 1730 0012 40F08060 	 orr r0,r0,#67108864
 1731 0016 5D1B     	 subs r5,r3,r5
 1732 0018 0F46     	 mov r7,r1
 1733 001a FFF7FEFF 	 bl EVE_cmd_dl_burst
 1734 001e 5A48     	 ldr r0,.L217+4
 1735 0020 FFF7FEFF 	 bl EVE_cmd_dl_burst
 1736 0024 94F82C30 	 ldrb r3,[r4,#44]
 1737 0028 ADB2     	 uxth r5,r5
 1738 002a 002B     	 cmp r3,#0
 1739 002c 65D1     	 bne .L216
 1740 002e 9846     	 mov r8,r3
 1741              	.L204:
 1742 0030 C845     	 cmp r8,r9
 1743 0032 2ADA     	 bge .L212
 1744 0034 2289     	 ldrh r2,[r4,#8]
 1745 0036 2388     	 ldrh r3,[r4]
 1746 0038 D4ED057A 	 flds s15,[r4,#20]
 1747 003c B4F806E0 	 ldrh lr,[r4,#6]
 1748 0040 A818     	 adds r0,r5,r2
 1749 0042 1344     	 add r3,r3,r2
 1750 0044 37F81820 	 ldrh r2,[r7,r8,lsl#1]
 1751 0048 07EE102A 	 fmsr s14,r2
 1752 004c B8EE477A 	 fuitos s14,s14
 1753 0050 00EB0E01 	 add r1,r0,lr
 1754 0054 87EE277A 	 fdivs s14,s14,s15
 1755 0058 4344     	 add r3,r3,r8
 1756 005a C3F30E03 	 ubfx r3,r3,#0,#15
 1757 005e DB03     	 lsls r3,r3,#15
 1758 0060 43F08043 	 orr r3,r3,#1073741824
 1759 0064 08F10108 	 add r8,r8,#1
 1760 0068 07EE90EA 	 fmsr s15,lr
 1761 006c F8EE677A 	 fuitos s15,s15
 1762 0070 67EE277A 	 fmuls s15,s14,s15
 1763 0074 FCEEE77A 	 ftouizs s15,s15
 1764 0078 17EE900A 	 fmrs r0,s15
 1765 007c 081A     	 subs r0,r1,r0
 1766 007e C0F30E00 	 ubfx r0,r0,#0,#15
 1767 0082 1843     	 orrs r0,r0,r3
 1768 0084 FFF7FEFF 	 bl EVE_cmd_dl_burst
 1769 0088 D2E7     	 b .L204
 1770              	.L212:
 1771 008a 4FF00450 	 mov r0,#553648128
 1772 008e FFF7FEFF 	 bl EVE_cmd_dl_burst
 1773 0092 94F82C30 	 ldrb r3,[r4,#44]
 1774 0096 002B     	 cmp r3,#0
 1775 0098 71D1     	 bne .L215
 1776 009a 3C48     	 ldr r0,.L217+8
 1777 009c FFF7FEFF 	 bl EVE_cmd_dl_burst
 1778 00a0 3948     	 ldr r0,.L217+4
 1779 00a2 FFF7FEFF 	 bl EVE_cmd_dl_burst
 1780 00a6 2289     	 ldrh r2,[r4,#8]
 1781 00a8 2088     	 ldrh r0,[r4]
 1782 00aa AB18     	 adds r3,r5,r2
 1783 00ac 1044     	 add r0,r0,r2
 1784 00ae 3288     	 ldrh r2,[r6]
 1785 00b0 053B     	 subs r3,r3,#5
 1786 00b2 1044     	 add r0,r0,r2
 1787 00b4 C3F30E03 	 ubfx r3,r3,#0,#15
 1788 00b8 43F08043 	 orr r3,r3,#1073741824
 1789 00bc C0F30E00 	 ubfx r0,r0,#0,#15
 1790 00c0 43EAC030 	 orr r0,r3,r0,lsl#15
 1791 00c4 FFF7FEFF 	 bl EVE_cmd_dl_burst
 1792 00c8 2289     	 ldrh r2,[r4,#8]
 1793 00ca 2088     	 ldrh r0,[r4]
 1794 00cc 3388     	 ldrh r3,[r6]
 1795 00ce 1044     	 add r0,r0,r2
 1796 00d0 1844     	 add r0,r0,r3
 1797 00d2 E388     	 ldrh r3,[r4,#6]
 1798 00d4 1544     	 add r5,r5,r2
 1799 00d6 1D44     	 add r5,r5,r3
 1800 00d8 0535     	 adds r5,r5,#5
 1801 00da C5F30E05 	 ubfx r5,r5,#0,#15
 1802 00de C0F30E00 	 ubfx r0,r0,#0,#15
 1803 00e2 45EAC030 	 orr r0,r5,r0,lsl#15
 1804 00e6 40F08040 	 orr r0,r0,#1073741824
 1805 00ea FFF7FEFF 	 bl EVE_cmd_dl_burst
 1806 00ee 4FF00450 	 mov r0,#553648128
 1807 00f2 BDE8F047 	 pop {r4,r5,r6,r7,r8,r9,r10,lr}
 1808 00f6 FFF7FEBF 	 b EVE_cmd_dl_burst
 1809              	.L216:
 1810 00fa 09F1FF39 	 add r9,r9,#-1
 1811 00fe 1FFA89F9 	 uxth r9,r9
 1812 0102 B6F80080 	 ldrh r8,[r6]
 1813 0106 CA46     	 mov r10,r9
 1814              	.L209:
 1815 0108 0FFA8AF2 	 sxth r2,r10
 1816 010c 002A     	 cmp r2,#0
 1817 010e BCDB     	 blt .L212
 1818 0110 2389     	 ldrh r3,[r4,#8]
 1819 0112 2088     	 ldrh r0,[r4]
 1820 0114 B4F806E0 	 ldrh lr,[r4,#6]
 1821 0118 D4ED057A 	 flds s15,[r4,#20]
 1822 011c 18F4004F 	 tst r8,#32768
 1823 0120 18BF     	 it ne
 1824 0122 C846     	 movne r8,r9
 1825 0124 1844     	 add r0,r0,r3
 1826 0126 2B44     	 add r3,r3,r5
 1827 0128 03EB0E01 	 add r1,r3,lr
 1828 012c 0FFA88F3 	 sxth r3,r8
 1829 0130 0244     	 add r2,r2,r0
 1830 0132 37F81330 	 ldrh r3,[r7,r3,lsl#1]
 1831 0136 07EE103A 	 fmsr s14,r3
 1832 013a B8EE477A 	 fuitos s14,s14
 1833 013e C2F30E02 	 ubfx r2,r2,#0,#15
 1834 0142 87EE277A 	 fdivs s14,s14,s15
 1835 0146 D203     	 lsls r2,r2,#15
 1836 0148 42F08042 	 orr r2,r2,#1073741824
 1837 014c 08F1FF38 	 add r8,r8,#-1
 1838 0150 0AF1FF3A 	 add r10,r10,#-1
 1839 0154 1FFA88F8 	 uxth r8,r8
 1840 0158 1FFA8AFA 	 uxth r10,r10
 1841 015c 07EE90EA 	 fmsr s15,lr
 1842 0160 F8EE677A 	 fuitos s15,s15
 1843 0164 67EE277A 	 fmuls s15,s14,s15
 1844 0168 FCEEE77A 	 ftouizs s15,s15
 1845 016c 17EE903A 	 fmrs r3,s15
 1846 0170 CB1A     	 subs r3,r1,r3
 1847 0172 C3F30E00 	 ubfx r0,r3,#0,#15
 1848 0176 1043     	 orrs r0,r0,r2
 1849 0178 FFF7FEFF 	 bl EVE_cmd_dl_burst
 1850 017c C4E7     	 b .L209
 1851              	.L215:
 1852 017e BDE8F087 	 pop {r4,r5,r6,r7,r8,r9,r10,pc}
 1853              	.L218:
 1854 0182 00BF     	 .align 2
 1855              	.L217:
 1856 0184 00000000 	 .word .LANCHOR10
 1857 0188 0400001F 	 .word 520093700
 1858 018c 0000FF04 	 .word 83820544
 1860              	 .section .text.TFT_graph_pixeldata_f,"ax",%progbits
 1861              	 .align 1
 1862              	 .global TFT_graph_pixeldata_f
 1863              	 .thumb
 1864              	 .thumb_func
 1866              	TFT_graph_pixeldata_f:
 1867              	 
 1868              	 
 1869 0000 2DE9F047 	 push {r4,r5,r6,r7,r8,r9,r10,lr}
 1870 0004 1646     	 mov r6,r2
 1871 0006 5B4A     	 ldr r2,.L230
 1872 0008 0446     	 mov r4,r0
 1873 000a 1F46     	 mov r7,r3
 1874 000c 4388     	 ldrh r3,[r0,#2]
 1875 000e 0898     	 ldr r0,[sp,#32]
 1876 0010 1588     	 ldrh r5,[r2]
 1877 0012 40F08060 	 orr r0,r0,#67108864
 1878 0016 5D1B     	 subs r5,r3,r5
 1879 0018 8846     	 mov r8,r1
 1880 001a FFF7FEFF 	 bl EVE_cmd_dl_burst
 1881 001e 5648     	 ldr r0,.L230+4
 1882 0020 FFF7FEFF 	 bl EVE_cmd_dl_burst
 1883 0024 94F82C30 	 ldrb r3,[r4,#44]
 1884 0028 ADB2     	 uxth r5,r5
 1885 002a 002B     	 cmp r3,#0
 1886 002c 61D1     	 bne .L220
 1887 002e 9946     	 mov r9,r3
 1888              	.L221:
 1889 0030 B145     	 cmp r9,r6
 1890 0032 26DA     	 bge .L228
 1891 0034 D4ED057A 	 flds s15,[r4,#20]
 1892 0038 B8EC017A 	 fldmias r8!,{s14}
 1893 003c B4F806E0 	 ldrh lr,[r4,#6]
 1894 0040 2289     	 ldrh r2,[r4,#8]
 1895 0042 2388     	 ldrh r3,[r4]
 1896 0044 87EE277A 	 fdivs s14,s14,s15
 1897 0048 A818     	 adds r0,r5,r2
 1898 004a 1344     	 add r3,r3,r2
 1899 004c 00EB0E01 	 add r1,r0,lr
 1900 0050 4B44     	 add r3,r3,r9
 1901 0052 C3F30E03 	 ubfx r3,r3,#0,#15
 1902 0056 DB03     	 lsls r3,r3,#15
 1903 0058 43F08043 	 orr r3,r3,#1073741824
 1904 005c 09F10109 	 add r9,r9,#1
 1905 0060 07EE90EA 	 fmsr s15,lr
 1906 0064 F8EE677A 	 fuitos s15,s15
 1907 0068 67EE277A 	 fmuls s15,s14,s15
 1908 006c FCEEE77A 	 ftouizs s15,s15
 1909 0070 17EE900A 	 fmrs r0,s15
 1910 0074 081A     	 subs r0,r1,r0
 1911 0076 C0F30E00 	 ubfx r0,r0,#0,#15
 1912 007a 1843     	 orrs r0,r0,r3
 1913 007c FFF7FEFF 	 bl EVE_cmd_dl_burst
 1914 0080 D6E7     	 b .L221
 1915              	.L228:
 1916 0082 4FF00450 	 mov r0,#553648128
 1917 0086 FFF7FEFF 	 bl EVE_cmd_dl_burst
 1918 008a 94F82C30 	 ldrb r3,[r4,#44]
 1919 008e 002B     	 cmp r3,#0
 1920 0090 6DD1     	 bne .L229
 1921 0092 3A48     	 ldr r0,.L230+8
 1922 0094 FFF7FEFF 	 bl EVE_cmd_dl_burst
 1923 0098 3748     	 ldr r0,.L230+4
 1924 009a FFF7FEFF 	 bl EVE_cmd_dl_burst
 1925 009e 2289     	 ldrh r2,[r4,#8]
 1926 00a0 2088     	 ldrh r0,[r4]
 1927 00a2 AB18     	 adds r3,r5,r2
 1928 00a4 1044     	 add r0,r0,r2
 1929 00a6 3A88     	 ldrh r2,[r7]
 1930 00a8 053B     	 subs r3,r3,#5
 1931 00aa 1044     	 add r0,r0,r2
 1932 00ac C3F30E03 	 ubfx r3,r3,#0,#15
 1933 00b0 43F08043 	 orr r3,r3,#1073741824
 1934 00b4 C0F30E00 	 ubfx r0,r0,#0,#15
 1935 00b8 43EAC030 	 orr r0,r3,r0,lsl#15
 1936 00bc FFF7FEFF 	 bl EVE_cmd_dl_burst
 1937 00c0 2289     	 ldrh r2,[r4,#8]
 1938 00c2 2088     	 ldrh r0,[r4]
 1939 00c4 3B88     	 ldrh r3,[r7]
 1940 00c6 1044     	 add r0,r0,r2
 1941 00c8 1844     	 add r0,r0,r3
 1942 00ca E388     	 ldrh r3,[r4,#6]
 1943 00cc 1544     	 add r5,r5,r2
 1944 00ce 1D44     	 add r5,r5,r3
 1945 00d0 0535     	 adds r5,r5,#5
 1946 00d2 C5F30E05 	 ubfx r5,r5,#0,#15
 1947 00d6 C0F30E00 	 ubfx r0,r0,#0,#15
 1948 00da 45EAC030 	 orr r0,r5,r0,lsl#15
 1949 00de 40F08040 	 orr r0,r0,#1073741824
 1950 00e2 FFF7FEFF 	 bl EVE_cmd_dl_burst
 1951 00e6 4FF00450 	 mov r0,#553648128
 1952 00ea BDE8F047 	 pop {r4,r5,r6,r7,r8,r9,r10,lr}
 1953 00ee FFF7FEBF 	 b EVE_cmd_dl_burst
 1954              	.L220:
 1955 00f2 013E     	 subs r6,r6,#1
 1956 00f4 B6B2     	 uxth r6,r6
 1957 00f6 B7F80090 	 ldrh r9,[r7]
 1958 00fa B246     	 mov r10,r6
 1959              	.L225:
 1960 00fc 0FFA8AF2 	 sxth r2,r10
 1961 0100 002A     	 cmp r2,#0
 1962 0102 BEDB     	 blt .L228
 1963 0104 2389     	 ldrh r3,[r4,#8]
 1964 0106 2188     	 ldrh r1,[r4]
 1965 0108 B4F806E0 	 ldrh lr,[r4,#6]
 1966 010c D4ED057A 	 flds s15,[r4,#20]
 1967 0110 19F4004F 	 tst r9,#32768
 1968 0114 18BF     	 it ne
 1969 0116 B146     	 movne r9,r6
 1970 0118 1944     	 add r1,r1,r3
 1971 011a 2B44     	 add r3,r3,r5
 1972 011c 1144     	 add r1,r1,r2
 1973 011e 03EB0E02 	 add r2,r3,lr
 1974 0122 0FFA89F3 	 sxth r3,r9
 1975 0126 08EB8303 	 add r3,r8,r3,lsl#2
 1976 012a 93ED007A 	 flds s14,[r3]
 1977 012e 87EE277A 	 fdivs s14,s14,s15
 1978 0132 C1F30E01 	 ubfx r1,r1,#0,#15
 1979 0136 C903     	 lsls r1,r1,#15
 1980 0138 41F08041 	 orr r1,r1,#1073741824
 1981 013c 09F1FF39 	 add r9,r9,#-1
 1982 0140 0AF1FF3A 	 add r10,r10,#-1
 1983 0144 1FFA89F9 	 uxth r9,r9
 1984 0148 1FFA8AFA 	 uxth r10,r10
 1985 014c 07EE90EA 	 fmsr s15,lr
 1986 0150 F8EE677A 	 fuitos s15,s15
 1987 0154 67EE277A 	 fmuls s15,s14,s15
 1988 0158 FCEEE77A 	 ftouizs s15,s15
 1989 015c 17EE903A 	 fmrs r3,s15
 1990 0160 D31A     	 subs r3,r2,r3
 1991 0162 C3F30E00 	 ubfx r0,r3,#0,#15
 1992 0166 0843     	 orrs r0,r0,r1
 1993 0168 FFF7FEFF 	 bl EVE_cmd_dl_burst
 1994 016c C6E7     	 b .L225
 1995              	.L229:
 1996 016e BDE8F087 	 pop {r4,r5,r6,r7,r8,r9,r10,pc}
 1997              	.L231:
 1998 0172 00BF     	 .align 2
 1999              	.L230:
 2000 0174 00000000 	 .word .LANCHOR10
 2001 0178 0400001F 	 .word 520093700
 2002 017c 0000FF04 	 .word 83820544
 2004              	 .section .text.TFT_graph_stepdata,"ax",%progbits
 2005              	 .align 1
 2006              	 .global TFT_graph_stepdata
 2007              	 .thumb
 2008              	 .thumb_func
 2010              	TFT_graph_stepdata:
 2011              	 
 2012              	 
 2013 0000 2DE9F347 	 push {r0,r1,r4,r5,r6,r7,r8,r9,r10,lr}
 2014 0004 0F46     	 mov r7,r1
 2015 0006 3149     	 ldr r1,.L236
 2016 0008 D0ED076A 	 flds s13,[r0,#28]
 2017 000c 0D88     	 ldrh r5,[r1]
 2018 000e 1646     	 mov r6,r2
 2019 0010 4288     	 ldrh r2,[r0,#2]
 2020 0012 551B     	 subs r5,r2,r5
 2021 0014 8288     	 ldrh r2,[r0,#4]
 2022 0016 07EE902A 	 fmsr s15,r2
 2023 001a B8EEE77A 	 fsitos s14,s15
 2024 001e D0ED087A 	 flds s15,[r0,#32]
 2025 0022 77EEE67A 	 fsubs s15,s15,s13
 2026 0026 8046     	 mov r8,r0
 2027 0028 C7EE277A 	 fdivs s15,s14,s15
 2028 002c 0A98     	 ldr r0,[sp,#40]
 2029 002e 40F08060 	 orr r0,r0,#67108864
 2030 0032 4FF00009 	 mov r9,#0
 2031 0036 ADB2     	 uxth r5,r5
 2032 0038 CA46     	 mov r10,r9
 2033 003a 07EE103A 	 fmsr s14,r3
 2034 003e 67EE877A 	 fmuls s15,s15,s14
 2035 0042 FCEEE77A 	 ftouizs s15,s15
 2036 0046 CDED017A 	 fsts s15,[sp,#4]
 2037 004a BDF80440 	 ldrh r4,[sp,#4]
 2038 004e FFF7FEFF 	 bl EVE_cmd_dl_burst
 2039 0052 1F48     	 ldr r0,.L236+4
 2040 0054 FFF7FEFF 	 bl EVE_cmd_dl_burst
 2041              	.L233:
 2042 0058 B145     	 cmp r9,r6
 2043 005a 2FDA     	 bge .L235
 2044 005c B8F80820 	 ldrh r2,[r8,#8]
 2045 0060 B8F80030 	 ldrh r3,[r8]
 2046 0064 D8ED057A 	 flds s15,[r8,#20]
 2047 0068 B8F806E0 	 ldrh lr,[r8,#6]
 2048 006c A818     	 adds r0,r5,r2
 2049 006e 1344     	 add r3,r3,r2
 2050 0070 37F81920 	 ldrh r2,[r7,r9,lsl#1]
 2051 0074 07EE102A 	 fmsr s14,r2
 2052 0078 B8EE477A 	 fuitos s14,s14
 2053 007c 00EB0E01 	 add r1,r0,lr
 2054 0080 87EE277A 	 fdivs s14,s14,s15
 2055 0084 5344     	 add r3,r3,r10
 2056 0086 C3F30E03 	 ubfx r3,r3,#0,#15
 2057 008a DB03     	 lsls r3,r3,#15
 2058 008c 43F08043 	 orr r3,r3,#1073741824
 2059 0090 A244     	 add r10,r10,r4
 2060 0092 1FFA8AFA 	 uxth r10,r10
 2061 0096 09F10109 	 add r9,r9,#1
 2062 009a 07EE90EA 	 fmsr s15,lr
 2063 009e F8EE677A 	 fuitos s15,s15
 2064 00a2 67EE277A 	 fmuls s15,s14,s15
 2065 00a6 FCEEE77A 	 ftouizs s15,s15
 2066 00aa 17EE900A 	 fmrs r0,s15
 2067 00ae 081A     	 subs r0,r1,r0
 2068 00b0 C0F30E00 	 ubfx r0,r0,#0,#15
 2069 00b4 1843     	 orrs r0,r0,r3
 2070 00b6 FFF7FEFF 	 bl EVE_cmd_dl_burst
 2071 00ba CDE7     	 b .L233
 2072              	.L235:
 2073 00bc 4FF00450 	 mov r0,#553648128
 2074 00c0 02B0     	 add sp,sp,#8
 2075              	 
 2076 00c2 BDE8F047 	 pop {r4,r5,r6,r7,r8,r9,r10,lr}
 2077 00c6 FFF7FEBF 	 b EVE_cmd_dl_burst
 2078              	.L237:
 2079 00ca 00BF     	 .align 2
 2080              	.L236:
 2081 00cc 00000000 	 .word .LANCHOR10
 2082 00d0 0400001F 	 .word 520093700
 2084              	 .section .text.TFT_graph_XYdata,"ax",%progbits
 2085              	 .align 1
 2086              	 .global TFT_graph_XYdata
 2087              	 .thumb
 2088              	 .thumb_func
 2090              	TFT_graph_XYdata:
 2091              	 
 2092              	 
 2093 0000 2DE9F04F 	 push {r4,r5,r6,r7,r8,r9,r10,fp,lr}
 2094 0004 2DED028B 	 fstmfdd sp!,{d8}
 2095 0008 85B0     	 sub sp,sp,#20
 2096 000a 1646     	 mov r6,r2
 2097 000c 824A     	 ldr r2,.L274
 2098 000e 0393     	 str r3,[sp,#12]
 2099 0010 109B     	 ldr r3,[sp,#64]
 2100 0012 0293     	 str r3,[sp,#8]
 2101 0014 0446     	 mov r4,r0
 2102 0016 4388     	 ldrh r3,[r0,#2]
 2103 0018 1088     	 ldrh r0,[r2]
 2104 001a 9DF84470 	 ldrb r7,[sp,#68]
 2105 001e 181A     	 subs r0,r3,r0
 2106 0020 83B2     	 uxth r3,r0
 2107 0022 1298     	 ldr r0,[sp,#72]
 2108 0024 0193     	 str r3,[sp,#4]
 2109 0026 40F08060 	 orr r0,r0,#67108864
 2110 002a 8946     	 mov r9,r1
 2111 002c FFF7FEFF 	 bl EVE_cmd_dl_burst
 2112 0030 17B1     	 cbz r7,.L240
 2113 0032 012F     	 cmp r7,#1
 2114 0034 08D0     	 beq .L241
 2115 0036 02E0     	 b .L239
 2116              	.L240:
 2117 0038 7848     	 ldr r0,.L274+4
 2118              	.L268:
 2119 003a FFF7FEFF 	 bl EVE_cmd_dl_burst
 2120              	.L239:
 2121 003e CB46     	 mov fp,r9
 2122 0040 B246     	 mov r10,r6
 2123 0042 4FF00008 	 mov r8,#0
 2124 0046 59E0     	 b .L242
 2125              	.L241:
 2126 0048 7548     	 ldr r0,.L274+8
 2127 004a FFF7FEFF 	 bl EVE_cmd_dl_burst
 2128 004e 7548     	 ldr r0,.L274+12
 2129 0050 F3E7     	 b .L268
 2130              	.L249:
 2131 0052 A388     	 ldrh r3,[r4,#4]
 2132 0054 D4ED086A 	 flds s13,[r4,#32]
 2133 0058 BAEC016A 	 fldmias r10!,{s12}
 2134 005c 07EE903A 	 fmsr s15,r3
 2135 0060 B8EE677A 	 fuitos s14,s15
 2136 0064 D4ED077A 	 flds s15,[r4,#28]
 2137 0068 76EEE77A 	 fsubs s15,s13,s15
 2138 006c C7EE277A 	 fdivs s15,s14,s15
 2139 0070 67EE867A 	 fmuls s15,s15,s12
 2140 0074 F5EEC07A 	 fcmpezs s15
 2141 0078 F1EE10FA 	 fmstat
 2142 007c 17EE900A 	 fmrs r0,s15
 2143 0080 40DB     	 blt .L264
 2144 0082 FFF7FEFF 	 bl __aeabi_f2d
 2145 0086 0022     	 movs r2,#0
 2146 0088 674B     	 ldr r3,.L274+16
 2147 008a FFF7FEFF 	 bl __aeabi_dadd
 2148              	.L269:
 2149 008e FFF7FEFF 	 bl __aeabi_d2iz
 2150 0092 94ED057A 	 flds s14,[r4,#20]
 2151 0096 FBEC017A 	 fldmias fp!,{s15}
 2152 009a E388     	 ldrh r3,[r4,#6]
 2153 009c C7EE877A 	 fdivs s15,s15,s14
 2154 00a0 85B2     	 uxth r5,r0
 2155 00a2 08EE103A 	 fmsr s16,r3
 2156 00a6 B8EE487A 	 fuitos s14,s16
 2157 00aa 67EE877A 	 fmuls s15,s15,s14
 2158 00ae F5EEC07A 	 fcmpezs s15
 2159 00b2 F1EE10FA 	 fmstat
 2160 00b6 17EE900A 	 fmrs r0,s15
 2161 00ba 2ADB     	 blt .L265
 2162 00bc FFF7FEFF 	 bl __aeabi_f2d
 2163 00c0 0022     	 movs r2,#0
 2164 00c2 594B     	 ldr r3,.L274+16
 2165 00c4 FFF7FEFF 	 bl __aeabi_dadd
 2166              	.L270:
 2167 00c8 FFF7FEFF 	 bl __aeabi_d2iz
 2168 00cc 2389     	 ldrh r3,[r4,#8]
 2169 00ce 2288     	 ldrh r2,[r4]
 2170 00d0 1A44     	 add r2,r2,r3
 2171 00d2 1544     	 add r5,r5,r2
 2172 00d4 019A     	 ldr r2,[sp,#4]
 2173 00d6 1344     	 add r3,r3,r2
 2174 00d8 18EE102A 	 fmrs r2,s16
 2175 00dc 80B2     	 uxth r0,r0
 2176 00de 101A     	 subs r0,r2,r0
 2177 00e0 C5F30E05 	 ubfx r5,r5,#0,#15
 2178 00e4 13FA80F0 	 uxtah r0,r3,r0
 2179 00e8 ED03     	 lsls r5,r5,#15
 2180 00ea 45F08045 	 orr r5,r5,#1073741824
 2181 00ee C0F30E00 	 ubfx r0,r0,#0,#15
 2182 00f2 2843     	 orrs r0,r0,r5
 2183 00f4 FFF7FEFF 	 bl EVE_cmd_dl_burst
 2184 00f8 08F10108 	 add r8,r8,#1
 2185              	.L242:
 2186 00fc 039B     	 ldr r3,[sp,#12]
 2187 00fe 9845     	 cmp r8,r3
 2188 0100 A7DB     	 blt .L249
 2189 0102 0DE0     	 b .L273
 2190              	.L264:
 2191 0104 FFF7FEFF 	 bl __aeabi_f2d
 2192 0108 0022     	 movs r2,#0
 2193 010a 474B     	 ldr r3,.L274+16
 2194 010c FFF7FEFF 	 bl __aeabi_dsub
 2195 0110 BDE7     	 b .L269
 2196              	.L265:
 2197 0112 FFF7FEFF 	 bl __aeabi_f2d
 2198 0116 0022     	 movs r2,#0
 2199 0118 434B     	 ldr r3,.L274+16
 2200 011a FFF7FEFF 	 bl __aeabi_dsub
 2201 011e D3E7     	 b .L270
 2202              	.L273:
 2203 0120 012F     	 cmp r7,#1
 2204 0122 6FD1     	 bne .L250
 2205 0124 029B     	 ldr r3,[sp,#8]
 2206 0126 B3F90030 	 ldrsh r3,[r3]
 2207 012a 0133     	 adds r3,r3,#1
 2208 012c 6AD0     	 beq .L250
 2209 012e 3F48     	 ldr r0,.L274+20
 2210 0130 FFF7FEFF 	 bl EVE_cmd_dl_burst
 2211 0134 3E48     	 ldr r0,.L274+24
 2212 0136 FFF7FEFF 	 bl EVE_cmd_dl_burst
 2213 013a 029B     	 ldr r3,[sp,#8]
 2214 013c D4ED076A 	 flds s13,[r4,#28]
 2215 0140 B3F90070 	 ldrsh r7,[r3]
 2216 0144 A388     	 ldrh r3,[r4,#4]
 2217 0146 07EE903A 	 fmsr s15,r3
 2218 014a B8EE677A 	 fuitos s14,s15
 2219 014e D4ED087A 	 flds s15,[r4,#32]
 2220 0152 77EEE67A 	 fsubs s15,s15,s13
 2221 0156 BF00     	 lsls r7,r7,#2
 2222 0158 C7EE277A 	 fdivs s15,s14,s15
 2223 015c 3E44     	 add r6,r6,r7
 2224 015e 96ED007A 	 flds s14,[r6]
 2225 0162 67EE877A 	 fmuls s15,s15,s14
 2226 0166 F5EEC07A 	 fcmpezs s15
 2227 016a F1EE10FA 	 fmstat
 2228 016e 17EE900A 	 fmrs r0,s15
 2229 0172 06DB     	 blt .L266
 2230 0174 FFF7FEFF 	 bl __aeabi_f2d
 2231 0178 0022     	 movs r2,#0
 2232 017a 2B4B     	 ldr r3,.L274+16
 2233 017c FFF7FEFF 	 bl __aeabi_dadd
 2234 0180 05E0     	 b .L271
 2235              	.L266:
 2236 0182 FFF7FEFF 	 bl __aeabi_f2d
 2237 0186 0022     	 movs r2,#0
 2238 0188 274B     	 ldr r3,.L274+16
 2239 018a FFF7FEFF 	 bl __aeabi_dsub
 2240              	.L271:
 2241 018e B944     	 add r9,r9,r7
 2242 0190 FFF7FEFF 	 bl __aeabi_d2iz
 2243 0194 94ED057A 	 flds s14,[r4,#20]
 2244 0198 D9ED007A 	 flds s15,[r9]
 2245 019c E688     	 ldrh r6,[r4,#6]
 2246 019e C7EE877A 	 fdivs s15,s15,s14
 2247 01a2 85B2     	 uxth r5,r0
 2248 01a4 07EE106A 	 fmsr s14,r6
 2249 01a8 B8EE477A 	 fuitos s14,s14
 2250 01ac 67EE877A 	 fmuls s15,s15,s14
 2251 01b0 F5EEC07A 	 fcmpezs s15
 2252 01b4 F1EE10FA 	 fmstat
 2253 01b8 17EE900A 	 fmrs r0,s15
 2254 01bc 06DB     	 blt .L267
 2255 01be FFF7FEFF 	 bl __aeabi_f2d
 2256 01c2 0022     	 movs r2,#0
 2257 01c4 184B     	 ldr r3,.L274+16
 2258 01c6 FFF7FEFF 	 bl __aeabi_dadd
 2259 01ca 05E0     	 b .L272
 2260              	.L267:
 2261 01cc FFF7FEFF 	 bl __aeabi_f2d
 2262 01d0 0022     	 movs r2,#0
 2263 01d2 154B     	 ldr r3,.L274+16
 2264 01d4 FFF7FEFF 	 bl __aeabi_dsub
 2265              	.L272:
 2266 01d8 FFF7FEFF 	 bl __aeabi_d2iz
 2267 01dc 2389     	 ldrh r3,[r4,#8]
 2268 01de 2288     	 ldrh r2,[r4]
 2269 01e0 1A44     	 add r2,r2,r3
 2270 01e2 1544     	 add r5,r5,r2
 2271 01e4 019A     	 ldr r2,[sp,#4]
 2272 01e6 80B2     	 uxth r0,r0
 2273 01e8 C5F30E05 	 ubfx r5,r5,#0,#15
 2274 01ec 1A44     	 add r2,r2,r3
 2275 01ee 361A     	 subs r6,r6,r0
 2276 01f0 ED03     	 lsls r5,r5,#15
 2277 01f2 12FA86F0 	 uxtah r0,r2,r6
 2278 01f6 45F08045 	 orr r5,r5,#1073741824
 2279 01fa C0F30E00 	 ubfx r0,r0,#0,#15
 2280 01fe 2843     	 orrs r0,r0,r5
 2281 0200 FFF7FEFF 	 bl EVE_cmd_dl_burst
 2282              	.L250:
 2283 0204 4FF00450 	 mov r0,#553648128
 2284 0208 05B0     	 add sp,sp,#20
 2285              	 
 2286 020a BDEC028B 	 fldmfdd sp!,{d8}
 2287 020e BDE8F04F 	 pop {r4,r5,r6,r7,r8,r9,r10,fp,lr}
 2288 0212 FFF7FEBF 	 b EVE_cmd_dl_burst
 2289              	.L275:
 2290 0216 00BF     	 .align 2
 2291              	.L274:
 2292 0218 00000000 	 .word .LANCHOR10
 2293 021c 0400001F 	 .word 520093700
 2294 0220 3000000D 	 .word 218103856
 2295 0224 0200001F 	 .word 520093698
 2296 0228 0000E03F 	 .word 1071644672
 2297 022c 0000FF04 	 .word 83820544
 2298 0230 4000000D 	 .word 218103872
 2300              	 .section .text.TFT_graph_function,"ax",%progbits
 2301              	 .align 1
 2302              	 .global TFT_graph_function
 2303              	 .thumb
 2304              	 .thumb_func
 2306              	TFT_graph_function:
 2307              	 
 2308              	 
 2309 0000 2DE9F04F 	 push {r4,r5,r6,r7,r8,r9,r10,fp,lr}
 2310 0004 8946     	 mov r9,r1
 2311 0006 5E49     	 ldr r1,.L295
 2312 0008 9246     	 mov r10,r2
 2313 000a 0F88     	 ldrh r7,[r1]
 2314 000c 4288     	 ldrh r2,[r0,#2]
 2315 000e D71B     	 subs r7,r2,r7
 2316 0010 8288     	 ldrh r2,[r0,#4]
 2317 0012 B2FBF3F3 	 udiv r3,r2,r3
 2318 0016 07EE903A 	 fmsr s15,r3
 2319 001a 2DED048B 	 fstmfdd sp!,{d8,d9}
 2320 001e B8EEE79A 	 fsitos s18,s15
 2321 0022 D0ED079A 	 flds s19,[r0,#28]
 2322 0026 D0ED087A 	 flds s15,[r0,#32]
 2323 002a 77EEE99A 	 fsubs s19,s15,s19
 2324 002e 07EE902A 	 fmsr s15,r2
 2325 0032 F8EEE77A 	 fsitos s15,s15
 2326 0036 83B0     	 sub sp,sp,#12
 2327 0038 C7EE897A 	 fdivs s15,s15,s18
 2328 003c 0446     	 mov r4,r0
 2329 003e 1198     	 ldr r0,[sp,#68]
 2330 0040 9DF84060 	 ldrb r6,[sp,#64]
 2331 0044 40F08060 	 orr r0,r0,#67108864
 2332 0048 BFB2     	 uxth r7,r7
 2333 004a C9EE899A 	 fdivs s19,s19,s18
 2334 004e FCEEE77A 	 ftouizs s15,s15
 2335 0052 CDED017A 	 fsts s15,[sp,#4]
 2336 0056 BDF80450 	 ldrh r5,[sp,#4]
 2337 005a FFF7FEFF 	 bl EVE_cmd_dl_burst
 2338 005e 16B1     	 cbz r6,.L278
 2339 0060 012E     	 cmp r6,#1
 2340 0062 06D0     	 beq .L279
 2341 0064 02E0     	 b .L277
 2342              	.L278:
 2343 0066 4748     	 ldr r0,.L295+4
 2344              	.L291:
 2345 0068 FFF7FEFF 	 bl EVE_cmd_dl_burst
 2346              	.L277:
 2347 006c 0026     	 movs r6,#0
 2348 006e B046     	 mov r8,r6
 2349 0070 47E0     	 b .L280
 2350              	.L279:
 2351 0072 4548     	 ldr r0,.L295+8
 2352 0074 FFF7FEFF 	 bl EVE_cmd_dl_burst
 2353 0078 4448     	 ldr r0,.L295+12
 2354 007a F5E7     	 b .L291
 2355              	.L285:
 2356 007c E388     	 ldrh r3,[r4,#6]
 2357 007e D4ED057A 	 flds s15,[r4,#20]
 2358 0082 08EE103A 	 fmsr s16,r3
 2359 0086 B8EEC88A 	 fsitos s16,s16
 2360 008a 69EEA88A 	 fmuls s17,s19,s17
 2361 008e 88EE278A 	 fdivs s16,s16,s15
 2362 0092 4946     	 mov r1,r9
 2363 0094 5246     	 mov r2,r10
 2364 0096 18EE900A 	 fmrs r0,s17
 2365 009a FFF7FEFF 	 bl poly_calc
 2366 009e B4F806B0 	 ldrh fp,[r4,#6]
 2367 00a2 07EE900A 	 fmsr s15,r0
 2368 00a6 28EE278A 	 fmuls s16,s16,s15
 2369 00aa 07EE90BA 	 fmsr s15,fp
 2370 00ae B5EEC08A 	 fcmpezs s16
 2371 00b2 F8EEE77A 	 fsitos s15,s15
 2372 00b6 94ED058A 	 flds s16,[r4,#20]
 2373 00ba F1EE10FA 	 fmstat
 2374 00be 87EE888A 	 fdivs s16,s15,s16
 2375 00c2 4946     	 mov r1,r9
 2376 00c4 5246     	 mov r2,r10
 2377 00c6 18EE900A 	 fmrs r0,s17
 2378 00ca 28DB     	 blt .L290
 2379 00cc FFF7FEFF 	 bl poly_calc
 2380 00d0 07EE900A 	 fmsr s15,r0
 2381 00d4 68EE277A 	 fmuls s15,s16,s15
 2382 00d8 17EE900A 	 fmrs r0,s15
 2383 00dc FFF7FEFF 	 bl __aeabi_f2d
 2384 00e0 0022     	 movs r2,#0
 2385 00e2 2B4B     	 ldr r3,.L295+16
 2386 00e4 FFF7FEFF 	 bl __aeabi_dadd
 2387              	.L292:
 2388 00e8 FFF7FEFF 	 bl __aeabi_d2iz
 2389 00ec 80B2     	 uxth r0,r0
 2390 00ee C0EB0B00 	 rsb r0,r0,fp
 2391 00f2 80B2     	 uxth r0,r0
 2392 00f4 2288     	 ldrh r2,[r4]
 2393 00f6 2189     	 ldrh r1,[r4,#8]
 2394 00f8 00BB     	 cbnz r0,.L293
 2395              	.L284:
 2396 00fa 2E44     	 add r6,r6,r5
 2397 00fc 08F10108 	 add r8,r8,#1
 2398 0100 B6B2     	 uxth r6,r6
 2399              	.L280:
 2400 0102 07EE908A 	 fmsr s15,r8
 2401 0106 F8EEE78A 	 fsitos s17,s15
 2402 010a F7EE007A 	 fconsts s15,#112
 2403 010e 79EE277A 	 fadds s15,s18,s15
 2404 0112 F4EEE78A 	 fcmpes s17,s15
 2405 0116 F1EE10FA 	 fmstat
 2406 011a AFD4     	 bmi .L285
 2407 011c 27E0     	 b .L294
 2408              	.L290:
 2409 011e FFF7FEFF 	 bl poly_calc
 2410 0122 07EE900A 	 fmsr s15,r0
 2411 0126 68EE277A 	 fmuls s15,s16,s15
 2412 012a 17EE900A 	 fmrs r0,s15
 2413 012e FFF7FEFF 	 bl __aeabi_f2d
 2414 0132 0022     	 movs r2,#0
 2415 0134 164B     	 ldr r3,.L295+16
 2416 0136 FFF7FEFF 	 bl __aeabi_dsub
 2417 013a D5E7     	 b .L292
 2418              	.L293:
 2419 013c E388     	 ldrh r3,[r4,#6]
 2420 013e 8342     	 cmp r3,r0
 2421 0140 DBD9     	 bls .L284
 2422 0142 7B18     	 adds r3,r7,r1
 2423 0144 0344     	 add r3,r3,r0
 2424 0146 1348     	 ldr r0,.L295+20
 2425 0148 B0F90000 	 ldrsh r0,[r0]
 2426 014c 9BB2     	 uxth r3,r3
 2427 014e 8342     	 cmp r3,r0
 2428 0150 D3DD     	 ble .L284
 2429 0152 B3F5887F 	 cmp r3,#272
 2430 0156 D0D2     	 bcs .L284
 2431 0158 8818     	 adds r0,r1,r2
 2432 015a 3044     	 add r0,r0,r6
 2433 015c C0F30E00 	 ubfx r0,r0,#0,#15
 2434 0160 43EAC030 	 orr r0,r3,r0,lsl#15
 2435 0164 40F08040 	 orr r0,r0,#1073741824
 2436 0168 FFF7FEFF 	 bl EVE_cmd_dl_burst
 2437 016c C5E7     	 b .L284
 2438              	.L294:
 2439 016e 4FF00450 	 mov r0,#553648128
 2440 0172 03B0     	 add sp,sp,#12
 2441              	 
 2442 0174 BDEC048B 	 fldmfdd sp!,{d8-d9}
 2443 0178 BDE8F04F 	 pop {r4,r5,r6,r7,r8,r9,r10,fp,lr}
 2444 017c FFF7FEBF 	 b EVE_cmd_dl_burst
 2445              	.L296:
 2446              	 .align 2
 2447              	.L295:
 2448 0180 00000000 	 .word .LANCHOR10
 2449 0184 0400001F 	 .word 520093700
 2450 0188 5000000D 	 .word 218103888
 2451 018c 0200001F 	 .word 520093698
 2452 0190 0000E03F 	 .word 1071644672
 2453 0194 00000000 	 .word .LANCHOR9
 2455              	 .section .text.touch_calibrate,"ax",%progbits
 2456              	 .align 1
 2457              	 .global touch_calibrate
 2458              	 .thumb
 2459              	 .thumb_func
 2461              	touch_calibrate:
 2462              	 
 2463              	 
 2464 0000 2DE9F743 	 push {r0,r1,r2,r4,r5,r6,r7,r8,r9,lr}
 2465 0004 0446     	 mov r4,r0
 2466 0006 46F2C411 	 movw r1,#25028
 2467 000a 6D48     	 ldr r0,.L300
 2468 000c FFF7FEFF 	 bl EVE_memWrite32
 2469 0010 6C48     	 ldr r0,.L300+4
 2470 0012 40F25D21 	 movw r1,#605
 2471 0016 FFF7FEFF 	 bl EVE_memWrite32
 2472 001a 6B48     	 ldr r0,.L300+8
 2473 001c 6B49     	 ldr r1,.L300+12
 2474 001e FFF7FEFF 	 bl EVE_memWrite32
 2475 0022 6B48     	 ldr r0,.L300+16
 2476 0024 6FF06E01 	 mvn r1,#110
 2477 0028 FFF7FEFF 	 bl EVE_memWrite32
 2478 002c 6948     	 ldr r0,.L300+20
 2479 002e 45F66B31 	 movw r1,#23403
 2480 0032 FFF7FEFF 	 bl EVE_memWrite32
 2481 0036 6848     	 ldr r0,.L300+24
 2482 0038 6849     	 ldr r1,.L300+28
 2483 003a FFF7FEFF 	 bl EVE_memWrite32
 2484 003e 002C     	 cmp r4,#0
 2485 0040 00F0BB80 	 beq .L297
 2486 0044 6FF0FF00 	 mvn r0,#255
 2487 0048 FFF7FEFF 	 bl EVE_cmd_dl
 2488 004c 4FF00070 	 mov r0,#33554432
 2489 0050 FFF7FEFF 	 bl EVE_cmd_dl
 2490 0054 6248     	 ldr r0,.L300+32
 2491 0056 FFF7FEFF 	 bl EVE_cmd_dl
 2492 005a 624B     	 ldr r3,.L300+36
 2493 005c 0093     	 str r3,[sp]
 2494 005e 3221     	 movs r1,#50
 2495 0060 1A22     	 movs r2,#26
 2496 0062 4FF4C063 	 mov r3,#1536
 2497 0066 F020     	 movs r0,#240
 2498 0068 FFF7FEFF 	 bl EVE_cmd_text
 2499 006c FFF7FEFF 	 bl EVE_cmd_calibrate
 2500 0070 0020     	 movs r0,#0
 2501 0072 FFF7FEFF 	 bl EVE_cmd_dl
 2502 0076 6FF0FE00 	 mvn r0,#254
 2503 007a FFF7FEFF 	 bl EVE_cmd_dl
 2504 007e FFF7FEFF 	 bl EVE_cmd_execute
 2505 0082 4F48     	 ldr r0,.L300
 2506 0084 FFF7FEFF 	 bl EVE_memRead32
 2507 0088 8146     	 mov r9,r0
 2508 008a 4E48     	 ldr r0,.L300+4
 2509 008c FFF7FEFF 	 bl EVE_memRead32
 2510 0090 8046     	 mov r8,r0
 2511 0092 4D48     	 ldr r0,.L300+8
 2512 0094 FFF7FEFF 	 bl EVE_memRead32
 2513 0098 0746     	 mov r7,r0
 2514 009a 4D48     	 ldr r0,.L300+16
 2515 009c FFF7FEFF 	 bl EVE_memRead32
 2516 00a0 0646     	 mov r6,r0
 2517 00a2 4C48     	 ldr r0,.L300+20
 2518 00a4 FFF7FEFF 	 bl EVE_memRead32
 2519 00a8 0546     	 mov r5,r0
 2520 00aa 4B48     	 ldr r0,.L300+24
 2521 00ac FFF7FEFF 	 bl EVE_memRead32
 2522 00b0 0446     	 mov r4,r0
 2523 00b2 6FF0FF00 	 mvn r0,#255
 2524 00b6 FFF7FEFF 	 bl EVE_cmd_dl
 2525 00ba 4FF00070 	 mov r0,#33554432
 2526 00be FFF7FEFF 	 bl EVE_cmd_dl
 2527 00c2 4748     	 ldr r0,.L300+32
 2528 00c4 FFF7FEFF 	 bl EVE_cmd_dl
 2529 00c8 4FF04070 	 mov r0,#50331648
 2530 00cc FFF7FEFF 	 bl EVE_cmd_dl
 2531 00d0 454B     	 ldr r3,.L300+40
 2532 00d2 0093     	 str r3,[sp]
 2533 00d4 0520     	 movs r0,#5
 2534 00d6 0F21     	 movs r1,#15
 2535 00d8 1A22     	 movs r2,#26
 2536 00da 0023     	 movs r3,#0
 2537 00dc FFF7FEFF 	 bl EVE_cmd_text
 2538 00e0 424B     	 ldr r3,.L300+44
 2539 00e2 0093     	 str r3,[sp]
 2540 00e4 0520     	 movs r0,#5
 2541 00e6 1E21     	 movs r1,#30
 2542 00e8 1A22     	 movs r2,#26
 2543 00ea 0023     	 movs r3,#0
 2544 00ec FFF7FEFF 	 bl EVE_cmd_text
 2545 00f0 3F4B     	 ldr r3,.L300+48
 2546 00f2 0093     	 str r3,[sp]
 2547 00f4 0520     	 movs r0,#5
 2548 00f6 2D21     	 movs r1,#45
 2549 00f8 1A22     	 movs r2,#26
 2550 00fa 0023     	 movs r3,#0
 2551 00fc FFF7FEFF 	 bl EVE_cmd_text
 2552 0100 3C4B     	 ldr r3,.L300+52
 2553 0102 0093     	 str r3,[sp]
 2554 0104 0520     	 movs r0,#5
 2555 0106 3C21     	 movs r1,#60
 2556 0108 1A22     	 movs r2,#26
 2557 010a 0023     	 movs r3,#0
 2558 010c FFF7FEFF 	 bl EVE_cmd_text
 2559 0110 394B     	 ldr r3,.L300+56
 2560 0112 0093     	 str r3,[sp]
 2561 0114 0520     	 movs r0,#5
 2562 0116 4B21     	 movs r1,#75
 2563 0118 1A22     	 movs r2,#26
 2564 011a 0023     	 movs r3,#0
 2565 011c FFF7FEFF 	 bl EVE_cmd_text
 2566 0120 364B     	 ldr r3,.L300+60
 2567 0122 0093     	 str r3,[sp]
 2568 0124 5A21     	 movs r1,#90
 2569 0126 1A22     	 movs r2,#26
 2570 0128 0023     	 movs r3,#0
 2571 012a 0520     	 movs r0,#5
 2572 012c FFF7FEFF 	 bl EVE_cmd_text
 2573 0130 1020     	 movs r0,#16
 2574 0132 FFF7FEFF 	 bl EVE_cmd_setbase
 2575 0136 4FF49B70 	 mov r0,#310
 2576 013a 0F21     	 movs r1,#15
 2577 013c 1A22     	 movs r2,#26
 2578 013e 40F60803 	 movw r3,#2056
 2579 0142 CDF80090 	 str r9,[sp]
 2580 0146 FFF7FEFF 	 bl EVE_cmd_number
 2581 014a 4FF49B70 	 mov r0,#310
 2582 014e 1E21     	 movs r1,#30
 2583 0150 1A22     	 movs r2,#26
 2584 0152 40F60803 	 movw r3,#2056
 2585 0156 CDF80080 	 str r8,[sp]
 2586 015a FFF7FEFF 	 bl EVE_cmd_number
 2587 015e 4FF49B70 	 mov r0,#310
 2588 0162 2D21     	 movs r1,#45
 2589 0164 1A22     	 movs r2,#26
 2590 0166 40F60803 	 movw r3,#2056
 2591 016a 0097     	 str r7,[sp]
 2592 016c FFF7FEFF 	 bl EVE_cmd_number
 2593 0170 4FF49B70 	 mov r0,#310
 2594 0174 3C21     	 movs r1,#60
 2595 0176 1A22     	 movs r2,#26
 2596 0178 40F60803 	 movw r3,#2056
 2597 017c 0096     	 str r6,[sp]
 2598 017e FFF7FEFF 	 bl EVE_cmd_number
 2599 0182 4FF49B70 	 mov r0,#310
 2600 0186 4B21     	 movs r1,#75
 2601 0188 1A22     	 movs r2,#26
 2602 018a 40F60803 	 movw r3,#2056
 2603 018e 0095     	 str r5,[sp]
 2604 0190 FFF7FEFF 	 bl EVE_cmd_number
 2605 0194 5A21     	 movs r1,#90
 2606 0196 1A22     	 movs r2,#26
 2607 0198 40F60803 	 movw r3,#2056
 2608 019c 4FF49B70 	 mov r0,#310
 2609 01a0 0094     	 str r4,[sp]
 2610 01a2 FFF7FEFF 	 bl EVE_cmd_number
 2611 01a6 0020     	 movs r0,#0
 2612 01a8 FFF7FEFF 	 bl EVE_cmd_dl
 2613 01ac 6FF0FE00 	 mvn r0,#254
 2614 01b0 FFF7FEFF 	 bl EVE_cmd_dl
 2615 01b4 FFF7FEFF 	 bl EVE_cmd_execute
 2616              	.L299:
 2617 01b8 FEE7     	 b .L299
 2618              	.L297:
 2619 01ba 03B0     	 add sp,sp,#12
 2620              	 
 2621 01bc BDE8F083 	 pop {r4,r5,r6,r7,r8,r9,pc}
 2622              	.L301:
 2623              	 .align 2
 2624              	.L300:
 2625 01c0 50213000 	 .word 3154256
 2626 01c4 54213000 	 .word 3154260
 2627 01c8 58213000 	 .word 3154264
 2628 01cc B14AF1FF 	 .word -963919
 2629 01d0 5C213000 	 .word 3154268
 2630 01d4 60213000 	 .word 3154272
 2631 01d8 64213000 	 .word 3154276
 2632 01dc ABC7FAFF 	 .word -342101
 2633 01e0 07000026 	 .word 637534215
 2634 01e4 06000000 	 .word .LC1
 2635 01e8 1D000000 	 .word .LC2
 2636 01ec 30000000 	 .word .LC3
 2637 01f0 43000000 	 .word .LC4
 2638 01f4 56000000 	 .word .LC5
 2639 01f8 69000000 	 .word .LC6
 2640 01fc 7C000000 	 .word .LC7
 2642              	 .section .text.TFT_init,"ax",%progbits
 2643              	 .align 1
 2644              	 .global TFT_init
 2645              	 .thumb
 2646              	 .thumb_func
 2648              	TFT_init:
 2649              	 
 2650              	 
 2651 0000 10B5     	 push {r4,lr}
 2652 0002 FFF7FEFF 	 bl EVE_init
 2653 0006 58B3     	 cbz r0,.L303
 2654 0008 164B     	 ldr r3,.L307
 2655 000a 1748     	 ldr r0,.L307+4
 2656 000c 3021     	 movs r1,#48
 2657 000e 0124     	 movs r4,#1
 2658 0010 1C70     	 strb r4,[r3]
 2659 0012 FFF7FEFF 	 bl EVE_memWrite8
 2660 0016 0020     	 movs r0,#0
 2661 0018 FFF7FEFF 	 bl touch_calibrate
 2662 001c FFF7FEFF 	 bl EVE_start_cmd_burst
 2663 0020 6FF0FF00 	 mvn r0,#255
 2664 0024 FFF7FEFF 	 bl EVE_cmd_dl_burst
 2665 0028 4FF04070 	 mov r0,#50331648
 2666 002c FFF7FEFF 	 bl EVE_cmd_dl_burst
 2667 0030 0E48     	 ldr r0,.L307+8
 2668 0032 FFF7FEFF 	 bl EVE_cmd_bgcolor_burst
 2669 0036 4FF01C50 	 mov r0,#654311424
 2670 003a FFF7FEFF 	 bl EVE_cmd_dl_burst
 2671 003e 6FF07D40 	 mvn r0,#-50331648
 2672 0042 FFF7FEFF 	 bl EVE_cmd_dl_burst
 2673 0046 0A48     	 ldr r0,.L307+12
 2674 0048 FFF7FEFF 	 bl EVE_cmd_dl_burst
 2675 004c 0020     	 movs r0,#0
 2676 004e FFF7FEFF 	 bl EVE_cmd_dl_burst
 2677 0052 6FF0FE00 	 mvn r0,#254
 2678 0056 FFF7FEFF 	 bl EVE_cmd_dl_burst
 2679 005a FFF7FEFF 	 bl EVE_end_cmd_burst
 2680 005e 2046     	 mov r0,r4
 2681              	.L303:
 2682 0060 10BD     	 pop {r4,pc}
 2683              	.L308:
 2684 0062 00BF     	 .align 2
 2685              	.L307:
 2686 0064 00000000 	 .word .LANCHOR19
 2687 0068 D4203000 	 .word 3154132
 2688 006c F6F9FD00 	 .word 16644598
 2689 0070 07000026 	 .word 637534215
 2691              	 .section .text.TFT_display_init_screen,"ax",%progbits
 2692              	 .align 1
 2693              	 .global TFT_display_init_screen
 2694              	 .thumb
 2695              	 .thumb_func
 2697              	TFT_display_init_screen:
 2698              	 
 2699              	 
 2700 0000 08B5     	 push {r3,lr}
 2701 0002 1B4B     	 ldr r3,.L311
 2702 0004 1B78     	 ldrb r3,[r3]
 2703 0006 93B3     	 cbz r3,.L309
 2704 0008 1A49     	 ldr r1,.L311+4
 2705 000a 44F60472 	 movw r2,#20228
 2706 000e 0020     	 movs r0,#0
 2707 0010 FFF7FEFF 	 bl EVE_cmd_inflate
 2708 0014 FFF7FEFF 	 bl EVE_start_cmd_burst
 2709 0018 6FF0FF00 	 mvn r0,#255
 2710 001c FFF7FEFF 	 bl EVE_cmd_dl_burst
 2711 0020 6FF07D40 	 mvn r0,#-50331648
 2712 0024 FFF7FEFF 	 bl EVE_cmd_dl_burst
 2713 0028 1348     	 ldr r0,.L311+8
 2714 002a FFF7FEFF 	 bl EVE_cmd_dl_burst
 2715 002e 4FF04070 	 mov r0,#50331648
 2716 0032 FFF7FEFF 	 bl EVE_cmd_dl_burst
 2717 0036 0020     	 movs r0,#0
 2718 0038 0146     	 mov r1,r0
 2719 003a FA23     	 movs r3,#250
 2720 003c 4FF49A72 	 mov r2,#308
 2721 0040 FFF7FEFF 	 bl EVE_cmd_setbitmap_burst
 2722 0044 0D48     	 ldr r0,.L311+12
 2723 0046 FFF7FEFF 	 bl EVE_cmd_dl_burst
 2724 004a 0D48     	 ldr r0,.L311+16
 2725 004c FFF7FEFF 	 bl EVE_cmd_dl_burst
 2726 0050 4FF00450 	 mov r0,#553648128
 2727 0054 FFF7FEFF 	 bl EVE_cmd_dl_burst
 2728 0058 0020     	 movs r0,#0
 2729 005a FFF7FEFF 	 bl EVE_cmd_dl_burst
 2730 005e 6FF0FE00 	 mvn r0,#254
 2731 0062 FFF7FEFF 	 bl EVE_cmd_dl_burst
 2732 0066 BDE80840 	 pop {r3,lr}
 2733 006a FFF7FEBF 	 b EVE_end_cmd_burst
 2734              	.L309:
 2735 006e 08BD     	 pop {r3,pc}
 2736              	.L312:
 2737              	 .align 2
 2738              	.L311:
 2739 0070 00000000 	 .word .LANCHOR19
 2740 0074 00000000 	 .word logo_init
 2741 0078 07000026 	 .word 637534215
 2742 007c 0100001F 	 .word 520093697
 2743 0080 B000B042 	 .word 1118830768
 2745              	 .section .text.TFT_display_static,"ax",%progbits
 2746              	 .align 1
 2747              	 .global TFT_display_static
 2748              	 .thumb
 2749              	 .thumb_func
 2751              	TFT_display_static:
 2752              	 
 2753              	 
 2754 0000 10B5     	 push {r4,lr}
 2755 0002 FFF7FEFF 	 bl EVE_start_cmd_burst
 2756 0006 6FF0FF00 	 mvn r0,#255
 2757 000a FFF7FEFF 	 bl EVE_cmd_dl_burst
 2758 000e 2148     	 ldr r0,.L318
 2759 0010 214C     	 ldr r4,.L318+4
 2760 0012 FFF7FEFF 	 bl EVE_cmd_dl_burst
 2761 0016 2148     	 ldr r0,.L318+8
 2762 0018 FFF7FEFF 	 bl EVE_cmd_bgcolor_burst
 2763 001c 4FF01C50 	 mov r0,#654311424
 2764 0020 FFF7FEFF 	 bl EVE_cmd_dl_burst
 2765 0024 1E48     	 ldr r0,.L318+12
 2766 0026 FFF7FEFF 	 bl EVE_cmd_dl_burst
 2767 002a 1E48     	 ldr r0,.L318+16
 2768 002c FFF7FEFF 	 bl EVE_cmd_dl_burst
 2769 0030 4FF08040 	 mov r0,#1073741824
 2770 0034 FFF7FEFF 	 bl EVE_cmd_dl_burst
 2771 0038 1B48     	 ldr r0,.L318+20
 2772 003a FFF7FEFF 	 bl EVE_cmd_dl_burst
 2773 003e 4FF00450 	 mov r0,#553648128
 2774 0042 FFF7FEFF 	 bl EVE_cmd_dl_burst
 2775 0046 94F90020 	 ldrsb r2,[r4]
 2776 004a 184B     	 ldr r3,.L318+24
 2777 004c 53F82230 	 ldr r3,[r3,r2,lsl#2]
 2778 0050 9847     	 blx r3
 2779 0052 FFF7FEFF 	 bl EVE_end_cmd_burst
 2780              	.L314:
 2781 0056 FFF7FEFF 	 bl EVE_busy
 2782 005a 0028     	 cmp r0,#0
 2783 005c FBD1     	 bne .L314
 2784 005e 1448     	 ldr r0,.L318+28
 2785 0060 FFF7FEFF 	 bl EVE_memRead16
 2786 0064 134B     	 ldr r3,.L318+32
 2787 0066 0246     	 mov r2,r0
 2788 0068 1860     	 str r0,[r3]
 2789 006a 4FF44011 	 mov r1,#3145728
 2790 006e 4FF47F20 	 mov r0,#1044480
 2791 0072 FFF7FEFF 	 bl EVE_cmd_memcpy
 2792              	.L315:
 2793 0076 FFF7FEFF 	 bl EVE_busy
 2794 007a 0028     	 cmp r0,#0
 2795 007c FBD1     	 bne .L315
 2796 007e 0E4B     	 ldr r3,.L318+36
 2797 0080 2278     	 ldrb r2,[r4]
 2798 0082 1A70     	 strb r2,[r3]
 2799 0084 0D4B     	 ldr r3,.L318+40
 2800 0086 1A88     	 ldrh r2,[r3]
 2801 0088 0D4B     	 ldr r3,.L318+44
 2802 008a 1A80     	 strh r2,[r3]
 2803 008c 0D4B     	 ldr r3,.L318+48
 2804 008e 1870     	 strb r0,[r3]
 2805 0090 10BD     	 pop {r4,pc}
 2806              	.L319:
 2807 0092 00BF     	 .align 2
 2808              	.L318:
 2809 0094 01000003 	 .word 50331649
 2810 0098 00000000 	 .word .LANCHOR7
 2811 009c F6F9FD00 	 .word 16644598
 2812 00a0 F6F9FD04 	 .word 83753462
 2813 00a4 0900001F 	 .word 520093705
 2814 00a8 1001F040 	 .word 1089470736
 2815 00ac 00000000 	 .word TFT_display_static_cur_Menu__fptr_arr
 2816 00b0 00213000 	 .word 3154176
 2817 00b4 00000000 	 .word .LANCHOR20
 2818 00b8 00000000 	 .word .LANCHOR8
 2819 00bc 00000000 	 .word .LANCHOR10
 2820 00c0 00000000 	 .word .LANCHOR21
 2821 00c4 00000000 	 .word .LANCHOR6
 2823              	 .section .text.TFT_touch,"ax",%progbits
 2824              	 .align 1
 2825              	 .global TFT_touch
 2826              	 .thumb
 2827              	 .thumb_func
 2829              	TFT_touch:
 2830              	 
 2831              	 
 2832 0000 73B5     	 push {r0,r1,r4,r5,r6,lr}
 2833 0002 FFF7FEFF 	 bl EVE_busy
 2834 0006 0028     	 cmp r0,#0
 2835 0008 40F0C380 	 bne .L320
 2836 000c 6248     	 ldr r0,.L366
 2837 000e 634D     	 ldr r5,.L366+4
 2838 0010 FFF7FEFF 	 bl EVE_memRead8
 2839 0014 0446     	 mov r4,r0
 2840 0016 6248     	 ldr r0,.L366+8
 2841 0018 FFF7FEFF 	 bl EVE_memRead32
 2842 001c 2B78     	 ldrb r3,[r5]
 2843 001e 002B     	 cmp r3,#0
 2844 0020 2ED0     	 beq .L323
 2845 0022 604B     	 ldr r3,.L366+12
 2846 0024 1A68     	 ldr r2,[r3]
 2847 0026 B2F5004F 	 cmp r2,#32768
 2848 002a 4FEA1041 	 lsr r1,r0,#16
 2849 002e 07D1     	 bne .L324
 2850 0030 5D4A     	 ldr r2,.L366+16
 2851 0032 1668     	 ldr r6,[r2]
 2852 0034 B6F5004F 	 cmp r6,#32768
 2853 0038 02BF     	 ittt eq
 2854 003a 86B2     	 uxtheq r6,r0
 2855 003c 1960     	 streq r1,[r3]
 2856 003e 1660     	 streq r6,[r2]
 2857              	.L324:
 2858 0040 0E04     	 lsls r6,r1,#16
 2859 0042 0BD4     	 bmi .L325
 2860 0044 0204     	 lsls r2,r0,#16
 2861 0046 09D4     	 bmi .L325
 2862 0048 1A68     	 ldr r2,[r3]
 2863 004a 521A     	 subs r2,r2,r1
 2864 004c 5749     	 ldr r1,.L366+20
 2865 004e 0A60     	 str r2,[r1]
 2866 0050 554A     	 ldr r2,.L366+16
 2867 0052 1268     	 ldr r2,[r2]
 2868 0054 80B2     	 uxth r0,r0
 2869 0056 101A     	 subs r0,r2,r0
 2870 0058 554A     	 ldr r2,.L366+24
 2871 005a 1060     	 str r0,[r2]
 2872              	.L325:
 2873 005c 84B9     	 cbnz r4,.L323
 2874 005e 5549     	 ldr r1,.L366+28
 2875 0060 0A78     	 ldrb r2,[r1]
 2876 0062 0132     	 adds r2,r2,#1
 2877 0064 D2B2     	 uxtb r2,r2
 2878 0066 042A     	 cmp r2,#4
 2879 0068 0A70     	 strb r2,[r1]
 2880 006a 09D9     	 bls .L323
 2881 006c 524A     	 ldr r2,.L366+32
 2882 006e 1478     	 ldrb r4,[r2]
 2883 0070 0022     	 movs r2,#0
 2884 0072 2A70     	 strb r2,[r5]
 2885 0074 0A70     	 strb r2,[r1]
 2886 0076 4FF40042 	 mov r2,#32768
 2887 007a 1A60     	 str r2,[r3]
 2888 007c 4A4B     	 ldr r3,.L366+16
 2889 007e 1A60     	 str r2,[r3]
 2890              	.L323:
 2891 0080 4E4B     	 ldr r3,.L366+36
 2892 0082 1B78     	 ldrb r3,[r3]
 2893 0084 43B3     	 cbz r3,.L326
 2894 0086 4E4B     	 ldr r3,.L366+40
 2895 0088 1B78     	 ldrb r3,[r3]
 2896 008a 2BBB     	 cbnz r3,.L326
 2897 008c CCB9     	 cbnz r4,.L327
 2898 008e 4D49     	 ldr r1,.L366+44
 2899 0090 0878     	 ldrb r0,[r1]
 2900 0092 B0B1     	 cbz r0,.L327
 2901 0094 4C4A     	 ldr r2,.L366+48
 2902 0096 1378     	 ldrb r3,[r2]
 2903 0098 0133     	 adds r3,r3,#1
 2904 009a DBB2     	 uxtb r3,r3
 2905 009c 042B     	 cmp r3,#4
 2906 009e 1370     	 strb r3,[r2]
 2907 00a0 1ED9     	 bls .L331
 2908 00a2 5E28     	 cmp r0,#94
 2909 00a4 09BF     	 itett eq
 2910 00a6 494A     	 ldreq r2,.L366+52
 2911 00a8 494B     	 ldrne r3,.L366+56
 2912 00aa 1378     	 ldrbeq r3,[r2]
 2913 00ac B3FA83F3 	 clzeq r3,r3
 2914 00b0 11BF     	 iteee ne
 2915 00b2 0121     	 movne r1,#1
 2916 00b4 5B09     	 lsreq r3,r3,#5
 2917 00b6 1370     	 strbeq r3,[r2]
 2918 00b8 0C70     	 strbeq r4,[r1]
 2919 00ba 1CBF     	 itt ne
 2920 00bc 1970     	 strbne r1,[r3]
 2921 00be 1470     	 strbne r4,[r2]
 2922 00c0 0EE0     	 b .L331
 2923              	.L327:
 2924 00c2 A4F12003 	 sub r3,r4,#32
 2925 00c6 DBB2     	 uxtb r3,r3
 2926 00c8 602B     	 cmp r3,#96
 2927 00ca 05D8     	 bhi .L326
 2928 00cc 3E4B     	 ldr r3,.L366+48
 2929 00ce 0022     	 movs r2,#0
 2930 00d0 1A70     	 strb r2,[r3]
 2931 00d2 3C4B     	 ldr r3,.L366+44
 2932 00d4 1C70     	 strb r4,[r3]
 2933 00d6 03E0     	 b .L331
 2934              	.L326:
 2935 00d8 14B1     	 cbz r4,.L331
 2936 00da 012C     	 cmp r4,#1
 2937 00dc 05D0     	 beq .L332
 2938 00de 45E0     	 b .L365
 2939              	.L331:
 2940 00e0 3C4B     	 ldr r3,.L366+60
 2941 00e2 0024     	 movs r4,#0
 2942 00e4 1C70     	 strb r4,[r3]
 2943 00e6 364B     	 ldr r3,.L366+40
 2944 00e8 0CE0     	 b .L363
 2945              	.L332:
 2946 00ea 3B4B     	 ldr r3,.L366+64
 2947 00ec 93F90000 	 ldrsb r0,[r3]
 2948 00f0 0228     	 cmp r0,#2
 2949 00f2 3CDC     	 bgt .L336
 2950 00f4 2B78     	 ldrb r3,[r5]
 2951 00f6 3BB9     	 cbnz r3,.L334
 2952 00f8 2F4B     	 ldr r3,.L366+32
 2953 00fa 1A78     	 ldrb r2,[r3]
 2954 00fc 1E46     	 mov r6,r3
 2955 00fe 0ABB     	 cbnz r2,.L335
 2956 0100 264A     	 ldr r2,.L366+4
 2957 0102 1470     	 strb r4,[r2]
 2958              	.L363:
 2959 0104 1C70     	 strb r4,[r3]
 2960 0106 32E0     	 b .L336
 2961              	.L334:
 2962 0108 012B     	 cmp r3,#1
 2963 010a 30D1     	 bne .L336
 2964 010c 2A4B     	 ldr r3,.L366+32
 2965 010e 1B78     	 ldrb r3,[r3]
 2966 0110 012B     	 cmp r3,#1
 2967 0112 2CD1     	 bne .L336
 2968 0114 254B     	 ldr r3,.L366+20
 2969 0116 1A68     	 ldr r2,[r3]
 2970 0118 254B     	 ldr r3,.L366+24
 2971 011a 1B68     	 ldr r3,[r3]
 2972 011c 82EAE271 	 eor r1,r2,r2,asr#31
 2973 0120 002B     	 cmp r3,#0
 2974 0122 A1EBE271 	 sub r1,r1,r2,asr#31
 2975 0126 B8BF     	 it lt
 2976 0128 5B42     	 rsblt r3,r3,#0
 2977 012a 9942     	 cmp r1,r3
 2978 012c 1FDD     	 ble .L336
 2979 012e 322A     	 cmp r2,#50
 2980 0130 2A4B     	 ldr r3,.L366+68
 2981 0132 01DD     	 ble .L337
 2982 0134 0322     	 movs r2,#3
 2983 0136 03E0     	 b .L364
 2984              	.L337:
 2985 0138 3232     	 adds r2,r2,#50
 2986 013a B4BF     	 ite lt
 2987 013c 0422     	 movlt r2,#4
 2988 013e 0022     	 movge r2,#0
 2989              	.L364:
 2990 0140 1A70     	 strb r2,[r3]
 2991 0142 14E0     	 b .L336
 2992              	.L335:
 2993 0144 012A     	 cmp r2,#1
 2994 0146 12D1     	 bne .L336
 2995 0148 244B     	 ldr r3,.L366+68
 2996 014a 1B78     	 ldrb r3,[r3]
 2997 014c 032B     	 cmp r3,#3
 2998 014e 03D1     	 bne .L339
 2999 0150 0228     	 cmp r0,#2
 3000 0152 08D0     	 beq .L340
 3001 0154 0130     	 adds r0,r0,#1
 3002 0156 04E0     	 b .L362
 3003              	.L339:
 3004 0158 042B     	 cmp r3,#4
 3005 015a 04D1     	 bne .L340
 3006 015c 0028     	 cmp r0,#0
 3007 015e 02DD     	 ble .L340
 3008 0160 0138     	 subs r0,r0,#1
 3009              	.L362:
 3010 0162 FFF7FEFF 	 bl TFT_setMenu
 3011              	.L340:
 3012 0166 0023     	 movs r3,#0
 3013 0168 3370     	 strb r3,[r6]
 3014 016a 00E0     	 b .L336
 3015              	.L365:
 3016 016c 02D8     	 bhi .L341
 3017              	.L336:
 3018 016e 184B     	 ldr r3,.L366+56
 3019 0170 1B78     	 ldrb r3,[r3]
 3020 0172 73B1     	 cbz r3,.L320
 3021              	.L341:
 3022 0174 184B     	 ldr r3,.L366+64
 3023 0176 2A78     	 ldrb r2,[r5]
 3024 0178 93F90010 	 ldrsb r1,[r3]
 3025 017c 0B4B     	 ldr r3,.L366+20
 3026 017e 0093     	 str r3,[sp]
 3027 0180 0B4B     	 ldr r3,.L366+24
 3028 0182 0193     	 str r3,[sp,#4]
 3029 0184 164B     	 ldr r3,.L366+72
 3030 0186 2046     	 mov r0,r4
 3031 0188 53F82150 	 ldr r5,[r3,r1,lsl#2]
 3032 018c 1149     	 ldr r1,.L366+60
 3033 018e 0A4B     	 ldr r3,.L366+32
 3034 0190 A847     	 blx r5
 3035              	.L320:
 3036 0192 02B0     	 add sp,sp,#8
 3037              	 
 3038 0194 70BD     	 pop {r4,r5,r6,pc}
 3039              	.L367:
 3040 0196 00BF     	 .align 2
 3041              	.L366:
 3042 0198 2C213000 	 .word 3154220
 3043 019c 00000000 	 .word .LANCHOR22
 3044 01a0 24213000 	 .word 3154212
 3045 01a4 00000000 	 .word .LANCHOR23
 3046 01a8 00000000 	 .word .LANCHOR24
 3047 01ac 00000000 	 .word .LANCHOR25
 3048 01b0 00000000 	 .word .LANCHOR26
 3049 01b4 00000000 	 .word .LANCHOR27
 3050 01b8 00000000 	 .word .LANCHOR28
 3051 01bc 00000000 	 .word .LANCHOR0
 3052 01c0 00000000 	 .word .LANCHOR3
 3053 01c4 00000000 	 .word .LANCHOR17
 3054 01c8 00000000 	 .word .LANCHOR29
 3055 01cc 00000000 	 .word .LANCHOR30
 3056 01d0 00000000 	 .word .LANCHOR4
 3057 01d4 00000000 	 .word .LANCHOR31
 3058 01d8 00000000 	 .word .LANCHOR7
 3059 01dc 00000000 	 .word .LANCHOR32
 3060 01e0 00000000 	 .word TFT_touch_cur_Menu__fptr_arr
 3062              	 .section .text.TFT_display,"ax",%progbits
 3063              	 .align 1
 3064              	 .global TFT_display
 3065              	 .thumb
 3066              	 .thumb_func
 3068              	TFT_display:
 3069              	 
 3070              	 
 3071 0000 F0B5     	 push {r4,r5,r6,r7,lr}
 3072 0002 794B     	 ldr r3,.L391
 3073 0004 1B78     	 ldrb r3,[r3]
 3074 0006 85B0     	 sub sp,sp,#20
 3075 0008 002B     	 cmp r3,#0
 3076 000a 00F0BD81 	 beq .L368
 3077 000e 774B     	 ldr r3,.L391+4
 3078 0010 774C     	 ldr r4,.L391+8
 3079 0012 93F90030 	 ldrsb r3,[r3]
 3080 0016 73B9     	 cbnz r3,.L370
 3081 0018 764B     	 ldr r3,.L391+12
 3082 001a 93F90020 	 ldrsb r2,[r3]
 3083 001e 94F90030 	 ldrsb r3,[r4]
 3084 0022 9A42     	 cmp r2,r3
 3085 0024 07D1     	 bne .L370
 3086 0026 744B     	 ldr r3,.L391+16
 3087 0028 B3F90020 	 ldrsh r2,[r3]
 3088 002c 734B     	 ldr r3,.L391+20
 3089 002e B3F90030 	 ldrsh r3,[r3]
 3090 0032 9A42     	 cmp r2,r3
 3091 0034 01D0     	 beq .L371
 3092              	.L370:
 3093 0036 FFF7FEFF 	 bl TFT_display_static
 3094              	.L371:
 3095 003a FFF7FEFF 	 bl TFT_display_get_values
 3096 003e FFF7FEFF 	 bl EVE_start_cmd_burst
 3097 0042 6FF0FF00 	 mvn r0,#255
 3098 0046 FFF7FEFF 	 bl EVE_cmd_dl_burst
 3099 004a 6FF07D40 	 mvn r0,#-50331648
 3100 004e FFF7FEFF 	 bl EVE_cmd_dl_burst
 3101 0052 6B48     	 ldr r0,.L391+24
 3102 0054 FFF7FEFF 	 bl EVE_cmd_dl_burst
 3103 0058 4FF04070 	 mov r0,#50331648
 3104 005c FFF7FEFF 	 bl EVE_cmd_dl_burst
 3105 0060 684B     	 ldr r3,.L391+28
 3106 0062 4FF47F20 	 mov r0,#1044480
 3107 0066 1968     	 ldr r1,[r3]
 3108 0068 FFF7FEFF 	 bl EVE_cmd_append_burst
 3109 006c 94F90020 	 ldrsb r2,[r4]
 3110 0070 654B     	 ldr r3,.L391+32
 3111 0072 53F82230 	 ldr r3,[r3,r2,lsl#2]
 3112 0076 9847     	 blx r3
 3113 0078 644B     	 ldr r3,.L391+36
 3114 007a 1B78     	 ldrb r3,[r3]
 3115 007c 002B     	 cmp r3,#0
 3116 007e 00F07781 	 beq .L372
 3117 0082 6348     	 ldr r0,.L391+40
 3118 0084 634C     	 ldr r4,.L391+44
 3119 0086 FFF7FEFF 	 bl EVE_cmd_dl_burst
 3120 008a 6348     	 ldr r0,.L391+48
 3121 008c FFF7FEFF 	 bl EVE_cmd_dl_burst
 3122 0090 6248     	 ldr r0,.L391+52
 3123 0092 FFF7FEFF 	 bl EVE_cmd_dl_burst
 3124 0096 6248     	 ldr r0,.L391+56
 3125 0098 FFF7FEFF 	 bl EVE_cmd_dl_burst
 3126 009c 4FF00450 	 mov r0,#553648128
 3127 00a0 FFF7FEFF 	 bl EVE_cmd_dl_burst
 3128 00a4 4FF04070 	 mov r0,#50331648
 3129 00a8 FFF7FEFF 	 bl EVE_cmd_dl_burst
 3130 00ac 5D4B     	 ldr r3,.L391+60
 3131 00ae 1D78     	 ldrb r5,[r3]
 3132 00b0 012D     	 cmp r5,#1
 3133 00b2 59D0     	 beq .L374
 3134 00b4 5C4B     	 ldr r3,.L391+64
 3135 00b6 022D     	 cmp r5,#2
 3136 00b8 1B78     	 ldrb r3,[r3]
 3137 00ba 40F0CF80 	 bne .L388
 3138 00be 4BBB     	 cbnz r3,.L376
 3139              	.L378:
 3140 00c0 1A25     	 movs r5,#26
 3141 00c2 0095     	 str r5,[sp]
 3142 00c4 2378     	 ldrb r3,[r4]
 3143 00c6 0193     	 str r3,[sp,#4]
 3144 00c8 584B     	 ldr r3,.L391+68
 3145 00ca 0293     	 str r3,[sp,#8]
 3146 00cc 0220     	 movs r0,#2
 3147 00ce 7121     	 movs r1,#113
 3148 00d0 4FF4D372 	 mov r2,#422
 3149 00d4 1D23     	 movs r3,#29
 3150 00d6 FFF7FEFF 	 bl EVE_cmd_keys_burst
 3151 00da 0095     	 str r5,[sp]
 3152 00dc 2378     	 ldrb r3,[r4]
 3153 00de 0193     	 str r3,[sp,#4]
 3154 00e0 534B     	 ldr r3,.L391+72
 3155 00e2 0293     	 str r3,[sp,#8]
 3156 00e4 0220     	 movs r0,#2
 3157 00e6 9121     	 movs r1,#145
 3158 00e8 4FF4EE72 	 mov r2,#476
 3159 00ec 1D23     	 movs r3,#29
 3160 00ee FFF7FEFF 	 bl EVE_cmd_keys_burst
 3161 00f2 0095     	 str r5,[sp]
 3162 00f4 2378     	 ldrb r3,[r4]
 3163 00f6 0193     	 str r3,[sp,#4]
 3164 00f8 4E4B     	 ldr r3,.L391+76
 3165 00fa 0293     	 str r3,[sp,#8]
 3166 00fc 0220     	 movs r0,#2
 3167 00fe 1D23     	 movs r3,#29
 3168 0100 B121     	 movs r1,#177
 3169 0102 4FF4EE72 	 mov r2,#476
 3170 0106 FFF7FEFF 	 bl EVE_cmd_keys_burst
 3171 010a 0095     	 str r5,[sp]
 3172 010c 2378     	 ldrb r3,[r4]
 3173 010e 0193     	 str r3,[sp,#4]
 3174 0110 494B     	 ldr r3,.L391+80
 3175 0112 CFE0     	 b .L389
 3176              	.L376:
 3177 0114 1A26     	 movs r6,#26
 3178 0116 0096     	 str r6,[sp]
 3179 0118 2378     	 ldrb r3,[r4]
 3180 011a 0193     	 str r3,[sp,#4]
 3181 011c 434B     	 ldr r3,.L391+68
 3182 011e 0293     	 str r3,[sp,#8]
 3183 0120 2846     	 mov r0,r5
 3184 0122 7121     	 movs r1,#113
 3185 0124 4FF4D372 	 mov r2,#422
 3186 0128 1D23     	 movs r3,#29
 3187 012a FFF7FEFF 	 bl EVE_cmd_keys_burst
 3188 012e 0096     	 str r6,[sp]
 3189 0130 2378     	 ldrb r3,[r4]
 3190 0132 0193     	 str r3,[sp,#4]
 3191 0134 414B     	 ldr r3,.L391+84
 3192 0136 0293     	 str r3,[sp,#8]
 3193 0138 2846     	 mov r0,r5
 3194 013a 9121     	 movs r1,#145
 3195 013c 4FF4EE72 	 mov r2,#476
 3196 0140 1D23     	 movs r3,#29
 3197 0142 FFF7FEFF 	 bl EVE_cmd_keys_burst
 3198 0146 0096     	 str r6,[sp]
 3199 0148 2378     	 ldrb r3,[r4]
 3200 014a 0193     	 str r3,[sp,#4]
 3201 014c 3C4B     	 ldr r3,.L391+88
 3202 014e 0293     	 str r3,[sp,#8]
 3203 0150 2846     	 mov r0,r5
 3204 0152 1D23     	 movs r3,#29
 3205 0154 B121     	 movs r1,#177
 3206 0156 4FF4EE72 	 mov r2,#476
 3207 015a FFF7FEFF 	 bl EVE_cmd_keys_burst
 3208 015e 0096     	 str r6,[sp]
 3209 0160 2378     	 ldrb r3,[r4]
 3210 0162 0193     	 str r3,[sp,#4]
 3211 0164 374B     	 ldr r3,.L391+92
 3212 0166 A5E0     	 b .L389
 3213              	.L374:
 3214 0168 1A25     	 movs r5,#26
 3215 016a 0095     	 str r5,[sp]
 3216 016c 2378     	 ldrb r3,[r4]
 3217 016e 0193     	 str r3,[sp,#4]
 3218 0170 354B     	 ldr r3,.L391+96
 3219 0172 0293     	 str r3,[sp,#8]
 3220 0174 0220     	 movs r0,#2
 3221 0176 7121     	 movs r1,#113
 3222 0178 4FF4D372 	 mov r2,#422
 3223 017c 1D23     	 movs r3,#29
 3224 017e FFF7FEFF 	 bl EVE_cmd_keys_burst
 3225 0182 0095     	 str r5,[sp]
 3226 0184 2378     	 ldrb r3,[r4]
 3227 0186 0193     	 str r3,[sp,#4]
 3228 0188 304B     	 ldr r3,.L391+100
 3229 018a 0293     	 str r3,[sp,#8]
 3230 018c 0220     	 movs r0,#2
 3231 018e 9121     	 movs r1,#145
 3232 0190 4FF4D372 	 mov r2,#422
 3233 0194 1D23     	 movs r3,#29
 3234 0196 FFF7FEFF 	 bl EVE_cmd_keys_burst
 3235 019a 0095     	 str r5,[sp]
 3236 019c 2378     	 ldrb r3,[r4]
 3237 019e 0193     	 str r3,[sp,#4]
 3238 01a0 2B4B     	 ldr r3,.L391+104
 3239 01a2 0293     	 str r3,[sp,#8]
 3240 01a4 0220     	 movs r0,#2
 3241 01a6 B121     	 movs r1,#177
 3242 01a8 4FF4D372 	 mov r2,#422
 3243 01ac 1D23     	 movs r3,#29
 3244 01ae FFF7FEFF 	 bl EVE_cmd_keys_burst
 3245 01b2 0095     	 str r5,[sp]
 3246 01b4 2378     	 ldrb r3,[r4]
 3247 01b6 0193     	 str r3,[sp,#4]
 3248 01b8 264B     	 ldr r3,.L391+108
 3249 01ba 0293     	 str r3,[sp,#8]
 3250 01bc 0220     	 movs r0,#2
 3251 01be D121     	 movs r1,#209
 3252 01c0 4FF48C72 	 mov r2,#280
 3253 01c4 1D23     	 movs r3,#29
 3254 01c6 FFF7FEFF 	 bl EVE_cmd_keys_burst
 3255 01ca 0095     	 str r5,[sp]
 3256 01cc 2378     	 ldrb r3,[r4]
 3257 01ce 0193     	 str r3,[sp,#4]
 3258 01d0 214B     	 ldr r3,.L391+112
 3259 01d2 0293     	 str r3,[sp,#8]
 3260 01d4 40F21D10 	 movw r0,#285
 3261 01d8 D121     	 movs r1,#209
 3262 01da 8B22     	 movs r2,#139
 3263 01dc 1D23     	 movs r3,#29
 3264 01de FFF7FEFF 	 bl EVE_cmd_keys_burst
 3265 01e2 0025     	 movs r5,#0
 3266 01e4 6FE0     	 b .L377
 3267              	.L392:
 3268 01e6 00BF     	 .align 2
 3269              	.L391:
 3270 01e8 00000000 	 .word .LANCHOR19
 3271 01ec 00000000 	 .word .LANCHOR6
 3272 01f0 00000000 	 .word .LANCHOR7
 3273 01f4 00000000 	 .word .LANCHOR8
 3274 01f8 00000000 	 .word .LANCHOR21
 3275 01fc 00000000 	 .word .LANCHOR10
 3276 0200 07000026 	 .word 637534215
 3277 0204 00000000 	 .word .LANCHOR20
 3278 0208 00000000 	 .word TFT_display_cur_Menu__fptr_arr
 3279 020c 00000000 	 .word .LANCHOR0
 3280 0210 22222204 	 .word 69345826
 3281 0214 00000000 	 .word .LANCHOR17
 3282 0218 0900001F 	 .word 520093705
 3283 021c 6F000040 	 .word 1073741935
 3284 0220 1001F040 	 .word 1089470736
 3285 0224 00000000 	 .word .LANCHOR2
 3286 0228 00000000 	 .word .LANCHOR30
 3287 022c 8F000000 	 .word .LC8
 3288 0230 9A000000 	 .word .LC9
 3289 0234 A5000000 	 .word .LC10
 3290 0238 AF000000 	 .word .LC11
 3291 023c B9000000 	 .word .LC12
 3292 0240 C4000000 	 .word .LC13
 3293 0244 CE000000 	 .word .LC14
 3294 0248 D8000000 	 .word .LC15
 3295 024c DC000000 	 .word .LC16
 3296 0250 E0000000 	 .word .LC17
 3297 0254 E4000000 	 .word .LC18
 3298 0258 E6000000 	 .word .LC19
 3299              	.L388:
 3300 025c 002B     	 cmp r3,#0
 3301 025e 3FF42FAF 	 beq .L378
 3302 0262 1A25     	 movs r5,#26
 3303 0264 0095     	 str r5,[sp]
 3304 0266 2378     	 ldrb r3,[r4]
 3305 0268 0193     	 str r3,[sp,#4]
 3306 026a 484B     	 ldr r3,.L393
 3307 026c 0293     	 str r3,[sp,#8]
 3308 026e 0220     	 movs r0,#2
 3309 0270 7121     	 movs r1,#113
 3310 0272 4FF4D372 	 mov r2,#422
 3311 0276 1D23     	 movs r3,#29
 3312 0278 FFF7FEFF 	 bl EVE_cmd_keys_burst
 3313 027c 0095     	 str r5,[sp]
 3314 027e 2378     	 ldrb r3,[r4]
 3315 0280 0193     	 str r3,[sp,#4]
 3316 0282 434B     	 ldr r3,.L393+4
 3317 0284 0293     	 str r3,[sp,#8]
 3318 0286 0220     	 movs r0,#2
 3319 0288 9121     	 movs r1,#145
 3320 028a 4FF4EE72 	 mov r2,#476
 3321 028e 1D23     	 movs r3,#29
 3322 0290 FFF7FEFF 	 bl EVE_cmd_keys_burst
 3323 0294 0095     	 str r5,[sp]
 3324 0296 2378     	 ldrb r3,[r4]
 3325 0298 0193     	 str r3,[sp,#4]
 3326 029a 3E4B     	 ldr r3,.L393+8
 3327 029c 0293     	 str r3,[sp,#8]
 3328 029e 0220     	 movs r0,#2
 3329 02a0 1D23     	 movs r3,#29
 3330 02a2 B121     	 movs r1,#177
 3331 02a4 4FF4EE72 	 mov r2,#476
 3332 02a8 FFF7FEFF 	 bl EVE_cmd_keys_burst
 3333 02ac 0095     	 str r5,[sp]
 3334 02ae 2378     	 ldrb r3,[r4]
 3335 02b0 0193     	 str r3,[sp,#4]
 3336 02b2 394B     	 ldr r3,.L393+12
 3337              	.L389:
 3338 02b4 0293     	 str r3,[sp,#8]
 3339 02b6 3820     	 movs r0,#56
 3340 02b8 D121     	 movs r1,#209
 3341 02ba 4FF4D372 	 mov r2,#422
 3342 02be 1D23     	 movs r3,#29
 3343 02c0 FFF7FEFF 	 bl EVE_cmd_keys_burst
 3344 02c4 0125     	 movs r5,#1
 3345              	.L377:
 3346 02c6 3548     	 ldr r0,.L393+16
 3347 02c8 354F     	 ldr r7,.L393+20
 3348 02ca FFF7FEFF 	 bl EVE_cmd_fgcolor_burst
 3349 02ce 1A26     	 movs r6,#26
 3350 02d0 3448     	 ldr r0,.L393+24
 3351 02d2 FFF7FEFF 	 bl EVE_cmd_bgcolor_burst
 3352 02d6 0096     	 str r6,[sp]
 3353 02d8 2378     	 ldrb r3,[r4]
 3354 02da 0193     	 str r3,[sp,#4]
 3355 02dc 324B     	 ldr r3,.L393+28
 3356 02de 0293     	 str r3,[sp,#8]
 3357 02e0 0220     	 movs r0,#2
 3358 02e2 F121     	 movs r1,#241
 3359 02e4 5A22     	 movs r2,#90
 3360 02e6 1D23     	 movs r3,#29
 3361 02e8 FFF7FEFF 	 bl EVE_cmd_keys_burst
 3362 02ec B5B1     	 cbz r5,.L379
 3363 02ee 0096     	 str r6,[sp]
 3364 02f0 3B78     	 ldrb r3,[r7]
 3365 02f2 0193     	 str r3,[sp,#4]
 3366 02f4 2D4B     	 ldr r3,.L393+32
 3367 02f6 0293     	 str r3,[sp,#8]
 3368 02f8 6020     	 movs r0,#96
 3369 02fa F121     	 movs r1,#241
 3370 02fc 4FF49072 	 mov r2,#288
 3371 0300 1D23     	 movs r3,#29
 3372 0302 FFF7FEFF 	 bl EVE_cmd_keys_burst
 3373 0306 0096     	 str r6,[sp]
 3374 0308 3B78     	 ldrb r3,[r7]
 3375 030a 0193     	 str r3,[sp,#4]
 3376 030c 284B     	 ldr r3,.L393+36
 3377 030e 0293     	 str r3,[sp,#8]
 3378 0310 0220     	 movs r0,#2
 3379 0312 D121     	 movs r1,#209
 3380 0314 3222     	 movs r2,#50
 3381 0316 1D23     	 movs r3,#29
 3382 0318 FFF7FEFF 	 bl EVE_cmd_keys_burst
 3383              	.L379:
 3384 031c 2548     	 ldr r0,.L393+40
 3385 031e FFF7FEFF 	 bl EVE_cmd_dl_burst
 3386 0322 2378     	 ldrb r3,[r4]
 3387 0324 1322     	 movs r2,#19
 3388 0326 7F2B     	 cmp r3,#127
 3389 0328 0092     	 str r2,[sp]
 3390 032a 234B     	 ldr r3,.L393+44
 3391 032c 05BF     	 ittet eq
 3392 032e 0293     	 streq r3,[sp,#8]
 3393 0330 4FF48072 	 moveq r2,#256
 3394 0334 0022     	 movne r2,#0
 3395 0336 0192     	 streq r2,[sp,#4]
 3396 0338 0FBF     	 iteee eq
 3397 033a 4FF4D770 	 moveq r0,#430
 3398 033e 0192     	 strne r2,[sp,#4]
 3399 0340 0293     	 strne r3,[sp,#8]
 3400 0342 4FF4D670 	 movne r0,#428
 3401 0346 7121     	 movs r1,#113
 3402 0348 3222     	 movs r2,#50
 3403 034a 1D23     	 movs r3,#29
 3404 034c FFF7FEFF 	 bl EVE_cmd_button_burst
 3405 0350 1A48     	 ldr r0,.L393+48
 3406 0352 FFF7FEFF 	 bl EVE_cmd_dl_burst
 3407 0356 1422     	 movs r2,#20
 3408 0358 0023     	 movs r3,#0
 3409 035a 8DE80C00 	 stmia sp,{r2,r3}
 3410 035e 184B     	 ldr r3,.L393+52
 3411 0360 0293     	 str r3,[sp,#8]
 3412 0362 4FF4C270 	 mov r0,#388
 3413 0366 F121     	 movs r1,#241
 3414 0368 5A22     	 movs r2,#90
 3415 036a 1D23     	 movs r3,#29
 3416 036c FFF7FEFF 	 bl EVE_cmd_button_burst
 3417              	.L372:
 3418 0370 0020     	 movs r0,#0
 3419 0372 FFF7FEFF 	 bl EVE_cmd_dl_burst
 3420 0376 6FF0FE00 	 mvn r0,#254
 3421 037a FFF7FEFF 	 bl EVE_cmd_dl_burst
 3422 037e 05B0     	 add sp,sp,#20
 3423              	 
 3424 0380 BDE8F040 	 pop {r4,r5,r6,r7,lr}
 3425 0384 FFF7FEBF 	 b EVE_end_cmd_burst
 3426              	.L368:
 3427 0388 05B0     	 add sp,sp,#20
 3428              	 
 3429 038a F0BD     	 pop {r4,r5,r6,r7,pc}
 3430              	.L394:
 3431              	 .align 2
 3432              	.L393:
 3433 038c E8000000 	 .word .LC20
 3434 0390 B9000000 	 .word .LC12
 3435 0394 C4000000 	 .word .LC13
 3436 0398 F3000000 	 .word .LC21
 3437 039c 6696AD00 	 .word 11376230
 3438 03a0 00000000 	 .word .LANCHOR17
 3439 03a4 2BA9EA00 	 .word 15378731
 3440 03a8 FD000000 	 .word .LC22
 3441 03ac 00010000 	 .word .LC23
 3442 03b0 02010000 	 .word .LC24
 3443 03b4 7F000003 	 .word 50331775
 3444 03b8 00000000 	 .word .LANCHOR33
 3445 03bc 80000003 	 .word 50331776
 3446 03c0 04010000 	 .word .LC25
 3448              	 .global textbox_cursor_pos
 3449              	 .global swipeDistance_Y
 3450              	 .global swipeDistance_X
 3451              	 .comm TFT_touch_cur_Menu__fptr_arr,16,4
 3452              	 .comm TFT_display_cur_Menu__fptr_arr,16,4
 3453              	 .comm TFT_display_static_cur_Menu__fptr_arr,16,4
 3454              	 .comm ReadData,1,1
 3455              	 .comm frameover,1,1
 3456              	 .comm InputType,1,1
 3457              	 .comm InputBuffer1_idx,2,2
 3458              	 .comm MeasurementCounter,4,4
 3459              	 .comm tft_tick,1,1
 3460              	 .comm _msCounter,4,4
 3461              	 .section .bss.keypadEndOfKeypress_Debounce,"aw",%nobits
 3462              	 .set .LANCHOR29,.+0
 3465              	keypadEndOfKeypress_Debounce:
 3466 0000 00       	 .space 1
 3467              	 .section .bss.num_dl_static,"aw",%nobits
 3468              	 .align 2
 3469              	 .set .LANCHOR20,.+0
 3472              	num_dl_static:
 3473 0000 00000000 	 .space 4
 3474              	 .section .bss.swipeDistance_Y,"aw",%nobits
 3475              	 .align 2
 3476              	 .set .LANCHOR26,.+0
 3479              	swipeDistance_Y:
 3480 0000 00000000 	 .space 4
 3481              	 .section .bss.keypadKeypressFinished,"aw",%nobits
 3482              	 .set .LANCHOR4,.+0
 3485              	keypadKeypressFinished:
 3486 0000 00       	 .space 1
 3487              	 .section .rodata.EVE_cmd_text_var__fptr_arr,"a",%progbits
 3488              	 .align 2
 3489              	 .set .LANCHOR13,.+0
 3492              	EVE_cmd_text_var__fptr_arr:
 3493 0000 00000000 	 .word EVE_cmd_text_var
 3494 0004 00000000 	 .word EVE_cmd_text_var_burst
 3495              	 .section .bss.keypadCurrentKey,"aw",%nobits
 3496              	 .set .LANCHOR17,.+0
 3499              	keypadCurrentKey:
 3500 0000 00       	 .space 1
 3501              	 .section .rodata.EVE_cmd_text__fptr_arr,"a",%progbits
 3502              	 .align 2
 3503              	 .set .LANCHOR12,.+0
 3506              	EVE_cmd_text__fptr_arr:
 3507 0000 00000000 	 .word EVE_cmd_text
 3508 0004 00000000 	 .word EVE_cmd_text_burst
 3509              	 .section .bss.TFT_last_ScrollV,"aw",%nobits
 3510              	 .align 1
 3511              	 .set .LANCHOR21,.+0
 3514              	TFT_last_ScrollV:
 3515 0000 0000     	 .space 2
 3516              	 .section .bss.swipeDistance_X,"aw",%nobits
 3517              	 .align 2
 3518              	 .set .LANCHOR25,.+0
 3521              	swipeDistance_X:
 3522 0000 00000000 	 .space 4
 3523              	 .section .data.swipeInitialTouch_Y,"aw",%progbits
 3524              	 .align 2
 3525              	 .set .LANCHOR24,.+0
 3528              	swipeInitialTouch_Y:
 3529 0000 00800000 	 .word 32768
 3530              	 .section .bss.tft_active,"aw",%nobits
 3531              	 .set .LANCHOR19,.+0
 3534              	tft_active:
 3535 0000 00       	 .space 1
 3536              	 .section .bss.toggle_lock,"aw",%nobits
 3537              	 .set .LANCHOR31,.+0
 3540              	toggle_lock:
 3541 0000 00       	 .space 1
 3542              	 .section .data.swipeInitialTouch_X,"aw",%progbits
 3543              	 .align 2
 3544              	 .set .LANCHOR23,.+0
 3547              	swipeInitialTouch_X:
 3548 0000 00800000 	 .word 32768
 3549              	 .section .bss.keypadActive,"aw",%nobits
 3550              	 .set .LANCHOR0,.+0
 3553              	keypadActive:
 3554 0000 00       	 .space 1
 3555              	 .section .bss.TFT_refresh_static,"aw",%nobits
 3556              	 .set .LANCHOR6,.+0
 3559              	TFT_refresh_static:
 3560 0000 00       	 .space 1
 3561              	 .section .bss.keypadInitialLock,"aw",%nobits
 3562              	 .set .LANCHOR3,.+0
 3565              	keypadInitialLock:
 3566 0000 00       	 .space 1
 3567              	 .section .bss.TFT_cur_MenuIdx,"aw",%nobits
 3568              	 .set .LANCHOR7,.+0
 3571              	TFT_cur_MenuIdx:
 3572 0000 00       	 .space 1
 3573              	 .section .bss.keypadType,"aw",%nobits
 3574              	 .set .LANCHOR2,.+0
 3577              	keypadType:
 3578 0000 00       	 .space 1
 3579              	 .section .bss.TFT_cur_ScrollV,"aw",%nobits
 3580              	 .align 1
 3581              	 .set .LANCHOR10,.+0
 3584              	TFT_cur_ScrollV:
 3585 0000 0000     	 .space 2
 3586              	 .section .data.cursor.14310,"aw",%progbits
 3587              	 .set .LANCHOR15,.+0
 3590              	cursor.14310:
 3591 0000 7C       	 .byte 124
 3592              	 .section .bss.textbox_cursor_pos,"aw",%nobits
 3593              	 .set .LANCHOR16,.+0
 3596              	textbox_cursor_pos:
 3597 0000 00       	 .space 1
 3598              	 .section .data.TFT_last_MenuIdx,"aw",%progbits
 3599              	 .set .LANCHOR8,.+0
 3602              	TFT_last_MenuIdx:
 3603 0000 FF       	 .byte -1
 3604              	 .section .bss.lastBlink.14311,"aw",%nobits
 3605              	 .align 2
 3606              	 .set .LANCHOR14,.+0
 3609              	lastBlink.14311:
 3610 0000 00000000 	 .space 4
 3611              	 .section .bss.swipeDetect,"aw",%nobits
 3612              	 .set .LANCHOR32,.+0
 3615              	swipeDetect:
 3616 0000 00       	 .space 1
 3617              	 .section .bss.swipeInProgress,"aw",%nobits
 3618              	 .set .LANCHOR22,.+0
 3621              	swipeInProgress:
 3622 0000 00       	 .space 1
 3623              	 .section .rodata.backspace_char,"a",%progbits
 3624              	 .set .LANCHOR33,.+0
 3627              	backspace_char:
 3628 0000 2E       	 .byte 46
 3629              	 .section .bss.str_buf,"aw",%nobits
 3630              	 .set .LANCHOR5,.+0
 3633              	str_buf:
 3634 0000 00000000 	 .space 100
 3634      00000000 
 3634      00000000 
 3634      00000000 
 3634      00000000 
 3635              	 .section .bss.swipeEvokedBy,"aw",%nobits
 3636              	 .set .LANCHOR28,.+0
 3639              	swipeEvokedBy:
 3640 0000 00       	 .space 1
 3641              	 .section .bss.keypadEvokedBy,"aw",%nobits
 3642              	 .set .LANCHOR1,.+0
 3645              	keypadEvokedBy:
 3646 0000 00       	 .space 1
 3647              	 .section .rodata.EVE_cmd_dl__fptr_arr,"a",%progbits
 3648              	 .align 2
 3649              	 .set .LANCHOR11,.+0
 3652              	EVE_cmd_dl__fptr_arr:
 3653 0000 00000000 	 .word EVE_cmd_dl
 3654 0004 00000000 	 .word EVE_cmd_dl_burst
 3655              	 .section .bss.TFT_UpperBond,"aw",%nobits
 3656              	 .align 1
 3657              	 .set .LANCHOR9,.+0
 3660              	TFT_UpperBond:
 3661 0000 0000     	 .space 2
 3662              	 .section .bss.keypadShiftActive,"aw",%nobits
 3663              	 .set .LANCHOR30,.+0
 3666              	keypadShiftActive:
 3667 0000 00       	 .space 1
 3668              	 .section .rodata.str1.1,"aMS",%progbits,1
 3669              	.LC0:
 3670 0000 252E316C 	 .ascii "%.1lf\000"
 3670      6600
 3671              	.LC1:
 3672 0006 506C6561 	 .ascii "Please tap on the dot.\000"
 3672      73652074 
 3672      6170206F 
 3672      6E207468 
 3672      6520646F 
 3673              	.LC2:
 3674 001d 544F5543 	 .ascii "TOUCH_TRANSFORM_A:\000"
 3674      485F5452 
 3674      414E5346 
 3674      4F524D5F 
 3674      413A00
 3675              	.LC3:
 3676 0030 544F5543 	 .ascii "TOUCH_TRANSFORM_B:\000"
 3676      485F5452 
 3676      414E5346 
 3676      4F524D5F 
 3676      423A00
 3677              	.LC4:
 3678 0043 544F5543 	 .ascii "TOUCH_TRANSFORM_C:\000"
 3678      485F5452 
 3678      414E5346 
 3678      4F524D5F 
 3678      433A00
 3679              	.LC5:
 3680 0056 544F5543 	 .ascii "TOUCH_TRANSFORM_D:\000"
 3680      485F5452 
 3680      414E5346 
 3680      4F524D5F 
 3680      443A00
 3681              	.LC6:
 3682 0069 544F5543 	 .ascii "TOUCH_TRANSFORM_E:\000"
 3682      485F5452 
 3682      414E5346 
 3682      4F524D5F 
 3682      453A00
 3683              	.LC7:
 3684 007c 544F5543 	 .ascii "TOUCH_TRANSFORM_F:\000"
 3684      485F5452 
 3684      414E5346 
 3684      4F524D5F 
 3684      463A00
 3685              	.LC8:
 3686 008f 31323334 	 .ascii "1234567890\000"
 3686      35363738 
 3686      393000
 3687              	.LC9:
 3688 009a 71776572 	 .ascii "qwertyuiop\000"
 3688      74797569 
 3688      6F7000
 3689              	.LC10:
 3690 00a5 61736466 	 .ascii "asdfghjkl\000"
 3690      67686A6B 
 3690      6C00
 3691              	.LC11:
 3692 00af 7A786376 	 .ascii "zxcvbnm._\000"
 3692      626E6D2E 
 3692      5F00
 3693              	.LC12:
 3694 00b9 51574552 	 .ascii "QWERTYUIOP\000"
 3694      54595549 
 3694      4F5000
 3695              	.LC13:
 3696 00c4 41534446 	 .ascii "ASDFGHJKL\000"
 3696      47484A4B 
 3696      4C00
 3697              	.LC14:
 3698 00ce 5A584356 	 .ascii "ZXCVBNM#-\000"
 3698      424E4D23 
 3698      2D00
 3699              	.LC15:
 3700 00d8 37383900 	 .ascii "789\000"
 3701              	.LC16:
 3702 00dc 34353600 	 .ascii "456\000"
 3703              	.LC17:
 3704 00e0 31323300 	 .ascii "123\000"
 3705              	.LC18:
 3706 00e4 3000     	 .ascii "0\000"
 3707              	.LC19:
 3708 00e6 2E00     	 .ascii ".\000"
 3709              	.LC20:
 3710 00e8 21222526 	 .ascii "!\"%&/()=?\\\000"
 3710      2F28293D 
 3710      3F5C00
 3711              	.LC21:
 3712 00f3 5A584356 	 .ascii "ZXCVBNM:-\000"
 3712      424E4D3A 
 3712      2D00
 3713              	.LC22:
 3714 00fd 3C3E00   	 .ascii "<>\000"
 3715              	.LC23:
 3716 0100 2000     	 .ascii " \000"
 3717              	.LC24:
 3718 0102 5E00     	 .ascii "^\000"
 3719              	.LC25:
 3720 0104 4F4B00   	 .ascii "OK\000"
 3721              	 .section .rodata.EVE_cmd_number__fptr_arr,"a",%progbits
 3722              	 .align 2
 3723              	 .set .LANCHOR18,.+0
 3726              	EVE_cmd_number__fptr_arr:
 3727 0000 00000000 	 .word EVE_cmd_number
 3728 0004 00000000 	 .word EVE_cmd_number_burst
 3729              	 .section .bss.swipeEndOfTouch_Debounce,"aw",%nobits
 3730              	 .set .LANCHOR27,.+0
 3733              	swipeEndOfTouch_Debounce:
 3734 0000 00       	 .space 1
 3735              	 .ident "GCC: (GNU Tools for ARM Embedded Processors) 4.9.3 20141119 (release) [ARM/embedded-4_9-branch revision 218278]"
DEFINED SYMBOLS
                            *ABS*:00000000 tft.c
    {standard input}:17     .text.keypad_open:00000000 $t
    {standard input}:22     .text.keypad_open:00000000 keypad_open
    {standard input}:42     .text.keypad_open:00000018 $d
    {standard input}:48     .text.keypad_close:00000000 $t
    {standard input}:53     .text.keypad_close:00000000 keypad_close
    {standard input}:70     .text.keypad_close:00000014 $d
    {standard input}:76     .text.str_insert:00000000 $t
    {standard input}:81     .text.str_insert:00000000 str_insert
    {standard input}:109    .text.str_insert:00000038 $d
    {standard input}:112    .text.TFT_setMenu:00000000 $t
    {standard input}:117    .text.TFT_setMenu:00000000 TFT_setMenu
    {standard input}:147    .text.TFT_setMenu:00000038 $d
    {standard input}:155    .text.TFT_setColor:00000000 $t
    {standard input}:160    .text.TFT_setColor:00000000 TFT_setColor
    {standard input}:213    .text.TFT_header:00000000 $t
    {standard input}:218    .text.TFT_header:00000000 TFT_header
    {standard input}:311    .text.TFT_header:000000f4 $d
    {standard input}:323    .text.TFT_label:00000000 $t
    {standard input}:328    .text.TFT_label:00000000 TFT_label
    {standard input}:489    .text.TFT_label:000001a8 $d
    {standard input}:497    .text.TFT_control:00000000 $t
    {standard input}:502    .text.TFT_control:00000000 TFT_control
    {standard input}:568    .text.TFT_control:0000008c $d
    {standard input}:572    .text.TFT_textbox_static:00000000 $t
    {standard input}:577    .text.TFT_textbox_static:00000000 TFT_textbox_static
    {standard input}:674    .text.TFT_textbox_static:000000e8 $d
    {standard input}:683    .text.TFT_textbox_display:00000000 $t
    {standard input}:688    .text.TFT_textbox_display:00000000 TFT_textbox_display
    {standard input}:905    .text.TFT_textbox_display:00000224 $d
    {standard input}:916    .text.TFT_textbox_setStatus:00000000 $t
    {standard input}:921    .text.TFT_textbox_setStatus:00000000 TFT_textbox_setStatus
    {standard input}:1160   .text.TFT_textbox_setStatus:00000250 $d
    {standard input}:1165   .text.TFT_textbox_touch:00000000 $t
    {standard input}:1170   .text.TFT_textbox_touch:00000000 TFT_textbox_touch
    {standard input}:1266   .text.TFT_textbox_touch:000000b8 $d
    {standard input}:1273   .text.TFT_graph_static:00000000 $t
    {standard input}:1278   .text.TFT_graph_static:00000000 TFT_graph_static
    {standard input}:1552   .text.TFT_graph_static:000002d0 $d
    {standard input}:1562   .text.TFT_graph_static:000002f4 $t
    {standard input}:1709   .text.TFT_graph_static:00000480 $d
    {standard input}:1714   .text.TFT_graph_pixeldata_i:00000000 $t
    {standard input}:1719   .text.TFT_graph_pixeldata_i:00000000 TFT_graph_pixeldata_i
    {standard input}:1856   .text.TFT_graph_pixeldata_i:00000184 $d
    {standard input}:1861   .text.TFT_graph_pixeldata_f:00000000 $t
    {standard input}:1866   .text.TFT_graph_pixeldata_f:00000000 TFT_graph_pixeldata_f
    {standard input}:2000   .text.TFT_graph_pixeldata_f:00000174 $d
    {standard input}:2005   .text.TFT_graph_stepdata:00000000 $t
    {standard input}:2010   .text.TFT_graph_stepdata:00000000 TFT_graph_stepdata
    {standard input}:2081   .text.TFT_graph_stepdata:000000cc $d
    {standard input}:2085   .text.TFT_graph_XYdata:00000000 $t
    {standard input}:2090   .text.TFT_graph_XYdata:00000000 TFT_graph_XYdata
    {standard input}:2292   .text.TFT_graph_XYdata:00000218 $d
    {standard input}:2301   .text.TFT_graph_function:00000000 $t
    {standard input}:2306   .text.TFT_graph_function:00000000 TFT_graph_function
    {standard input}:2448   .text.TFT_graph_function:00000180 $d
    {standard input}:2456   .text.touch_calibrate:00000000 $t
    {standard input}:2461   .text.touch_calibrate:00000000 touch_calibrate
    {standard input}:2625   .text.touch_calibrate:000001c0 $d
    {standard input}:2643   .text.TFT_init:00000000 $t
    {standard input}:2648   .text.TFT_init:00000000 TFT_init
    {standard input}:2686   .text.TFT_init:00000064 $d
    {standard input}:2692   .text.TFT_display_init_screen:00000000 $t
    {standard input}:2697   .text.TFT_display_init_screen:00000000 TFT_display_init_screen
    {standard input}:2739   .text.TFT_display_init_screen:00000070 $d
    {standard input}:2746   .text.TFT_display_static:00000000 $t
    {standard input}:2751   .text.TFT_display_static:00000000 TFT_display_static
    {standard input}:2809   .text.TFT_display_static:00000094 $d
                            *COM*:00000010 TFT_display_static_cur_Menu__fptr_arr
    {standard input}:2824   .text.TFT_touch:00000000 $t
    {standard input}:2829   .text.TFT_touch:00000000 TFT_touch
    {standard input}:3042   .text.TFT_touch:00000198 $d
                            *COM*:00000010 TFT_touch_cur_Menu__fptr_arr
    {standard input}:3063   .text.TFT_display:00000000 $t
    {standard input}:3068   .text.TFT_display:00000000 TFT_display
    {standard input}:3270   .text.TFT_display:000001e8 $d
                            *COM*:00000010 TFT_display_cur_Menu__fptr_arr
    {standard input}:3300   .text.TFT_display:0000025c $t
    {standard input}:3433   .text.TFT_display:0000038c $d
    {standard input}:3596   .bss.textbox_cursor_pos:00000000 textbox_cursor_pos
    {standard input}:3479   .bss.swipeDistance_Y:00000000 swipeDistance_Y
    {standard input}:3521   .bss.swipeDistance_X:00000000 swipeDistance_X
                            *COM*:00000001 ReadData
                            *COM*:00000001 frameover
                            *COM*:00000001 InputType
                            *COM*:00000002 InputBuffer1_idx
                            *COM*:00000004 MeasurementCounter
                            *COM*:00000001 tft_tick
                            *COM*:00000004 _msCounter
    {standard input}:3465   .bss.keypadEndOfKeypress_Debounce:00000000 keypadEndOfKeypress_Debounce
    {standard input}:3466   .bss.keypadEndOfKeypress_Debounce:00000000 $d
    {standard input}:3468   .bss.num_dl_static:00000000 $d
    {standard input}:3472   .bss.num_dl_static:00000000 num_dl_static
    {standard input}:3475   .bss.swipeDistance_Y:00000000 $d
    {standard input}:3485   .bss.keypadKeypressFinished:00000000 keypadKeypressFinished
    {standard input}:3486   .bss.keypadKeypressFinished:00000000 $d
    {standard input}:3488   .rodata.EVE_cmd_text_var__fptr_arr:00000000 $d
    {standard input}:3492   .rodata.EVE_cmd_text_var__fptr_arr:00000000 EVE_cmd_text_var__fptr_arr
    {standard input}:3499   .bss.keypadCurrentKey:00000000 keypadCurrentKey
    {standard input}:3500   .bss.keypadCurrentKey:00000000 $d
    {standard input}:3502   .rodata.EVE_cmd_text__fptr_arr:00000000 $d
    {standard input}:3506   .rodata.EVE_cmd_text__fptr_arr:00000000 EVE_cmd_text__fptr_arr
    {standard input}:3510   .bss.TFT_last_ScrollV:00000000 $d
    {standard input}:3514   .bss.TFT_last_ScrollV:00000000 TFT_last_ScrollV
    {standard input}:3517   .bss.swipeDistance_X:00000000 $d
    {standard input}:3524   .data.swipeInitialTouch_Y:00000000 $d
    {standard input}:3528   .data.swipeInitialTouch_Y:00000000 swipeInitialTouch_Y
    {standard input}:3534   .bss.tft_active:00000000 tft_active
    {standard input}:3535   .bss.tft_active:00000000 $d
    {standard input}:3540   .bss.toggle_lock:00000000 toggle_lock
    {standard input}:3541   .bss.toggle_lock:00000000 $d
    {standard input}:3543   .data.swipeInitialTouch_X:00000000 $d
    {standard input}:3547   .data.swipeInitialTouch_X:00000000 swipeInitialTouch_X
    {standard input}:3553   .bss.keypadActive:00000000 keypadActive
    {standard input}:3554   .bss.keypadActive:00000000 $d
    {standard input}:3559   .bss.TFT_refresh_static:00000000 TFT_refresh_static
    {standard input}:3560   .bss.TFT_refresh_static:00000000 $d
    {standard input}:3565   .bss.keypadInitialLock:00000000 keypadInitialLock
    {standard input}:3566   .bss.keypadInitialLock:00000000 $d
    {standard input}:3571   .bss.TFT_cur_MenuIdx:00000000 TFT_cur_MenuIdx
    {standard input}:3572   .bss.TFT_cur_MenuIdx:00000000 $d
    {standard input}:3577   .bss.keypadType:00000000 keypadType
    {standard input}:3578   .bss.keypadType:00000000 $d
    {standard input}:3580   .bss.TFT_cur_ScrollV:00000000 $d
    {standard input}:3584   .bss.TFT_cur_ScrollV:00000000 TFT_cur_ScrollV
    {standard input}:3590   .data.cursor.14310:00000000 cursor.14310
    {standard input}:3597   .bss.textbox_cursor_pos:00000000 $d
    {standard input}:3602   .data.TFT_last_MenuIdx:00000000 TFT_last_MenuIdx
    {standard input}:3605   .bss.lastBlink.14311:00000000 $d
    {standard input}:3609   .bss.lastBlink.14311:00000000 lastBlink.14311
    {standard input}:3615   .bss.swipeDetect:00000000 swipeDetect
    {standard input}:3616   .bss.swipeDetect:00000000 $d
    {standard input}:3621   .bss.swipeInProgress:00000000 swipeInProgress
    {standard input}:3622   .bss.swipeInProgress:00000000 $d
    {standard input}:3627   .rodata.backspace_char:00000000 backspace_char
    {standard input}:3633   .bss.str_buf:00000000 str_buf
    {standard input}:3634   .bss.str_buf:00000000 $d
    {standard input}:3639   .bss.swipeEvokedBy:00000000 swipeEvokedBy
    {standard input}:3640   .bss.swipeEvokedBy:00000000 $d
    {standard input}:3645   .bss.keypadEvokedBy:00000000 keypadEvokedBy
    {standard input}:3646   .bss.keypadEvokedBy:00000000 $d
    {standard input}:3648   .rodata.EVE_cmd_dl__fptr_arr:00000000 $d
    {standard input}:3652   .rodata.EVE_cmd_dl__fptr_arr:00000000 EVE_cmd_dl__fptr_arr
    {standard input}:3656   .bss.TFT_UpperBond:00000000 $d
    {standard input}:3660   .bss.TFT_UpperBond:00000000 TFT_UpperBond
    {standard input}:3666   .bss.keypadShiftActive:00000000 keypadShiftActive
    {standard input}:3667   .bss.keypadShiftActive:00000000 $d
    {standard input}:3722   .rodata.EVE_cmd_number__fptr_arr:00000000 $d
    {standard input}:3726   .rodata.EVE_cmd_number__fptr_arr:00000000 EVE_cmd_number__fptr_arr
    {standard input}:3733   .bss.swipeEndOfTouch_Debounce:00000000 swipeEndOfTouch_Debounce
    {standard input}:3734   .bss.swipeEndOfTouch_Debounce:00000000 $d

UNDEFINED SYMBOLS
strncpy
strcpy
Menu_Objects
EVE_cmd_dl_burst
EVE_cmd_fgcolor_burst
EVE_cmd_bgcolor_burst
EVE_cmd_gradcolor_burst
EVE_cmd_dl
EVE_cmd_fgcolor
EVE_cmd_bgcolor
EVE_cmd_gradcolor
__aeabi_f2d
__aeabi_dadd
__aeabi_d2iz
__aeabi_dsub
modff
pow10f
EVE_cmd_toggle_burst
EVE_cmd_button_burst
SYSTIMER_GetTime
EVE_cmd_text_var_burst
EVE_cmd_text_burst
sprintf
strlen
atoff
floor
ceil
poly_calc
EVE_memWrite32
EVE_cmd_text
EVE_cmd_calibrate
EVE_cmd_execute
EVE_memRead32
EVE_cmd_setbase
EVE_cmd_number
EVE_init
EVE_memWrite8
EVE_start_cmd_burst
EVE_end_cmd_burst
EVE_cmd_inflate
EVE_cmd_setbitmap_burst
logo_init
EVE_busy
EVE_memRead16
EVE_cmd_memcpy
EVE_memRead8
TFT_display_get_values
EVE_cmd_append_burst
EVE_cmd_keys_burst
EVE_cmd_text_var
EVE_cmd_number_burst
