   1              	 .syntax unified
   2              	 .cpu cortex-m4
   3              	 .eabi_attribute 27,3
   4              	 .fpu fpv4-sp-d16
   5              	 .eabi_attribute 20,1
   6              	 .eabi_attribute 21,1
   7              	 .eabi_attribute 23,3
   8              	 .eabi_attribute 24,1
   9              	 .eabi_attribute 25,1
  10              	 .eabi_attribute 26,1
  11              	 .eabi_attribute 30,4
  12              	 .eabi_attribute 34,1
  13              	 .eabi_attribute 18,4
  14              	 .thumb
  15              	 .file "sdmmc_block_private_sd.c"
  16              	 .section .text.SDMMC_BLOCK_SD_TimerCallback,"ax",%progbits
  17              	 .align 1
  18              	 .thumb
  19              	 .thumb_func
  21              	SDMMC_BLOCK_SD_TimerCallback:
  22              	 
  23              	 
  24              	 
  25 0000 18B1     	 cbz r0,.L1
  26 0002 0368     	 ldr r3,[r0]
  27 0004 0022     	 movs r2,#0
  28 0006 83F85C20 	 strb r2,[r3,#92]
  29              	.L1:
  30 000a 7047     	 bx lr
  32              	 .section .text.SDMMC_BLOCK_SD_lStartTimer,"ax",%progbits
  33              	 .align 1
  34              	 .thumb
  35              	 .thumb_func
  37              	SDMMC_BLOCK_SD_lStartTimer:
  38              	 
  39              	 
  40 0000 38B5     	 push {r3,r4,r5,lr}
  41 0002 0368     	 ldr r3,[r0]
  42 0004 0446     	 mov r4,r0
  43 0006 0122     	 movs r2,#1
  44 0008 83F85C20 	 strb r2,[r3,#92]
  45 000c 0846     	 mov r0,r1
  46 000e 0D4A     	 ldr r2,.L12
  47 0010 0021     	 movs r1,#0
  48 0012 2346     	 mov r3,r4
  49 0014 FFF7FEFF 	 bl SYSTIMER_CreateTimer
  50 0018 0128     	 cmp r0,#1
  51 001a 0546     	 mov r5,r0
  52 001c 0CD0     	 beq .L8
  53 001e FFF7FEFF 	 bl SYSTIMER_StartTimer
  54 0022 30B1     	 cbz r0,.L9
  55 0024 2846     	 mov r0,r5
  56 0026 FFF7FEFF 	 bl SYSTIMER_DeleteTimer
  57 002a 2368     	 ldr r3,[r4]
  58 002c 0022     	 movs r2,#0
  59 002e 5A65     	 str r2,[r3,#84]
  60 0030 3120     	 movs r0,#49
  61              	.L9:
  62 0032 2368     	 ldr r3,[r4]
  63 0034 5D65     	 str r5,[r3,#84]
  64 0036 38BD     	 pop {r3,r4,r5,pc}
  65              	.L8:
  66 0038 2368     	 ldr r3,[r4]
  67 003a 0022     	 movs r2,#0
  68 003c 5A65     	 str r2,[r3,#84]
  69 003e 2F20     	 movs r0,#47
  70 0040 38BD     	 pop {r3,r4,r5,pc}
  71              	.L13:
  72 0042 00BF     	 .align 2
  73              	.L12:
  74 0044 00000000 	 .word SDMMC_BLOCK_SD_TimerCallback
  76              	 .section .text.SDMMC_BLOCK_SD_lCardCleanUp,"ax",%progbits
  77              	 .align 1
  78              	 .thumb
  79              	 .thumb_func
  81              	SDMMC_BLOCK_SD_lCardCleanUp:
  82              	 
  83              	 
  84 0000 10B5     	 push {r4,lr}
  85 0002 0446     	 mov r4,r0
  86 0004 0068     	 ldr r0,[r0]
  87 0006 0021     	 movs r1,#0
  88 0008 3022     	 movs r2,#48
  89 000a 2030     	 adds r0,r0,#32
  90 000c FFF7FEFF 	 bl memset
  91 0010 2368     	 ldr r3,[r4]
  92 0012 0022     	 movs r2,#0
  93 0014 6272     	 strb r2,[r4,#9]
  94 0016 83F85020 	 strb r2,[r3,#80]
  95 001a 2168     	 ldr r1,[r4]
  96 001c 0123     	 movs r3,#1
  97 001e 4B76     	 strb r3,[r1,#25]
  98 0020 2168     	 ldr r1,[r4]
  99 0022 0B76     	 strb r3,[r1,#24]
 100 0024 2168     	 ldr r1,[r4]
 101 0026 0B77     	 strb r3,[r1,#28]
 102 0028 2168     	 ldr r1,[r4]
 103 002a 8B76     	 strb r3,[r1,#26]
 104 002c 2368     	 ldr r3,[r4]
 105 002e 2272     	 strb r2,[r4,#8]
 106 0030 1A68     	 ldr r2,[r3]
 107 0032 938D     	 ldrh r3,[r2,#44]
 108 0034 23F00403 	 bic r3,r3,#4
 109 0038 1B04     	 lsls r3,r3,#16
 110 003a 1B0C     	 lsrs r3,r3,#16
 111 003c 9385     	 strh r3,[r2,#44]
 112 003e 10BD     	 pop {r4,pc}
 114              	 .section .text.SDMMC_BLOCK_SD_lStopTimer.isra.2,"ax",%progbits
 115              	 .align 1
 116              	 .thumb
 117              	 .thumb_func
 119              	SDMMC_BLOCK_SD_lStopTimer.isra.2:
 120              	 
 121              	 
 122 0000 38B5     	 push {r3,r4,r5,lr}
 123 0002 0368     	 ldr r3,[r0]
 124 0004 5D6D     	 ldr r5,[r3,#84]
 125 0006 0446     	 mov r4,r0
 126 0008 2846     	 mov r0,r5
 127 000a FFF7FEFF 	 bl SYSTIMER_StopTimer
 128 000e 30B1     	 cbz r0,.L16
 129 0010 2846     	 mov r0,r5
 130 0012 FFF7FEFF 	 bl SYSTIMER_DeleteTimer
 131 0016 2368     	 ldr r3,[r4]
 132 0018 0022     	 movs r2,#0
 133 001a 5A65     	 str r2,[r3,#84]
 134 001c 3220     	 movs r0,#50
 135              	.L16:
 136 001e 38BD     	 pop {r3,r4,r5,pc}
 138              	 .section .text.SDMMC_BLOCK_SD_lReset,"ax",%progbits
 139              	 .align 1
 140              	 .thumb
 141              	 .thumb_func
 143              	SDMMC_BLOCK_SD_lReset:
 144              	 
 145              	 
 146 0000 70B5     	 push {r4,r5,r6,lr}
 147 0002 0368     	 ldr r3,[r0]
 148 0004 1A68     	 ldr r2,[r3]
 149 0006 92F82F30 	 ldrb r3,[r2,#47]
 150 000a 0B43     	 orrs r3,r3,r1
 151 000c DBB2     	 uxtb r3,r3
 152 000e 0546     	 mov r5,r0
 153 0010 82F82F30 	 strb r3,[r2,#47]
 154 0014 0E46     	 mov r6,r1
 155 0016 0C49     	 ldr r1,.L28
 156 0018 FFF7FEFF 	 bl SDMMC_BLOCK_SD_lStartTimer
 157 001c 2B68     	 ldr r3,[r5]
 158 001e 5C6D     	 ldr r4,[r3,#84]
 159 0020 84B1     	 cbz r4,.L21
 160              	.L26:
 161 0022 93F85C20 	 ldrb r2,[r3,#92]
 162 0026 2AB1     	 cbz r2,.L25
 163 0028 1A68     	 ldr r2,[r3]
 164 002a 92F82F40 	 ldrb r4,[r2,#47]
 165 002e 3440     	 ands r4,r6,r4
 166 0030 F7D1     	 bne .L26
 167 0032 00E0     	 b .L22
 168              	.L25:
 169 0034 2E24     	 movs r4,#46
 170              	.L22:
 171 0036 2846     	 mov r0,r5
 172 0038 FFF7FEFF 	 bl SDMMC_BLOCK_SD_lStopTimer.isra.2
 173 003c 2B68     	 ldr r3,[r5]
 174 003e 586D     	 ldr r0,[r3,#84]
 175 0040 FFF7FEFF 	 bl SYSTIMER_DeleteTimer
 176              	.L21:
 177 0044 2046     	 mov r0,r4
 178 0046 70BD     	 pop {r4,r5,r6,pc}
 179              	.L29:
 180              	 .align 2
 181              	.L28:
 182 0048 20A10700 	 .word 500000
 184              	 .section .text.SDMMC_BLOCK_SD_lTransferDelay.constprop.11,"ax",%progbits
 185              	 .align 1
 186              	 .thumb
 187              	 .thumb_func
 189              	SDMMC_BLOCK_SD_lTransferDelay.constprop.11:
 190              	 
 191              	 
 192 0000 38B5     	 push {r3,r4,r5,lr}
 193 0002 0368     	 ldr r3,[r0]
 194 0004 1249     	 ldr r1,.L43
 195 0006 0122     	 movs r2,#1
 196 0008 0446     	 mov r4,r0
 197 000a 83F85C20 	 strb r2,[r3,#92]
 198 000e FFF7FEFF 	 bl SDMMC_BLOCK_SD_lStartTimer
 199 0012 2368     	 ldr r3,[r4]
 200 0014 5A6D     	 ldr r2,[r3,#84]
 201 0016 92B1     	 cbz r2,.L35
 202              	.L40:
 203 0018 93F85C20 	 ldrb r2,[r3,#92]
 204 001c 22B1     	 cbz r2,.L36
 205 001e 1A7A     	 ldrb r2,[r3,#8]
 206 0020 002A     	 cmp r2,#0
 207 0022 F9D0     	 beq .L40
 208 0024 0025     	 movs r5,#0
 209 0026 00E0     	 b .L32
 210              	.L36:
 211 0028 2E25     	 movs r5,#46
 212              	.L32:
 213 002a 0022     	 movs r2,#0
 214 002c 1A72     	 strb r2,[r3,#8]
 215 002e 2046     	 mov r0,r4
 216 0030 FFF7FEFF 	 bl SDMMC_BLOCK_SD_lStopTimer.isra.2
 217 0034 2368     	 ldr r3,[r4]
 218 0036 586D     	 ldr r0,[r3,#84]
 219 0038 FFF7FEFF 	 bl SYSTIMER_DeleteTimer
 220 003c 00E0     	 b .L31
 221              	.L35:
 222 003e 3125     	 movs r5,#49
 223              	.L31:
 224 0040 2368     	 ldr r3,[r4]
 225 0042 9A7E     	 ldrb r2,[r3,#26]
 226 0044 1F2A     	 cmp r2,#31
 227 0046 18BF     	 it ne
 228 0048 1D7E     	 ldrbne r5,[r3,#24]
 229 004a 2846     	 mov r0,r5
 230 004c 38BD     	 pop {r3,r4,r5,pc}
 231              	.L44:
 232 004e 00BF     	 .align 2
 233              	.L43:
 234 0050 40420F00 	 .word 1000000
 236              	 .section .text.SDMMC_BLOCK_SD_lCheckErrorInResponse,"ax",%progbits
 237              	 .align 1
 238              	 .thumb
 239              	 .thumb_func
 241              	SDMMC_BLOCK_SD_lCheckErrorInResponse:
 242              	 
 243              	 
 244              	 
 245 0000 0368     	 ldr r3,[r0]
 246 0002 5A00     	 lsls r2,r3,#1
 247 0004 54BF     	 ite pl
 248 0006 D80F     	 lsrpl r0,r3,#31
 249 0008 0120     	 movmi r0,#1
 250 000a 13F0005F 	 tst r3,#536870912
 251 000e 18BF     	 it ne
 252 0010 0120     	 movne r0,#1
 253 0012 13F0806F 	 tst r3,#67108864
 254 0016 18BF     	 it ne
 255 0018 0120     	 movne r0,#1
 256 001a 13F0805F 	 tst r3,#268435456
 257 001e 18BF     	 it ne
 258 0020 0120     	 movne r0,#1
 259 0022 13F0006F 	 tst r3,#134217728
 260 0026 18BF     	 it ne
 261 0028 0120     	 movne r0,#1
 262 002a 13F4004F 	 tst r3,#32768
 263 002e 18BF     	 it ne
 264 0030 0120     	 movne r0,#1
 265 0032 13F4001F 	 tst r3,#2097152
 266 0036 18BF     	 it ne
 267 0038 0120     	 movne r0,#1
 268 003a 13F4801F 	 tst r3,#1048576
 269 003e 18BF     	 it ne
 270 0040 0120     	 movne r0,#1
 271 0042 13F4002F 	 tst r3,#524288
 272 0046 18BF     	 it ne
 273 0048 0120     	 movne r0,#1
 274 004a 13F0807F 	 tst r3,#16777216
 275 004e 18BF     	 it ne
 276 0050 0120     	 movne r0,#1
 277 0052 13F4803F 	 tst r3,#65536
 278 0056 18BF     	 it ne
 279 0058 0120     	 movne r0,#1
 280 005a 13F0080F 	 tst r3,#8
 281 005e 18BF     	 it ne
 282 0060 0120     	 movne r0,#1
 283 0062 7047     	 bx lr
 285              	 .section .text.SDMMC_BLOCK_SD_lErrorInterruptRecovery,"ax",%progbits
 286              	 .align 1
 287              	 .thumb
 288              	 .thumb_func
 290              	SDMMC_BLOCK_SD_lErrorInterruptRecovery:
 291              	 
 292              	 
 293 0000 70B5     	 push {r4,r5,r6,lr}
 294 0002 0368     	 ldr r3,[r0]
 295 0004 4049     	 ldr r1,.L117
 296 0006 0446     	 mov r4,r0
 297 0008 1868     	 ldr r0,[r3]
 298 000a FFF7FEFF 	 bl XMC_SDMMC_DisableEvent
 299 000e 2368     	 ldr r3,[r4]
 300 0010 9A88     	 ldrh r2,[r3,#4]
 301 0012 1107     	 lsls r1,r2,#28
 302 0014 03D1     	 bne .L81
 303 0016 1B68     	 ldr r3,[r3]
 304 0018 5B6A     	 ldr r3,[r3,#36]
 305 001a DA07     	 lsls r2,r3,#31
 306 001c 05D5     	 bpl .L92
 307              	.L81:
 308 001e 2046     	 mov r0,r4
 309 0020 0221     	 movs r1,#2
 310 0022 FFF7FEFF 	 bl SDMMC_BLOCK_SD_lReset
 311 0026 0546     	 mov r5,r0
 312 0028 00E0     	 b .L82
 313              	.L92:
 314 002a 2525     	 movs r5,#37
 315              	.L82:
 316 002c 2268     	 ldr r2,[r4]
 317 002e 9388     	 ldrh r3,[r2,#4]
 318 0030 03F07003 	 and r3,r3,#112
 319 0034 1BB9     	 cbnz r3,.L83
 320 0036 1368     	 ldr r3,[r2]
 321 0038 5B6A     	 ldr r3,[r3,#36]
 322 003a 9B07     	 lsls r3,r3,#30
 323 003c 04D5     	 bpl .L84
 324              	.L83:
 325 003e 2046     	 mov r0,r4
 326 0040 0421     	 movs r1,#4
 327 0042 FFF7FEFF 	 bl SDMMC_BLOCK_SD_lReset
 328 0046 0546     	 mov r5,r0
 329              	.L84:
 330 0048 2368     	 ldr r3,[r4]
 331 004a 3049     	 ldr r1,.L117+4
 332 004c 1868     	 ldr r0,[r3]
 333 004e FFF7FEFF 	 bl XMC_SDMMC_ClearEvent
 334 0052 2368     	 ldr r3,[r4]
 335 0054 93F85160 	 ldrb r6,[r3,#81]
 336 0058 012E     	 cmp r6,#1
 337 005a 40D1     	 bne .L116
 338 005c 1868     	 ldr r0,[r3]
 339 005e 2C49     	 ldr r1,.L117+8
 340 0060 0022     	 movs r2,#0
 341 0062 FFF7FEFF 	 bl XMC_SDMMC_SendCommand
 342 0066 2368     	 ldr r3,[r4]
 343 0068 2A49     	 ldr r1,.L117+12
 344 006a 83F85C60 	 strb r6,[r3,#92]
 345 006e 2046     	 mov r0,r4
 346 0070 FFF7FEFF 	 bl SDMMC_BLOCK_SD_lStartTimer
 347 0074 0546     	 mov r5,r0
 348 0076 90B1     	 cbz r0,.L86
 349              	.L106:
 350 0078 2368     	 ldr r3,[r4]
 351 007a 93F85C20 	 ldrb r2,[r3,#92]
 352 007e 6AB1     	 cbz r2,.L93
 353 0080 9A79     	 ldrb r2,[r3,#6]
 354 0082 012A     	 cmp r2,#1
 355 0084 0BD0     	 beq .L86
 356 0086 DA79     	 ldrb r2,[r3,#7]
 357 0088 012A     	 cmp r2,#1
 358 008a 08D0     	 beq .L86
 359 008c 1868     	 ldr r0,[r3]
 360 008e 4FF40041 	 mov r1,#32768
 361 0092 FFF7FEFF 	 bl XMC_SDMMC_GetEvent
 362 0096 0028     	 cmp r0,#0
 363 0098 EED1     	 bne .L106
 364 009a 00E0     	 b .L86
 365              	.L93:
 366 009c 2E25     	 movs r5,#46
 367              	.L86:
 368 009e 2046     	 mov r0,r4
 369 00a0 FFF7FEFF 	 bl SDMMC_BLOCK_SD_lStopTimer.isra.2
 370 00a4 2368     	 ldr r3,[r4]
 371 00a6 586D     	 ldr r0,[r3,#84]
 372 00a8 FFF7FEFF 	 bl SYSTIMER_DeleteTimer
 373 00ac 2268     	 ldr r2,[r4]
 374 00ae 0023     	 movs r3,#0
 375 00b0 9371     	 strb r3,[r2,#6]
 376 00b2 2268     	 ldr r2,[r4]
 377 00b4 D371     	 strb r3,[r2,#7]
 378 00b6 8DB9     	 cbnz r5,.L88
 379 00b8 2368     	 ldr r3,[r4]
 380 00ba 1868     	 ldr r0,[r3]
 381 00bc 438E     	 ldrh r3,[r0,#50]
 382 00be 9BB2     	 uxth r3,r3
 383 00c0 63B1     	 cbz r3,.L88
 384 00c2 2946     	 mov r1,r5
 385 00c4 FFF7FEFF 	 bl XMC_SDMMC_ClearEvent
 386 00c8 2368     	 ldr r3,[r4]
 387 00ca 1049     	 ldr r1,.L117+4
 388 00cc 1868     	 ldr r0,[r3]
 389 00ce FFF7FEFF 	 bl XMC_SDMMC_ClearEvent
 390 00d2 2046     	 mov r0,r4
 391 00d4 0621     	 movs r1,#6
 392 00d6 FFF7FEFF 	 bl SDMMC_BLOCK_SD_lReset
 393 00da 2525     	 movs r5,#37
 394              	.L88:
 395 00dc 2368     	 ldr r3,[r4]
 396              	.L116:
 397 00de 1A68     	 ldr r2,[r3]
 398 00e0 538E     	 ldrh r3,[r2,#50]
 399 00e2 9BB2     	 uxth r3,r3
 400 00e4 33B9     	 cbnz r3,.L89
 401 00e6 536A     	 ldr r3,[r2,#36]
 402 00e8 C3F30353 	 ubfx r3,r3,#20,#4
 403 00ec 0F2B     	 cmp r3,#15
 404 00ee 0CBF     	 ite eq
 405 00f0 2425     	 moveq r5,#36
 406 00f2 2525     	 movne r5,#37
 407              	.L89:
 408 00f4 2368     	 ldr r3,[r4]
 409 00f6 0849     	 ldr r1,.L117+16
 410 00f8 1868     	 ldr r0,[r3]
 411 00fa FFF7FEFF 	 bl XMC_SDMMC_EnableEvent
 412 00fe 2368     	 ldr r3,[r4]
 413 0100 2846     	 mov r0,r5
 414 0102 1D77     	 strb r5,[r3,#28]
 415 0104 70BD     	 pop {r4,r5,r6,pc}
 416              	.L118:
 417 0106 00BF     	 .align 2
 418              	.L117:
 419 0108 0000FF10 	 .word 285147136
 420 010c 0080FF00 	 .word 16744448
 421 0110 12000000 	 .word .LANCHOR0+18
 422 0114 40420F00 	 .word 1000000
 423 0118 0080FF10 	 .word 285179904
 425              	 .section .text.SDMMC_BLOCK_SD_lSendCommand,"ax",%progbits
 426              	 .align 1
 427              	 .thumb
 428              	 .thumb_func
 430              	SDMMC_BLOCK_SD_lSendCommand:
 431              	 
 432              	 
 433 0000 2DE9F743 	 push {r0,r1,r2,r4,r5,r6,r7,r8,r9,lr}
 434 0004 9846     	 mov r8,r3
 435 0006 0368     	 ldr r3,[r0]
 436 0008 0A9F     	 ldr r7,[sp,#40]
 437 000a 9146     	 mov r9,r2
 438 000c 0022     	 movs r2,#0
 439 000e 83F85120 	 strb r2,[r3,#81]
 440 0012 0268     	 ldr r2,[r0]
 441 0014 0123     	 movs r3,#1
 442 0016 5376     	 strb r3,[r2,#25]
 443 0018 0268     	 ldr r2,[r0]
 444 001a 0546     	 mov r5,r0
 445 001c 1376     	 strb r3,[r2,#24]
 446 001e 0E46     	 mov r6,r1
 447 0020 6E49     	 ldr r1,.L184
 448 0022 FFF7FEFF 	 bl SDMMC_BLOCK_SD_lStartTimer
 449 0026 2B68     	 ldr r3,[r5]
 450 0028 5A6D     	 ldr r2,[r3,#84]
 451 002a 0446     	 mov r4,r0
 452 002c 92B1     	 cbz r2,.L120
 453              	.L122:
 454 002e 93F85C20 	 ldrb r2,[r3,#92]
 455 0032 3AB1     	 cbz r2,.L149
 456 0034 1A68     	 ldr r2,[r3]
 457 0036 516A     	 ldr r1,[r2,#36]
 458 0038 8907     	 lsls r1,r1,#30
 459 003a F8D4     	 bmi .L122
 460 003c 526A     	 ldr r2,[r2,#36]
 461 003e D207     	 lsls r2,r2,#31
 462 0040 F5D4     	 bmi .L122
 463 0042 00E0     	 b .L121
 464              	.L149:
 465 0044 2E24     	 movs r4,#46
 466              	.L121:
 467 0046 2846     	 mov r0,r5
 468 0048 FFF7FEFF 	 bl SDMMC_BLOCK_SD_lStopTimer.isra.2
 469 004c 2B68     	 ldr r3,[r5]
 470 004e 586D     	 ldr r0,[r3,#84]
 471 0050 FFF7FEFF 	 bl SYSTIMER_DeleteTimer
 472              	.L120:
 473 0054 2A68     	 ldr r2,[r5]
 474 0056 1068     	 ldr r0,[r2]
 475 0058 436A     	 ldr r3,[r0,#36]
 476 005a DB07     	 lsls r3,r3,#31
 477 005c 1ED4     	 bmi .L124
 478 005e 3378     	 ldrb r3,[r6]
 479 0060 03F02001 	 and r1,r3,#32
 480 0064 01F0FF04 	 and r4,r1,#255
 481 0068 49B9     	 cbnz r1,.L125
 482 006a 7178     	 ldrb r1,[r6,#1]
 483 006c 01F03F01 	 and r1,r1,#63
 484 0070 0D29     	 cmp r1,#13
 485 0072 04D0     	 beq .L125
 486 0074 03F00301 	 and r1,r3,#3
 487 0078 0329     	 cmp r1,#3
 488 007a 40F0A480 	 bne .L126
 489              	.L125:
 490 007e 416A     	 ldr r1,[r0,#36]
 491 0080 8907     	 lsls r1,r1,#30
 492 0082 0AD4     	 bmi .L150
 493 0084 24B9     	 cbnz r4,.L127
 494 0086 03F00303 	 and r3,r3,#3
 495 008a 032B     	 cmp r3,#3
 496 008c 40F09B80 	 bne .L126
 497              	.L127:
 498 0090 2B7A     	 ldrb r3,[r5,#8]
 499 0092 43F02003 	 orr r3,r3,#32
 500 0096 2B72     	 strb r3,[r5,#8]
 501 0098 95E0     	 b .L126
 502              	.L150:
 503 009a 1B24     	 movs r4,#27
 504              	.L124:
 505 009c E4B2     	 uxtb r4,r4
 506 009e A4F11A03 	 sub r3,r4,#26
 507 00a2 012B     	 cmp r3,#1
 508 00a4 40F29580 	 bls .L161
 509 00a8 1068     	 ldr r0,[r2]
 510 00aa 3146     	 mov r1,r6
 511 00ac 4A46     	 mov r2,r9
 512 00ae FFF7FEFF 	 bl XMC_SDMMC_SendCommand
 513 00b2 2846     	 mov r0,r5
 514 00b4 4949     	 ldr r1,.L184
 515 00b6 FFF7FEFF 	 bl SDMMC_BLOCK_SD_lStartTimer
 516 00ba 0028     	 cmp r0,#0
 517 00bc 40F08980 	 bne .L161
 518 00c0 2B68     	 ldr r3,[r5]
 519              	.L132:
 520 00c2 93F85C20 	 ldrb r2,[r3,#92]
 521 00c6 7AB9     	 cbnz r2,.L129
 522              	.L133:
 523 00c8 4FF00009 	 mov r9,#0
 524 00cc 83F80690 	 strb r9,[r3,#6]
 525 00d0 2846     	 mov r0,r5
 526 00d2 FFF7FEFF 	 bl SDMMC_BLOCK_SD_lStopTimer.isra.2
 527 00d6 2B68     	 ldr r3,[r5]
 528 00d8 586D     	 ldr r0,[r3,#84]
 529 00da FFF7FEFF 	 bl SYSTIMER_DeleteTimer
 530 00de 2A68     	 ldr r2,[r5]
 531 00e0 547E     	 ldrb r4,[r2,#25]
 532 00e2 1C2C     	 cmp r4,#28
 533 00e4 5DD1     	 bne .L180
 534 00e6 03E0     	 b .L183
 535              	.L129:
 536 00e8 9A79     	 ldrb r2,[r3,#6]
 537 00ea 002A     	 cmp r2,#0
 538 00ec E9D0     	 beq .L132
 539 00ee EBE7     	 b .L133
 540              	.L183:
 541 00f0 7378     	 ldrb r3,[r6,#1]
 542 00f2 CDF80090 	 str r9,[sp]
 543 00f6 13F03F01 	 ands r1,r3,#63
 544 00fa CDF80490 	 str r9,[sp,#4]
 545 00fe 4ED0     	 beq .L151
 546 0100 0F29     	 cmp r1,#15
 547 0102 4CD0     	 beq .L151
 548 0104 1268     	 ldr r2,[r2]
 549 0106 1669     	 ldr r6,[r2,#16]
 550 0108 0096     	 str r6,[sp]
 551 010a 16F0007F 	 tst r6,#33554432
 552 010e 03F03F02 	 and r2,r3,#63
 553 0112 2B7A     	 ldrb r3,[r5,#8]
 554 0114 04D0     	 beq .L137
 555 0116 032A     	 cmp r2,#3
 556 0118 02D0     	 beq .L137
 557 011a 43F00803 	 orr r3,r3,#8
 558 011e 01E0     	 b .L181
 559              	.L137:
 560 0120 23F00803 	 bic r3,r3,#8
 561              	.L181:
 562 0124 2B72     	 strb r3,[r5,#8]
 563 0126 B8F1060F 	 cmp r8,#6
 564 012a 05D8     	 bhi .L139
 565 012c DFE808F0 	 tbb [pc,r8]
 566              	.L140:
 567 0130 37       	 .byte (.L151-.L140)/2
 568 0131 06       	 .byte (.L141-.L140)/2
 569 0132 0B       	 .byte (.L142-.L140)/2
 570 0133 14       	 .byte (.L143-.L140)/2
 571 0134 2B       	 .byte (.L146-.L140)/2
 572 0135 2D       	 .byte (.L145-.L140)/2
 573 0136 2B       	 .byte (.L146-.L140)/2
 574 0137 00       	 .p2align 1
 575              	.L139:
 576 0138 0124     	 movs r4,#1
 577 013a 4AE0     	 b .L161
 578              	.L141:
 579 013c 3E60     	 str r6,[r7]
 580 013e 6846     	 mov r0,sp
 581 0140 FFF7FEFF 	 bl SDMMC_BLOCK_SD_lCheckErrorInResponse
 582 0144 3DE0     	 b .L182
 583              	.L142:
 584 0146 3E60     	 str r6,[r7]
 585 0148 6846     	 mov r0,sp
 586 014a FFF7FEFF 	 bl SDMMC_BLOCK_SD_lCheckErrorInResponse
 587 014e 30B3     	 cbz r0,.L151
 588 0150 2846     	 mov r0,r5
 589 0152 FFF7FEFF 	 bl SDMMC_BLOCK_SD_lTransferDelay.constprop.11
 590 0156 34E0     	 b .L182
 591              	.L143:
 592 0158 214B     	 ldr r3,.L184+4
 593 015a 1A69     	 ldr r2,[r3,#16]
 594 015c 1202     	 lsls r2,r2,#8
 595 015e 3A60     	 str r2,[r7]
 596 0160 1A69     	 ldr r2,[r3,#16]
 597 0162 5969     	 ldr r1,[r3,#20]
 598 0164 120E     	 lsrs r2,r2,#24
 599 0166 42EA0122 	 orr r2,r2,r1,lsl#8
 600 016a 7A60     	 str r2,[r7,#4]
 601 016c 5A69     	 ldr r2,[r3,#20]
 602 016e 9969     	 ldr r1,[r3,#24]
 603 0170 120E     	 lsrs r2,r2,#24
 604 0172 42EA0122 	 orr r2,r2,r1,lsl#8
 605 0176 BA60     	 str r2,[r7,#8]
 606 0178 9A69     	 ldr r2,[r3,#24]
 607 017a D969     	 ldr r1,[r3,#28]
 608 017c 130E     	 lsrs r3,r2,#24
 609 017e 43EA0123 	 orr r3,r3,r1,lsl#8
 610 0182 BB60     	 str r3,[r7,#8]
 611 0184 0BE0     	 b .L151
 612              	.L146:
 613 0186 3E60     	 str r6,[r7]
 614 0188 09E0     	 b .L151
 615              	.L145:
 616 018a 02A8     	 add r0,sp,#8
 617 018c B3B2     	 uxth r3,r6
 618 018e 40F8043D 	 str r3,[r0,#-4]!
 619 0192 FFF7FEFF 	 bl SDMMC_BLOCK_SD_lCheckErrorInResponse
 620 0196 360C     	 lsrs r6,r6,#16
 621 0198 0446     	 mov r4,r0
 622 019a 3E60     	 str r6,[r7]
 623 019c 19E0     	 b .L161
 624              	.L151:
 625 019e 0024     	 movs r4,#0
 626 01a0 17E0     	 b .L161
 627              	.L180:
 628 01a2 022C     	 cmp r4,#2
 629 01a4 04D1     	 bne .L147
 630 01a6 7378     	 ldrb r3,[r6,#1]
 631 01a8 03F03F03 	 and r3,r3,#63
 632 01ac 082B     	 cmp r3,#8
 633 01ae 10D0     	 beq .L161
 634              	.L147:
 635 01b0 3378     	 ldrb r3,[r6]
 636 01b2 9B06     	 lsls r3,r3,#26
 637 01b4 44BF     	 itt mi
 638 01b6 0123     	 movmi r3,#1
 639 01b8 82F85130 	 strbmi r3,[r2,#81]
 640 01bc 2846     	 mov r0,r5
 641 01be FFF7FEFF 	 bl SDMMC_BLOCK_SD_lErrorInterruptRecovery
 642              	.L182:
 643 01c2 0446     	 mov r4,r0
 644 01c4 05E0     	 b .L161
 645              	.L126:
 646 01c6 2B7A     	 ldrb r3,[r5,#8]
 647 01c8 43F01003 	 orr r3,r3,#16
 648 01cc 2B72     	 strb r3,[r5,#8]
 649 01ce 0024     	 movs r4,#0
 650 01d0 64E7     	 b .L124
 651              	.L161:
 652 01d2 2046     	 mov r0,r4
 653 01d4 03B0     	 add sp,sp,#12
 654              	 
 655 01d6 BDE8F083 	 pop {r4,r5,r6,r7,r8,r9,pc}
 656              	.L185:
 657 01da 00BF     	 .align 2
 658              	.L184:
 659 01dc 40420F00 	 .word 1000000
 660 01e0 00C00148 	 .word 1208074240
 662              	 .section .text.SDMMC_BLOCK_SD_lSwitchToTransferState,"ax",%progbits
 663              	 .align 1
 664              	 .thumb
 665              	 .thumb_func
 667              	SDMMC_BLOCK_SD_lSwitchToTransferState:
 668              	 
 669              	 
 670 0000 7FB5     	 push {r0,r1,r2,r3,r4,r5,r6,lr}
 671 0002 04AD     	 add r5,sp,#16
 672 0004 0023     	 movs r3,#0
 673 0006 45F8043D 	 str r3,[r5,#-4]!
 674 000a 0368     	 ldr r3,[r0]
 675 000c 0C49     	 ldr r1,.L191
 676 000e B3F84C40 	 ldrh r4,[r3,#76]
 677 0012 0095     	 str r5,[sp]
 678 0014 2404     	 lsls r4,r4,#16
 679 0016 2246     	 mov r2,r4
 680 0018 0123     	 movs r3,#1
 681 001a 0646     	 mov r6,r0
 682 001c FFF7FEFF 	 bl SDMMC_BLOCK_SD_lSendCommand
 683 0020 60B9     	 cbnz r0,.L187
 684 0022 039B     	 ldr r3,[sp,#12]
 685 0024 03F4E853 	 and r3,r3,#7424
 686 0028 5B0A     	 lsrs r3,r3,#9
 687 002a 042B     	 cmp r3,#4
 688 002c 06D0     	 beq .L187
 689 002e 0095     	 str r5,[sp]
 690 0030 3046     	 mov r0,r6
 691 0032 0449     	 ldr r1,.L191+4
 692 0034 2246     	 mov r2,r4
 693 0036 0223     	 movs r3,#2
 694 0038 FFF7FEFF 	 bl SDMMC_BLOCK_SD_lSendCommand
 695              	.L187:
 696 003c 04B0     	 add sp,sp,#16
 697              	 
 698 003e 70BD     	 pop {r4,r5,r6,pc}
 699              	.L192:
 700              	 .align 2
 701              	.L191:
 702 0040 14000000 	 .word .LANCHOR0+20
 703 0044 0A000000 	 .word .LANCHOR0+10
 705              	 .section .text.SDMMC_BLOCK_SD_lLocalErase,"ax",%progbits
 706              	 .align 1
 707              	 .thumb
 708              	 .thumb_func
 710              	SDMMC_BLOCK_SD_lLocalErase:
 711              	 
 712              	 
 713 0000 2DE9FF41 	 push {r0,r1,r2,r3,r4,r5,r6,r7,r8,lr}
 714 0004 9846     	 mov r8,r3
 715 0006 0023     	 movs r3,#0
 716 0008 0393     	 str r3,[sp,#12]
 717 000a 437A     	 ldrb r3,[r0,#9]
 718 000c 0446     	 mov r4,r0
 719 000e 1807     	 lsls r0,r3,#28
 720 0010 0D46     	 mov r5,r1
 721 0012 03AE     	 add r6,sp,#12
 722 0014 58BF     	 it pl
 723 0016 4D02     	 lslpl r5,r1,#9
 724 0018 1746     	 mov r7,r2
 725 001a 0096     	 str r6,[sp]
 726 001c 58BF     	 it pl
 727 001e 5702     	 lslpl r7,r2,#9
 728 0020 2046     	 mov r0,r4
 729 0022 2A46     	 mov r2,r5
 730 0024 1B49     	 ldr r1,.L206
 731 0026 0123     	 movs r3,#1
 732 0028 FFF7FEFF 	 bl SDMMC_BLOCK_SD_lSendCommand
 733 002c 0546     	 mov r5,r0
 734 002e 60BB     	 cbnz r0,.L195
 735 0030 0096     	 str r6,[sp]
 736 0032 2046     	 mov r0,r4
 737 0034 1849     	 ldr r1,.L206+4
 738 0036 3A46     	 mov r2,r7
 739 0038 0123     	 movs r3,#1
 740 003a FFF7FEFF 	 bl SDMMC_BLOCK_SD_lSendCommand
 741 003e 0546     	 mov r5,r0
 742 0040 18BB     	 cbnz r0,.L195
 743 0042 2A46     	 mov r2,r5
 744 0044 0223     	 movs r3,#2
 745 0046 1549     	 ldr r1,.L206+8
 746 0048 0096     	 str r6,[sp]
 747 004a 2046     	 mov r0,r4
 748 004c FFF7FEFF 	 bl SDMMC_BLOCK_SD_lSendCommand
 749 0050 1349     	 ldr r1,.L206+12
 750 0052 2046     	 mov r0,r4
 751 0054 01FB08F1 	 mul r1,r1,r8
 752 0058 FFF7FEFF 	 bl SDMMC_BLOCK_SD_lStartTimer
 753 005c 2368     	 ldr r3,[r4]
 754 005e 5A6D     	 ldr r2,[r3,#84]
 755 0060 0546     	 mov r5,r0
 756 0062 92B1     	 cbz r2,.L195
 757              	.L197:
 758 0064 93F85C20 	 ldrb r2,[r3,#92]
 759 0068 3AB1     	 cbz r2,.L199
 760 006a 1A68     	 ldr r2,[r3]
 761 006c 516A     	 ldr r1,[r2,#36]
 762 006e 8907     	 lsls r1,r1,#30
 763 0070 F8D4     	 bmi .L197
 764 0072 526A     	 ldr r2,[r2,#36]
 765 0074 D207     	 lsls r2,r2,#31
 766 0076 F5D4     	 bmi .L197
 767 0078 00E0     	 b .L196
 768              	.L199:
 769 007a 2E25     	 movs r5,#46
 770              	.L196:
 771 007c 2046     	 mov r0,r4
 772 007e FFF7FEFF 	 bl SDMMC_BLOCK_SD_lStopTimer.isra.2
 773 0082 2368     	 ldr r3,[r4]
 774 0084 586D     	 ldr r0,[r3,#84]
 775 0086 FFF7FEFF 	 bl SYSTIMER_DeleteTimer
 776              	.L195:
 777 008a 2846     	 mov r0,r5
 778 008c 04B0     	 add sp,sp,#16
 779              	 
 780 008e BDE8F081 	 pop {r4,r5,r6,r7,r8,pc}
 781              	.L207:
 782 0092 00BF     	 .align 2
 783              	.L206:
 784 0094 2A000000 	 .word .LANCHOR0+42
 785 0098 2C000000 	 .word .LANCHOR0+44
 786 009c 2E000000 	 .word .LANCHOR0+46
 787 00a0 40420F00 	 .word 1000000
 789              	 .section .text.SDMMC_BLOCK_SD_lDataTransfer,"ax",%progbits
 790              	 .align 1
 791              	 .thumb
 792              	 .thumb_func
 794              	SDMMC_BLOCK_SD_lDataTransfer:
 795              	 
 796              	 
 797 0000 2DE9F041 	 push {r4,r5,r6,r7,r8,lr}
 798 0004 0E46     	 mov r6,r1
 799 0006 1E49     	 ldr r1,.L224
 800 0008 0446     	 mov r4,r0
 801 000a 1746     	 mov r7,r2
 802 000c 9846     	 mov r8,r3
 803 000e FFF7FEFF 	 bl SDMMC_BLOCK_SD_lStartTimer
 804 0012 0546     	 mov r5,r0
 805 0014 0028     	 cmp r0,#0
 806 0016 2FD1     	 bne .L209
 807 0018 2368     	 ldr r3,[r4]
 808              	.L211:
 809 001a 93F85C20 	 ldrb r2,[r3,#92]
 810 001e 12B1     	 cbz r2,.L210
 811 0020 DA79     	 ldrb r2,[r3,#7]
 812 0022 002A     	 cmp r2,#0
 813 0024 F9D0     	 beq .L211
 814              	.L210:
 815 0026 2046     	 mov r0,r4
 816 0028 FFF7FEFF 	 bl SDMMC_BLOCK_SD_lStopTimer.isra.2
 817 002c 2368     	 ldr r3,[r4]
 818 002e 586D     	 ldr r0,[r3,#84]
 819 0030 FFF7FEFF 	 bl SYSTIMER_DeleteTimer
 820 0034 2268     	 ldr r2,[r4]
 821 0036 0023     	 movs r3,#0
 822 0038 D371     	 strb r3,[r2,#7]
 823 003a 2268     	 ldr r2,[r4]
 824 003c 117E     	 ldrb r1,[r2,#24]
 825 003e 1E29     	 cmp r1,#30
 826 0040 12D1     	 bne .L223
 827              	.L212:
 828 0042 4345     	 cmp r3,r8
 829 0044 18D0     	 beq .L209
 830 0046 012F     	 cmp r7,#1
 831 0048 05D1     	 bne .L214
 832 004a 2268     	 ldr r2,[r4]
 833 004c 1268     	 ldr r2,[r2]
 834 004e 126A     	 ldr r2,[r2,#32]
 835 0050 46F82320 	 str r2,[r6,r3,lsl#2]
 836 0054 06E0     	 b .L215
 837              	.L214:
 838 0056 022F     	 cmp r7,#2
 839 0058 01BF     	 itttt eq
 840 005a 2268     	 ldreq r2,[r4]
 841 005c 56F82310 	 ldreq r1,[r6,r3,lsl#2]
 842 0060 1268     	 ldreq r2,[r2]
 843 0062 1162     	 streq r1,[r2,#32]
 844              	.L215:
 845 0064 0133     	 adds r3,r3,#1
 846 0066 ECE7     	 b .L212
 847              	.L223:
 848 0068 0123     	 movs r3,#1
 849 006a 82F85130 	 strb r3,[r2,#81]
 850 006e 2046     	 mov r0,r4
 851 0070 BDE8F041 	 pop {r4,r5,r6,r7,r8,lr}
 852 0074 FFF7FEBF 	 b SDMMC_BLOCK_SD_lErrorInterruptRecovery
 853              	.L209:
 854 0078 2846     	 mov r0,r5
 855 007a BDE8F081 	 pop {r4,r5,r6,r7,r8,pc}
 856              	.L225:
 857 007e 00BF     	 .align 2
 858              	.L224:
 859 0080 40420F00 	 .word 1000000
 861              	 .section .text.SDMMC_BLOCK_SD_lMultiBlockTransfer,"ax",%progbits
 862              	 .align 1
 863              	 .thumb
 864              	 .thumb_func
 866              	SDMMC_BLOCK_SD_lMultiBlockTransfer:
 867              	 
 868              	 
 869 0000 2DE9F04F 	 push {r4,r5,r6,r7,r8,r9,r10,fp,lr}
 870 0004 9B46     	 mov fp,r3
 871 0006 0368     	 ldr r3,[r0]
 872 0008 87B0     	 sub sp,sp,#28
 873 000a 1646     	 mov r6,r2
 874 000c 0122     	 movs r2,#1
 875 000e 9A76     	 strb r2,[r3,#26]
 876 0010 0023     	 movs r3,#0
 877 0012 0293     	 str r3,[sp,#8]
 878 0014 437A     	 ldrb r3,[r0,#9]
 879 0016 DDF84080 	 ldr r8,[sp,#64]
 880 001a 9DF84490 	 ldrb r9,[sp,#68]
 881 001e 0496     	 str r6,[sp,#16]
 882 0020 0D46     	 mov r5,r1
 883 0022 1907     	 lsls r1,r3,#28
 884 0024 58BF     	 it pl
 885 0026 2A68     	 ldrpl r2,[r5]
 886 0028 4FF40073 	 mov r3,#512
 887 002c 5CBF     	 itt pl
 888 002e 5202     	 lslpl r2,r2,#9
 889 0030 2A60     	 strpl r2,[r5]
 890 0032 0393     	 str r3,[sp,#12]
 891 0034 2223     	 movs r3,#34
 892 0036 8DF81430 	 strb r3,[sp,#20]
 893 003a 0368     	 ldr r3,[r0]
 894 003c 0446     	 mov r4,r0
 895 003e 03AF     	 add r7,sp,#12
 896 0040 1868     	 ldr r0,[r3]
 897 0042 4FF0010A 	 mov r10,#1
 898 0046 3946     	 mov r1,r7
 899 0048 8DF815A0 	 strb r10,[sp,#21]
 900 004c FFF7FEFF 	 bl XMC_SDMMC_SetDataTransferMode
 901 0050 2368     	 ldr r3,[r4]
 902 0052 4FF08071 	 mov r1,#16777216
 903 0056 1868     	 ldr r0,[r3]
 904 0058 FFF7FEFF 	 bl XMC_SDMMC_EnableEvent
 905 005c 02AB     	 add r3,sp,#8
 906 005e 0093     	 str r3,[sp]
 907 0060 2A68     	 ldr r2,[r5]
 908 0062 2046     	 mov r0,r4
 909 0064 5946     	 mov r1,fp
 910 0066 5346     	 mov r3,r10
 911 0068 FFF7FEFF 	 bl SDMMC_BLOCK_SD_lSendCommand
 912 006c 0546     	 mov r5,r0
 913 006e 0028     	 cmp r0,#0
 914 0070 3DD1     	 bne .L240
 915              	.L229:
 916 0072 66B1     	 cbz r6,.L253
 917 0074 2046     	 mov r0,r4
 918 0076 4146     	 mov r1,r8
 919 0078 4A46     	 mov r2,r9
 920 007a 8023     	 movs r3,#128
 921 007c FFF7FEFF 	 bl SDMMC_BLOCK_SD_lDataTransfer
 922 0080 0546     	 mov r5,r0
 923 0082 0028     	 cmp r0,#0
 924 0084 33D1     	 bne .L240
 925 0086 013E     	 subs r6,r6,#1
 926 0088 08F50078 	 add r8,r8,#512
 927 008c F1E7     	 b .L229
 928              	.L253:
 929 008e 2046     	 mov r0,r4
 930 0090 FFF7FEFF 	 bl SDMMC_BLOCK_SD_lTransferDelay.constprop.11
 931 0094 0546     	 mov r5,r0
 932 0096 50BB     	 cbnz r0,.L240
 933 0098 2368     	 ldr r3,[r4]
 934 009a DA7E     	 ldrb r2,[r3,#27]
 935 009c 092A     	 cmp r2,#9
 936 009e 26D1     	 bne .L240
 937 00a0 1A68     	 ldr r2,[r3]
 938 00a2 0396     	 str r6,[sp,#12]
 939 00a4 928F     	 ldrh r2,[r2,#60]
 940 00a6 D207     	 lsls r2,r2,#31
 941 00a8 0BD5     	 bpl .L232
 942 00aa 1B7F     	 ldrb r3,[r3,#28]
 943 00ac 242B     	 cmp r3,#36
 944 00ae 1ED1     	 bne .L240
 945 00b0 0097     	 str r7,[sp]
 946 00b2 2046     	 mov r0,r4
 947 00b4 1049     	 ldr r1,.L254
 948 00b6 3246     	 mov r2,r6
 949 00b8 0123     	 movs r3,#1
 950 00ba FFF7FEFF 	 bl SDMMC_BLOCK_SD_lSendCommand
 951 00be 60B9     	 cbnz r0,.L252
 952 00c0 15E0     	 b .L240
 953              	.L232:
 954 00c2 2046     	 mov r0,r4
 955 00c4 0221     	 movs r1,#2
 956 00c6 FFF7FEFF 	 bl SDMMC_BLOCK_SD_lReset
 957 00ca 80B9     	 cbnz r0,.L240
 958 00cc 0097     	 str r7,[sp]
 959 00ce 2046     	 mov r0,r4
 960 00d0 0949     	 ldr r1,.L254
 961 00d2 2A46     	 mov r2,r5
 962 00d4 0123     	 movs r3,#1
 963 00d6 FFF7FEFF 	 bl SDMMC_BLOCK_SD_lSendCommand
 964              	.L252:
 965 00da 2528     	 cmp r0,#37
 966 00dc 07D0     	 beq .L240
 967 00de 2046     	 mov r0,r4
 968 00e0 0421     	 movs r1,#4
 969 00e2 FFF7FEFF 	 bl SDMMC_BLOCK_SD_lReset
 970 00e6 10B9     	 cbnz r0,.L240
 971 00e8 2368     	 ldr r3,[r4]
 972 00ea 1B68     	 ldr r3,[r3]
 973 00ec 9B8F     	 ldrh r3,[r3,#60]
 974              	.L240:
 975 00ee 2846     	 mov r0,r5
 976 00f0 07B0     	 add sp,sp,#28
 977              	 
 978 00f2 BDE8F08F 	 pop {r4,r5,r6,r7,r8,r9,r10,fp,pc}
 979              	.L255:
 980 00f6 00BF     	 .align 2
 981              	.L254:
 982 00f8 12000000 	 .word .LANCHOR0+18
 984              	 .section .text.SDMMC_BLOCK_SD_lSingleBlockTransfer,"ax",%progbits
 985              	 .align 1
 986              	 .thumb
 987              	 .thumb_func
 989              	SDMMC_BLOCK_SD_lSingleBlockTransfer:
 990              	 
 991              	 
 992 0000 F0B5     	 push {r4,r5,r6,r7,lr}
 993 0002 87B0     	 sub sp,sp,#28
 994 0004 1E46     	 mov r6,r3
 995 0006 0023     	 movs r3,#0
 996 0008 0293     	 str r3,[sp,#8]
 997 000a 8DF81430 	 strb r3,[sp,#20]
 998 000e 8DF81530 	 strb r3,[sp,#21]
 999 0012 0368     	 ldr r3,[r0]
 1000 0014 0396     	 str r6,[sp,#12]
 1001 0016 0446     	 mov r4,r0
 1002 0018 0F46     	 mov r7,r1
 1003 001a 1868     	 ldr r0,[r3]
 1004 001c 03A9     	 add r1,sp,#12
 1005 001e 1546     	 mov r5,r2
 1006 0020 FFF7FEFF 	 bl XMC_SDMMC_SetDataTransferMode
 1007 0024 02AB     	 add r3,sp,#8
 1008 0026 0093     	 str r3,[sp]
 1009 0028 2A46     	 mov r2,r5
 1010 002a 2046     	 mov r0,r4
 1011 002c 3946     	 mov r1,r7
 1012 002e 0123     	 movs r3,#1
 1013 0030 FFF7FEFF 	 bl SDMMC_BLOCK_SD_lSendCommand
 1014 0034 0546     	 mov r5,r0
 1015 0036 68BB     	 cbnz r0,.L257
 1016 0038 F31C     	 adds r3,r6,#3
 1017 003a 2046     	 mov r0,r4
 1018 003c 0C99     	 ldr r1,[sp,#48]
 1019 003e 9DF83420 	 ldrb r2,[sp,#52]
 1020 0042 9B08     	 lsrs r3,r3,#2
 1021 0044 FFF7FEFF 	 bl SDMMC_BLOCK_SD_lDataTransfer
 1022 0048 0546     	 mov r5,r0
 1023 004a 18BB     	 cbnz r0,.L257
 1024 004c 2046     	 mov r0,r4
 1025 004e 1349     	 ldr r1,.L269
 1026 0050 FFF7FEFF 	 bl SDMMC_BLOCK_SD_lStartTimer
 1027 0054 0546     	 mov r5,r0
 1028 0056 E0B9     	 cbnz r0,.L260
 1029 0058 2368     	 ldr r3,[r4]
 1030              	.L259:
 1031 005a 93F85C20 	 ldrb r2,[r3,#92]
 1032 005e 12B1     	 cbz r2,.L258
 1033 0060 1A7A     	 ldrb r2,[r3,#8]
 1034 0062 002A     	 cmp r2,#0
 1035 0064 F9D0     	 beq .L259
 1036              	.L258:
 1037 0066 2046     	 mov r0,r4
 1038 0068 FFF7FEFF 	 bl SDMMC_BLOCK_SD_lStopTimer.isra.2
 1039 006c 2368     	 ldr r3,[r4]
 1040 006e 586D     	 ldr r0,[r3,#84]
 1041 0070 FFF7FEFF 	 bl SYSTIMER_DeleteTimer
 1042 0074 2368     	 ldr r3,[r4]
 1043 0076 0022     	 movs r2,#0
 1044 0078 1A72     	 strb r2,[r3,#8]
 1045 007a 2368     	 ldr r3,[r4]
 1046 007c 9A7E     	 ldrb r2,[r3,#26]
 1047 007e 1F2A     	 cmp r2,#31
 1048 0080 08D0     	 beq .L257
 1049 0082 0122     	 movs r2,#1
 1050 0084 83F85120 	 strb r2,[r3,#81]
 1051 0088 2046     	 mov r0,r4
 1052 008a FFF7FEFF 	 bl SDMMC_BLOCK_SD_lErrorInterruptRecovery
 1053 008e 0546     	 mov r5,r0
 1054 0090 00E0     	 b .L257
 1055              	.L260:
 1056 0092 2E25     	 movs r5,#46
 1057              	.L257:
 1058 0094 2846     	 mov r0,r5
 1059 0096 07B0     	 add sp,sp,#28
 1060              	 
 1061 0098 F0BD     	 pop {r4,r5,r6,r7,pc}
 1062              	.L270:
 1063 009a 00BF     	 .align 2
 1064              	.L269:
 1065 009c 40420F00 	 .word 1000000
 1067              	 .section .text.SDMMC_BLOCK_SD_NormalInterruptHandler,"ax",%progbits
 1068              	 .align 1
 1069              	 .global SDMMC_BLOCK_SD_NormalInterruptHandler
 1070              	 .thumb
 1071              	 .thumb_func
 1073              	SDMMC_BLOCK_SD_NormalInterruptHandler:
 1074              	 
 1075              	 
 1076 0000 38B5     	 push {r3,r4,r5,lr}
 1077 0002 0446     	 mov r4,r0
 1078 0004 8806     	 lsls r0,r1,#26
 1079 0006 0D46     	 mov r5,r1
 1080 0008 0AD5     	 bpl .L272
 1081 000a 2368     	 ldr r3,[r4]
 1082 000c 1E22     	 movs r2,#30
 1083 000e 1A76     	 strb r2,[r3,#24]
 1084 0010 2368     	 ldr r3,[r4]
 1085 0012 2021     	 movs r1,#32
 1086 0014 1868     	 ldr r0,[r3]
 1087 0016 FFF7FEFF 	 bl XMC_SDMMC_ClearEvent
 1088 001a 2368     	 ldr r3,[r4]
 1089 001c 0122     	 movs r2,#1
 1090 001e DA71     	 strb r2,[r3,#7]
 1091              	.L272:
 1092 0020 E906     	 lsls r1,r5,#27
 1093 0022 0AD5     	 bpl .L273
 1094 0024 2368     	 ldr r3,[r4]
 1095 0026 1E22     	 movs r2,#30
 1096 0028 1A76     	 strb r2,[r3,#24]
 1097 002a 2368     	 ldr r3,[r4]
 1098 002c 1021     	 movs r1,#16
 1099 002e 1868     	 ldr r0,[r3]
 1100 0030 FFF7FEFF 	 bl XMC_SDMMC_ClearEvent
 1101 0034 2368     	 ldr r3,[r4]
 1102 0036 0122     	 movs r2,#1
 1103 0038 DA71     	 strb r2,[r3,#7]
 1104              	.L273:
 1105 003a AA07     	 lsls r2,r5,#30
 1106 003c 0ED5     	 bpl .L274
 1107 003e 2368     	 ldr r3,[r4]
 1108 0040 1F22     	 movs r2,#31
 1109 0042 9A76     	 strb r2,[r3,#26]
 1110 0044 2368     	 ldr r3,[r4]
 1111 0046 0221     	 movs r1,#2
 1112 0048 1868     	 ldr r0,[r3]
 1113 004a FFF7FEFF 	 bl XMC_SDMMC_ClearEvent
 1114 004e 237A     	 ldrb r3,[r4,#8]
 1115 0050 23F02003 	 bic r3,r3,#32
 1116 0054 2372     	 strb r3,[r4,#8]
 1117 0056 2368     	 ldr r3,[r4]
 1118 0058 0122     	 movs r2,#1
 1119 005a 1A72     	 strb r2,[r3,#8]
 1120              	.L274:
 1121 005c EB07     	 lsls r3,r5,#31
 1122 005e 0ED5     	 bpl .L275
 1123 0060 2368     	 ldr r3,[r4]
 1124 0062 1C22     	 movs r2,#28
 1125 0064 5A76     	 strb r2,[r3,#25]
 1126 0066 2368     	 ldr r3,[r4]
 1127 0068 0121     	 movs r1,#1
 1128 006a 1868     	 ldr r0,[r3]
 1129 006c FFF7FEFF 	 bl XMC_SDMMC_ClearEvent
 1130 0070 237A     	 ldrb r3,[r4,#8]
 1131 0072 23F01003 	 bic r3,r3,#16
 1132 0076 2372     	 strb r3,[r4,#8]
 1133 0078 2368     	 ldr r3,[r4]
 1134 007a 0122     	 movs r2,#1
 1135 007c 9A71     	 strb r2,[r3,#6]
 1136              	.L275:
 1137 007e 0020     	 movs r0,#0
 1138 0080 38BD     	 pop {r3,r4,r5,pc}
 1140              	 .section .text.SDMMC_BLOCK_SD_ErrorInterruptHandler,"ax",%progbits
 1141              	 .align 1
 1142              	 .global SDMMC_BLOCK_SD_ErrorInterruptHandler
 1143              	 .thumb
 1144              	 .thumb_func
 1146              	SDMMC_BLOCK_SD_ErrorInterruptHandler:
 1147              	 
 1148              	 
 1149 0000 38B5     	 push {r3,r4,r5,lr}
 1150 0002 0368     	 ldr r3,[r0]
 1151 0004 0446     	 mov r4,r0
 1152 0006 C807     	 lsls r0,r1,#31
 1153 0008 0D46     	 mov r5,r1
 1154 000a 9980     	 strh r1,[r3,#4]
 1155 000c 0FD5     	 bpl .L289
 1156 000e 2368     	 ldr r3,[r4]
 1157 0010 0222     	 movs r2,#2
 1158 0012 5A76     	 strb r2,[r3,#25]
 1159 0014 237A     	 ldrb r3,[r4,#8]
 1160 0016 23F01003 	 bic r3,r3,#16
 1161 001a 2372     	 strb r3,[r4,#8]
 1162 001c 2368     	 ldr r3,[r4]
 1163 001e 4FF48031 	 mov r1,#65536
 1164 0022 1868     	 ldr r0,[r3]
 1165 0024 FFF7FEFF 	 bl XMC_SDMMC_ClearEvent
 1166 0028 2368     	 ldr r3,[r4]
 1167 002a 0122     	 movs r2,#1
 1168 002c 9A71     	 strb r2,[r3,#6]
 1169              	.L289:
 1170 002e A907     	 lsls r1,r5,#30
 1171 0030 0FD5     	 bpl .L290
 1172 0032 2368     	 ldr r3,[r4]
 1173 0034 0322     	 movs r2,#3
 1174 0036 5A76     	 strb r2,[r3,#25]
 1175 0038 237A     	 ldrb r3,[r4,#8]
 1176 003a 23F01003 	 bic r3,r3,#16
 1177 003e 2372     	 strb r3,[r4,#8]
 1178 0040 2368     	 ldr r3,[r4]
 1179 0042 4FF40031 	 mov r1,#131072
 1180 0046 1868     	 ldr r0,[r3]
 1181 0048 FFF7FEFF 	 bl XMC_SDMMC_ClearEvent
 1182 004c 2368     	 ldr r3,[r4]
 1183 004e 0122     	 movs r2,#1
 1184 0050 9A71     	 strb r2,[r3,#6]
 1185              	.L290:
 1186 0052 6A07     	 lsls r2,r5,#29
 1187 0054 0FD5     	 bpl .L291
 1188 0056 2368     	 ldr r3,[r4]
 1189 0058 0422     	 movs r2,#4
 1190 005a 5A76     	 strb r2,[r3,#25]
 1191 005c 237A     	 ldrb r3,[r4,#8]
 1192 005e 23F01003 	 bic r3,r3,#16
 1193 0062 2372     	 strb r3,[r4,#8]
 1194 0064 2368     	 ldr r3,[r4]
 1195 0066 4FF48021 	 mov r1,#262144
 1196 006a 1868     	 ldr r0,[r3]
 1197 006c FFF7FEFF 	 bl XMC_SDMMC_ClearEvent
 1198 0070 2368     	 ldr r3,[r4]
 1199 0072 0122     	 movs r2,#1
 1200 0074 9A71     	 strb r2,[r3,#6]
 1201              	.L291:
 1202 0076 2B07     	 lsls r3,r5,#28
 1203 0078 0FD5     	 bpl .L292
 1204 007a 2368     	 ldr r3,[r4]
 1205 007c 0522     	 movs r2,#5
 1206 007e 5A76     	 strb r2,[r3,#25]
 1207 0080 237A     	 ldrb r3,[r4,#8]
 1208 0082 23F01003 	 bic r3,r3,#16
 1209 0086 2372     	 strb r3,[r4,#8]
 1210 0088 2368     	 ldr r3,[r4]
 1211 008a 4FF40021 	 mov r1,#524288
 1212 008e 1868     	 ldr r0,[r3]
 1213 0090 FFF7FEFF 	 bl XMC_SDMMC_ClearEvent
 1214 0094 2368     	 ldr r3,[r4]
 1215 0096 0122     	 movs r2,#1
 1216 0098 9A71     	 strb r2,[r3,#6]
 1217              	.L292:
 1218 009a E806     	 lsls r0,r5,#27
 1219 009c 0FD5     	 bpl .L293
 1220 009e 2368     	 ldr r3,[r4]
 1221 00a0 0622     	 movs r2,#6
 1222 00a2 1A76     	 strb r2,[r3,#24]
 1223 00a4 237A     	 ldrb r3,[r4,#8]
 1224 00a6 23F02003 	 bic r3,r3,#32
 1225 00aa 2372     	 strb r3,[r4,#8]
 1226 00ac 2368     	 ldr r3,[r4]
 1227 00ae 4FF48011 	 mov r1,#1048576
 1228 00b2 1868     	 ldr r0,[r3]
 1229 00b4 FFF7FEFF 	 bl XMC_SDMMC_ClearEvent
 1230 00b8 2368     	 ldr r3,[r4]
 1231 00ba 0122     	 movs r2,#1
 1232 00bc DA71     	 strb r2,[r3,#7]
 1233              	.L293:
 1234 00be A906     	 lsls r1,r5,#26
 1235 00c0 0FD5     	 bpl .L294
 1236 00c2 2368     	 ldr r3,[r4]
 1237 00c4 0722     	 movs r2,#7
 1238 00c6 1A76     	 strb r2,[r3,#24]
 1239 00c8 237A     	 ldrb r3,[r4,#8]
 1240 00ca 23F02003 	 bic r3,r3,#32
 1241 00ce 2372     	 strb r3,[r4,#8]
 1242 00d0 2368     	 ldr r3,[r4]
 1243 00d2 4FF40011 	 mov r1,#2097152
 1244 00d6 1868     	 ldr r0,[r3]
 1245 00d8 FFF7FEFF 	 bl XMC_SDMMC_ClearEvent
 1246 00dc 2368     	 ldr r3,[r4]
 1247 00de 0122     	 movs r2,#1
 1248 00e0 DA71     	 strb r2,[r3,#7]
 1249              	.L294:
 1250 00e2 6A06     	 lsls r2,r5,#25
 1251 00e4 0FD5     	 bpl .L295
 1252 00e6 2368     	 ldr r3,[r4]
 1253 00e8 0822     	 movs r2,#8
 1254 00ea 1A76     	 strb r2,[r3,#24]
 1255 00ec 237A     	 ldrb r3,[r4,#8]
 1256 00ee 23F02003 	 bic r3,r3,#32
 1257 00f2 2372     	 strb r3,[r4,#8]
 1258 00f4 2368     	 ldr r3,[r4]
 1259 00f6 4FF48001 	 mov r1,#4194304
 1260 00fa 1868     	 ldr r0,[r3]
 1261 00fc FFF7FEFF 	 bl XMC_SDMMC_ClearEvent
 1262 0100 2368     	 ldr r3,[r4]
 1263 0102 0122     	 movs r2,#1
 1264 0104 DA71     	 strb r2,[r3,#7]
 1265              	.L295:
 1266 0106 EB05     	 lsls r3,r5,#23
 1267 0108 0FD5     	 bpl .L296
 1268 010a 2368     	 ldr r3,[r4]
 1269 010c 0922     	 movs r2,#9
 1270 010e DA76     	 strb r2,[r3,#27]
 1271 0110 237A     	 ldrb r3,[r4,#8]
 1272 0112 23F03003 	 bic r3,r3,#48
 1273 0116 2372     	 strb r3,[r4,#8]
 1274 0118 2368     	 ldr r3,[r4]
 1275 011a 4FF08071 	 mov r1,#16777216
 1276 011e 1868     	 ldr r0,[r3]
 1277 0120 FFF7FEFF 	 bl XMC_SDMMC_ClearEvent
 1278 0124 2368     	 ldr r3,[r4]
 1279 0126 0122     	 movs r2,#1
 1280 0128 9A71     	 strb r2,[r3,#6]
 1281              	.L296:
 1282 012a 0120     	 movs r0,#1
 1283 012c 38BD     	 pop {r3,r4,r5,pc}
 1285              	 .section .text.SDMMC_BLOCK_SD_GetLockStatus,"ax",%progbits
 1286              	 .align 1
 1287              	 .global SDMMC_BLOCK_SD_GetLockStatus
 1288              	 .thumb
 1289              	 .thumb_func
 1291              	SDMMC_BLOCK_SD_GetLockStatus:
 1292              	 
 1293              	 
 1294 0000 30B5     	 push {r4,r5,lr}
 1295 0002 85B0     	 sub sp,sp,#20
 1296 0004 04AB     	 add r3,sp,#16
 1297 0006 0022     	 movs r2,#0
 1298 0008 43F8042D 	 str r2,[r3,#-4]!
 1299 000c 0268     	 ldr r2,[r0]
 1300 000e B2F84C20 	 ldrh r2,[r2,#76]
 1301 0012 0093     	 str r3,[sp]
 1302 0014 0D46     	 mov r5,r1
 1303 0016 1204     	 lsls r2,r2,#16
 1304 0018 0A49     	 ldr r1,.L325
 1305 001a 0123     	 movs r3,#1
 1306 001c 0446     	 mov r4,r0
 1307 001e FFF7FEFF 	 bl SDMMC_BLOCK_SD_lSendCommand
 1308 0022 68B9     	 cbnz r0,.L322
 1309 0024 039B     	 ldr r3,[sp,#12]
 1310 0026 9B01     	 lsls r3,r3,#6
 1311 0028 45BF     	 ittet mi
 1312 002a 0123     	 movmi r3,#1
 1313 002c 2B70     	 strbmi r3,[r5]
 1314 002e 2870     	 strbpl r0,[r5]
 1315 0030 237A     	 ldrbmi r3,[r4,#8]
 1316 0032 56BF     	 itet pl
 1317 0034 237A     	 ldrbpl r3,[r4,#8]
 1318 0036 43F00803 	 orrmi r3,r3,#8
 1319 003a 23F00803 	 bicpl r3,r3,#8
 1320 003e 2372     	 strb r3,[r4,#8]
 1321              	.L322:
 1322 0040 05B0     	 add sp,sp,#20
 1323              	 
 1324 0042 30BD     	 pop {r4,r5,pc}
 1325              	.L326:
 1326              	 .align 2
 1327              	.L325:
 1328 0044 14000000 	 .word .LANCHOR0+20
 1330              	 .section .text.SDMMC_BLOCK_SD_LockUnlockCard,"ax",%progbits
 1331              	 .align 1
 1332              	 .global SDMMC_BLOCK_SD_LockUnlockCard
 1333              	 .thumb
 1334              	 .thumb_func
 1336              	SDMMC_BLOCK_SD_LockUnlockCard:
 1337              	 
 1338              	 
 1339 0000 2DE9FF41 	 push {r0,r1,r2,r3,r4,r5,r6,r7,r8,lr}
 1340 0004 1646     	 mov r6,r2
 1341 0006 8046     	 mov r8,r0
 1342 0008 0F46     	 mov r7,r1
 1343 000a FFF7FEFF 	 bl SDMMC_BLOCK_SD_lSwitchToTransferState
 1344 000e 0246     	 mov r2,r0
 1345 0010 0028     	 cmp r0,#0
 1346 0012 4DD1     	 bne .L328
 1347 0014 D8F80030 	 ldr r3,[r8]
 1348 0018 2749     	 ldr r1,.L341
 1349 001a 1A68     	 ldr r2,[r3]
 1350 001c 9389     	 ldrh r3,[r2,#12]
 1351 001e 23F01003 	 bic r3,r3,#16
 1352 0022 1B04     	 lsls r3,r3,#16
 1353 0024 1B0C     	 lsrs r3,r3,#16
 1354 0026 9381     	 strh r3,[r2,#12]
 1355 0028 7C78     	 ldrb r4,[r7,#1]
 1356 002a 0134     	 adds r4,r4,#1
 1357 002c 24F00104 	 bic r4,r4,#1
 1358 0030 0234     	 adds r4,r4,#2
 1359 0032 03AD     	 add r5,sp,#12
 1360 0034 2246     	 mov r2,r4
 1361 0036 0095     	 str r5,[sp]
 1362 0038 4046     	 mov r0,r8
 1363 003a 0123     	 movs r3,#1
 1364 003c FFF7FEFF 	 bl SDMMC_BLOCK_SD_lSendCommand
 1365 0040 0246     	 mov r2,r0
 1366 0042 0028     	 cmp r0,#0
 1367 0044 34D1     	 bne .L328
 1368 0046 0221     	 movs r1,#2
 1369 0048 A3B2     	 uxth r3,r4
 1370 004a 0191     	 str r1,[sp,#4]
 1371 004c 0097     	 str r7,[sp]
 1372 004e 4046     	 mov r0,r8
 1373 0050 1A49     	 ldr r1,.L341+4
 1374 0052 FFF7FEFF 	 bl SDMMC_BLOCK_SD_lSingleBlockTransfer
 1375 0056 D8F80030 	 ldr r3,[r8]
 1376 005a 1A68     	 ldr r2,[r3]
 1377              	.L329:
 1378 005c 536A     	 ldr r3,[r2,#36]
 1379 005e 9C07     	 lsls r4,r3,#30
 1380 0060 FCD4     	 bmi .L329
 1381 0062 4FF40072 	 mov r2,#512
 1382 0066 0123     	 movs r3,#1
 1383 0068 0095     	 str r5,[sp]
 1384 006a 4046     	 mov r0,r8
 1385 006c 1249     	 ldr r1,.L341
 1386 006e FFF7FEFF 	 bl SDMMC_BLOCK_SD_lSendCommand
 1387 0072 D8F80030 	 ldr r3,[r8]
 1388 0076 1B68     	 ldr r3,[r3]
 1389 0078 0246     	 mov r2,r0
 1390              	.L330:
 1391 007a 596A     	 ldr r1,[r3,#36]
 1392 007c 8807     	 lsls r0,r1,#30
 1393 007e FCD4     	 bmi .L330
 1394 0080 596A     	 ldr r1,[r3,#36]
 1395 0082 C907     	 lsls r1,r1,#31
 1396 0084 F9D4     	 bmi .L330
 1397 0086 9AB9     	 cbnz r2,.L328
 1398 0088 4046     	 mov r0,r8
 1399 008a 0DF10B01 	 add r1,sp,#11
 1400 008e FFF7FEFF 	 bl SDMMC_BLOCK_SD_GetLockStatus
 1401 0092 0246     	 mov r2,r0
 1402 0094 60B9     	 cbnz r0,.L328
 1403 0096 9DF80B30 	 ldrb r3,[sp,#11]
 1404 009a 012B     	 cmp r3,#1
 1405 009c 01D1     	 bne .L333
 1406 009e 012E     	 cmp r6,#1
 1407 00a0 01E0     	 b .L340
 1408              	.L333:
 1409 00a2 23B9     	 cbnz r3,.L335
 1410 00a4 002E     	 cmp r6,#0
 1411              	.L340:
 1412 00a6 0CBF     	 ite eq
 1413 00a8 0022     	 moveq r2,#0
 1414 00aa 1022     	 movne r2,#16
 1415 00ac 00E0     	 b .L328
 1416              	.L335:
 1417 00ae 1022     	 movs r2,#16
 1418              	.L328:
 1419 00b0 1046     	 mov r0,r2
 1420 00b2 04B0     	 add sp,sp,#16
 1421              	 
 1422 00b4 BDE8F081 	 pop {r4,r5,r6,r7,r8,pc}
 1423              	.L342:
 1424              	 .align 2
 1425              	.L341:
 1426 00b8 18000000 	 .word .LANCHOR0+24
 1427 00bc 30000000 	 .word .LANCHOR0+48
 1429              	 .section .text.SDMMC_BLOCK_SD_GetState,"ax",%progbits
 1430              	 .align 1
 1431              	 .global SDMMC_BLOCK_SD_GetState
 1432              	 .thumb
 1433              	 .thumb_func
 1435              	SDMMC_BLOCK_SD_GetState:
 1436              	 
 1437              	 
 1438              	 
 1439 0000 007A     	 ldrb r0,[r0,#8]
 1440 0002 00F00F00 	 and r0,r0,#15
 1441 0006 7047     	 bx lr
 1443              	 .section .text.SDMMC_BLOCK_SD_GetCardType,"ax",%progbits
 1444              	 .align 1
 1445              	 .global SDMMC_BLOCK_SD_GetCardType
 1446              	 .thumb
 1447              	 .thumb_func
 1449              	SDMMC_BLOCK_SD_GetCardType:
 1450              	 
 1451              	 
 1452              	 
 1453 0000 437A     	 ldrb r3,[r0,#9]
 1454 0002 0B60     	 str r3,[r1]
 1455 0004 0020     	 movs r0,#0
 1456 0006 7047     	 bx lr
 1458              	 .section .text.SDMMC_BLOCK_SD_GetCid,"ax",%progbits
 1459              	 .align 1
 1460              	 .global SDMMC_BLOCK_SD_GetCid
 1461              	 .thumb
 1462              	 .thumb_func
 1464              	SDMMC_BLOCK_SD_GetCid:
 1465              	 
 1466              	 
 1467              	 
 1468 0000 0368     	 ldr r3,[r0]
 1469 0002 5B6A     	 ldr r3,[r3,#36]
 1470 0004 C3F30B03 	 ubfx r3,r3,#0,#12
 1471 0008 0B80     	 strh r3,[r1]
 1472 000a 0268     	 ldr r2,[r0]
 1473 000c D38C     	 ldrh r3,[r2,#38]
 1474 000e 926A     	 ldr r2,[r2,#40]
 1475 0010 43EA0243 	 orr r3,r3,r2,lsl#16
 1476 0014 4B60     	 str r3,[r1,#4]
 1477 0016 0368     	 ldr r3,[r0]
 1478 0018 5B8D     	 ldrh r3,[r3,#42]
 1479 001a 0B72     	 strb r3,[r1,#8]
 1480 001c 0368     	 ldr r3,[r0]
 1481 001e 93F82F30 	 ldrb r3,[r3,#47]
 1482 0022 4B72     	 strb r3,[r1,#9]
 1483 0024 0368     	 ldr r3,[r0]
 1484 0026 DB8D     	 ldrh r3,[r3,#46]
 1485 0028 8B72     	 strb r3,[r1,#10]
 1486 002a 0368     	 ldr r3,[r0]
 1487 002c DB6A     	 ldr r3,[r3,#44]
 1488 002e 1B0A     	 lsrs r3,r3,#8
 1489 0030 CB72     	 strb r3,[r1,#11]
 1490 0032 0368     	 ldr r3,[r0]
 1491 0034 DB6A     	 ldr r3,[r3,#44]
 1492 0036 0B73     	 strb r3,[r1,#12]
 1493 0038 0368     	 ldr r3,[r0]
 1494 003a 93F82B30 	 ldrb r3,[r3,#43]
 1495 003e 4B73     	 strb r3,[r1,#13]
 1496 0040 0368     	 ldr r3,[r0]
 1497 0042 1B6B     	 ldr r3,[r3,#48]
 1498 0044 1B0A     	 lsrs r3,r3,#8
 1499 0046 8B73     	 strb r3,[r1,#14]
 1500 0048 0368     	 ldr r3,[r0]
 1501 004a 1B6B     	 ldr r3,[r3,#48]
 1502 004c CB73     	 strb r3,[r1,#15]
 1503 004e 0368     	 ldr r3,[r0]
 1504 0050 5B8E     	 ldrh r3,[r3,#50]
 1505 0052 0B74     	 strb r3,[r1,#16]
 1506 0054 0020     	 movs r0,#0
 1507 0056 7047     	 bx lr
 1509              	 .section .text.SDMMC_BLOCK_SD_GetOcr,"ax",%progbits
 1510              	 .align 1
 1511              	 .global SDMMC_BLOCK_SD_GetOcr
 1512              	 .thumb
 1513              	 .thumb_func
 1515              	SDMMC_BLOCK_SD_GetOcr:
 1516              	 
 1517              	 
 1518              	 
 1519 0000 0368     	 ldr r3,[r0]
 1520 0002 1B6A     	 ldr r3,[r3,#32]
 1521 0004 0B60     	 str r3,[r1]
 1522 0006 0020     	 movs r0,#0
 1523 0008 7047     	 bx lr
 1525              	 .section .text.SDMMC_BLOCK_SD_GetCsd,"ax",%progbits
 1526              	 .align 1
 1527              	 .global SDMMC_BLOCK_SD_GetCsd
 1528              	 .thumb
 1529              	 .thumb_func
 1531              	SDMMC_BLOCK_SD_GetCsd:
 1532              	 
 1533              	 
 1534              	 
 1535 0000 0268     	 ldr r2,[r0]
 1536 0002 0131     	 adds r1,r1,#1
 1537 0004 02F13403 	 add r3,r2,#52
 1538 0008 4032     	 adds r2,r2,#64
 1539              	.L348:
 1540 000a 53F8040B 	 ldr r0,[r3],#4
 1541 000e 41F8040B 	 str r0,[r1],#4
 1542 0012 9342     	 cmp r3,r2
 1543 0014 F9D1     	 bne .L348
 1544 0016 1A88     	 ldrh r2,[r3]
 1545 0018 0A80     	 strh r2,[r1]
 1546 001a 9B78     	 ldrb r3,[r3,#2]
 1547 001c 8B70     	 strb r3,[r1,#2]
 1548 001e 0020     	 movs r0,#0
 1549 0020 7047     	 bx lr
 1551              	 .section .text.SDMMC_BLOCK_SD_GetSectorCount,"ax",%progbits
 1552              	 .align 1
 1553              	 .global SDMMC_BLOCK_SD_GetSectorCount
 1554              	 .thumb
 1555              	 .thumb_func
 1557              	SDMMC_BLOCK_SD_GetSectorCount:
 1558              	 
 1559              	 
 1560 0000 30B5     	 push {r4,r5,lr}
 1561 0002 437A     	 ldrb r3,[r0,#9]
 1562 0004 87B0     	 sub sp,sp,#28
 1563 0006 03F00403 	 and r3,r3,#4
 1564 000a 0546     	 mov r5,r0
 1565 000c 0C46     	 mov r4,r1
 1566 000e 01A8     	 add r0,sp,#4
 1567 0010 03F0FF01 	 and r1,r3,#255
 1568 0014 6BB1     	 cbz r3,.L351
 1569 0016 0021     	 movs r1,#0
 1570 0018 1422     	 movs r2,#20
 1571 001a FFF7FEFF 	 bl memset
 1572 001e 2846     	 mov r0,r5
 1573 0020 01A9     	 add r1,sp,#4
 1574 0022 FFF7FEFF 	 bl SDMMC_BLOCK_SD_GetCsd
 1575 0026 C8B9     	 cbnz r0,.L353
 1576 0028 039B     	 ldr r3,[sp,#12]
 1577 002a 9B02     	 lsls r3,r3,#10
 1578 002c 03F58063 	 add r3,r3,#1024
 1579 0030 13E0     	 b .L355
 1580              	.L351:
 1581 0032 1422     	 movs r2,#20
 1582 0034 FFF7FEFF 	 bl memset
 1583 0038 2846     	 mov r0,r5
 1584 003a 01A9     	 add r1,sp,#4
 1585 003c FFF7FEFF 	 bl SDMMC_BLOCK_SD_GetCsd
 1586 0040 60B9     	 cbnz r0,.L353
 1587 0042 029B     	 ldr r3,[sp,#8]
 1588 0044 C3F3C233 	 ubfx r3,r3,#15,#3
 1589 0048 9A1C     	 adds r2,r3,#2
 1590 004a 0123     	 movs r3,#1
 1591 004c 9340     	 lsls r3,r3,r2
 1592 004e BDF80C20 	 ldrh r2,[sp,#12]
 1593 0052 C2F30B02 	 ubfx r2,r2,#0,#12
 1594 0056 02FB0333 	 mla r3,r2,r3,r3
 1595              	.L355:
 1596 005a 2360     	 str r3,[r4]
 1597              	.L353:
 1598 005c 07B0     	 add sp,sp,#28
 1599              	 
 1600 005e 30BD     	 pop {r4,r5,pc}
 1602              	 .section .text.SDMMC_BLOCK_SD_lCheckSectorBound,"ax",%progbits
 1603              	 .align 1
 1604              	 .thumb
 1605              	 .thumb_func
 1607              	SDMMC_BLOCK_SD_lCheckSectorBound:
 1608              	 
 1609              	 
 1610 0000 37B5     	 push {r0,r1,r2,r4,r5,lr}
 1611 0002 0D46     	 mov r5,r1
 1612 0004 02A9     	 add r1,sp,#8
 1613 0006 0023     	 movs r3,#0
 1614 0008 41F8043D 	 str r3,[r1,#-4]!
 1615 000c 1446     	 mov r4,r2
 1616 000e FFF7FEFF 	 bl SDMMC_BLOCK_SD_GetSectorCount
 1617 0012 20B9     	 cbnz r0,.L357
 1618 0014 019B     	 ldr r3,[sp,#4]
 1619 0016 2C44     	 add r4,r4,r5
 1620 0018 9C42     	 cmp r4,r3
 1621 001a 88BF     	 it hi
 1622 001c 3320     	 movhi r0,#51
 1623              	.L357:
 1624 001e 03B0     	 add sp,sp,#12
 1625              	 
 1626 0020 30BD     	 pop {r4,r5,pc}
 1628              	 .section .text.SDMMC_BLOCK_SD_GetSectorSize,"ax",%progbits
 1629              	 .align 1
 1630              	 .global SDMMC_BLOCK_SD_GetSectorSize
 1631              	 .thumb
 1632              	 .thumb_func
 1634              	SDMMC_BLOCK_SD_GetSectorSize:
 1635              	 
 1636              	 
 1637              	 
 1638 0000 4FF40073 	 mov r3,#512
 1639 0004 0B80     	 strh r3,[r1]
 1640 0006 0020     	 movs r0,#0
 1641 0008 7047     	 bx lr
 1643              	 .section .text.SDMMC_BLOCK_SD_GetBlockSize,"ax",%progbits
 1644              	 .align 1
 1645              	 .global SDMMC_BLOCK_SD_GetBlockSize
 1646              	 .thumb
 1647              	 .thumb_func
 1649              	SDMMC_BLOCK_SD_GetBlockSize:
 1650              	 
 1651              	 
 1652 0000 30B5     	 push {r4,r5,lr}
 1653 0002 437A     	 ldrb r3,[r0,#9]
 1654 0004 87B0     	 sub sp,sp,#28
 1655 0006 03F00403 	 and r3,r3,#4
 1656 000a 0546     	 mov r5,r0
 1657 000c 0C46     	 mov r4,r1
 1658 000e 01A8     	 add r0,sp,#4
 1659 0010 03F0FF01 	 and r1,r3,#255
 1660 0014 03B1     	 cbz r3,.L360
 1661 0016 0021     	 movs r1,#0
 1662              	.L360:
 1663 0018 1422     	 movs r2,#20
 1664 001a FFF7FEFF 	 bl memset
 1665 001e 2846     	 mov r0,r5
 1666 0020 01A9     	 add r1,sp,#4
 1667 0022 FFF7FEFF 	 bl SDMMC_BLOCK_SD_GetCsd
 1668 0026 BDF80830 	 ldrh r3,[sp,#8]
 1669 002a C3F3C613 	 ubfx r3,r3,#7,#7
 1670 002e 0133     	 adds r3,r3,#1
 1671 0030 2360     	 str r3,[r4]
 1672 0032 07B0     	 add sp,sp,#28
 1673              	 
 1674 0034 30BD     	 pop {r4,r5,pc}
 1676              	 .section .text.SDMMC_BLOCK_SD_GetSdStatus,"ax",%progbits
 1677              	 .align 1
 1678              	 .global SDMMC_BLOCK_SD_GetSdStatus
 1679              	 .thumb
 1680              	 .thumb_func
 1682              	SDMMC_BLOCK_SD_GetSdStatus:
 1683              	 
 1684              	 
 1685 0000 30B5     	 push {r4,r5,lr}
 1686 0002 85B0     	 sub sp,sp,#20
 1687 0004 0023     	 movs r3,#0
 1688 0006 0446     	 mov r4,r0
 1689 0008 0D46     	 mov r5,r1
 1690 000a 0393     	 str r3,[sp,#12]
 1691 000c FFF7FEFF 	 bl SDMMC_BLOCK_SD_lSwitchToTransferState
 1692 0010 0246     	 mov r2,r0
 1693 0012 F0B9     	 cbnz r0,.L363
 1694 0014 2368     	 ldr r3,[r4]
 1695 0016 1049     	 ldr r1,.L364
 1696 0018 B3F84C20 	 ldrh r2,[r3,#76]
 1697 001c 03AB     	 add r3,sp,#12
 1698 001e 0093     	 str r3,[sp]
 1699 0020 1204     	 lsls r2,r2,#16
 1700 0022 2046     	 mov r0,r4
 1701 0024 0123     	 movs r3,#1
 1702 0026 FFF7FEFF 	 bl SDMMC_BLOCK_SD_lSendCommand
 1703 002a 0246     	 mov r2,r0
 1704 002c 88B9     	 cbnz r0,.L363
 1705 002e 2368     	 ldr r3,[r4]
 1706 0030 1968     	 ldr r1,[r3]
 1707 0032 8B89     	 ldrh r3,[r1,#12]
 1708 0034 9BB2     	 uxth r3,r3
 1709 0036 23F01003 	 bic r3,r3,#16
 1710 003a 43F01003 	 orr r3,r3,#16
 1711 003e 8B81     	 strh r3,[r1,#12]
 1712 0040 0123     	 movs r3,#1
 1713 0042 0193     	 str r3,[sp,#4]
 1714 0044 0095     	 str r5,[sp]
 1715 0046 2046     	 mov r0,r4
 1716 0048 0449     	 ldr r1,.L364+4
 1717 004a 4023     	 movs r3,#64
 1718 004c FFF7FEFF 	 bl SDMMC_BLOCK_SD_lSingleBlockTransfer
 1719 0050 0246     	 mov r2,r0
 1720              	.L363:
 1721 0052 1046     	 mov r0,r2
 1722 0054 05B0     	 add sp,sp,#20
 1723              	 
 1724 0056 30BD     	 pop {r4,r5,pc}
 1725              	.L365:
 1726              	 .align 2
 1727              	.L364:
 1728 0058 32000000 	 .word .LANCHOR0+50
 1729 005c 38000000 	 .word .LANCHOR0+56
 1731              	 .section .text.SDMMC_BLOCK_SD_CardIdentificationProcess,"ax",%progbits
 1732              	 .align 1
 1733              	 .global SDMMC_BLOCK_SD_CardIdentificationProcess
 1734              	 .thumb
 1735              	 .thumb_func
 1737              	SDMMC_BLOCK_SD_CardIdentificationProcess:
 1738              	 
 1739              	 
 1740 0000 2DE9F043 	 push {r4,r5,r6,r7,r8,r9,lr}
 1741 0004 0446     	 mov r4,r0
 1742 0006 97B0     	 sub sp,sp,#92
 1743 0008 7049     	 ldr r1,.L463
 1744 000a FFF7FEFF 	 bl SDMMC_BLOCK_SD_lStartTimer
 1745 000e 2368     	 ldr r3,[r4]
 1746 0010 5A6D     	 ldr r2,[r3,#84]
 1747 0012 0546     	 mov r5,r0
 1748 0014 002A     	 cmp r2,#0
 1749 0016 00F00982 	 beq .L433
 1750              	.L445:
 1751 001a 93F85C20 	 ldrb r2,[r3,#92]
 1752 001e 22B1     	 cbz r2,.L405
 1753 0020 1A68     	 ldr r2,[r3]
 1754 0022 928D     	 ldrh r2,[r2,#44]
 1755 0024 9607     	 lsls r6,r2,#30
 1756 0026 F8D5     	 bpl .L445
 1757 0028 00E0     	 b .L368
 1758              	.L405:
 1759 002a 2E25     	 movs r5,#46
 1760              	.L368:
 1761 002c 2046     	 mov r0,r4
 1762 002e FFF7FEFF 	 bl SDMMC_BLOCK_SD_lStopTimer.isra.2
 1763 0032 2368     	 ldr r3,[r4]
 1764 0034 586D     	 ldr r0,[r3,#84]
 1765 0036 FFF7FEFF 	 bl SYSTIMER_DeleteTimer
 1766 003a 2E2D     	 cmp r5,#46
 1767 003c 00F0F681 	 beq .L433
 1768 0040 2368     	 ldr r3,[r4]
 1769 0042 1A68     	 ldr r2,[r3]
 1770 0044 938D     	 ldrh r3,[r2,#44]
 1771 0046 9BB2     	 uxth r3,r3
 1772 0048 43F00403 	 orr r3,r3,#4
 1773 004c 9385     	 strh r3,[r2,#44]
 1774 004e 2368     	 ldr r3,[r4]
 1775 0050 1A68     	 ldr r2,[r3]
 1776 0052 92F82930 	 ldrb r3,[r2,#41]
 1777 0056 43F00103 	 orr r3,r3,#1
 1778 005a 82F82930 	 strb r3,[r2,#41]
 1779 005e 2368     	 ldr r3,[r4]
 1780 0060 93F85E70 	 ldrb r7,[r3,#94]
 1781 0064 002F     	 cmp r7,#0
 1782 0066 40F0E181 	 bne .L433
 1783              	.L375:
 1784 006a 0022     	 movs r2,#0
 1785 006c 0092     	 str r2,[sp]
 1786 006e 2046     	 mov r0,r4
 1787 0070 5749     	 ldr r1,.L463+4
 1788 0072 1346     	 mov r3,r2
 1789 0074 FFF7FEFF 	 bl SDMMC_BLOCK_SD_lSendCommand
 1790 0078 8046     	 mov r8,r0
 1791 007a 0546     	 mov r5,r0
 1792 007c 0028     	 cmp r0,#0
 1793 007e 40F0E080 	 bne .L415
 1794 0082 16AE     	 add r6,sp,#88
 1795 0084 5349     	 ldr r1,.L463+8
 1796 0086 46F8400D 	 str r0,[r6,#-64]!
 1797 008a 4FF4D572 	 mov r2,#426
 1798 008e 0096     	 str r6,[sp]
 1799 0090 2046     	 mov r0,r4
 1800 0092 0623     	 movs r3,#6
 1801 0094 FFF7FEFF 	 bl SDMMC_BLOCK_SD_lSendCommand
 1802 0098 58B9     	 cbnz r0,.L371
 1803 009a 069B     	 ldr r3,[sp,#24]
 1804 009c DAB2     	 uxtb r2,r3
 1805 009e AA2A     	 cmp r2,#170
 1806 00a0 0FD1     	 bne .L407
 1807 00a2 C3F30323 	 ubfx r3,r3,#8,#4
 1808 00a6 012B     	 cmp r3,#1
 1809 00a8 0BD1     	 bne .L407
 1810 00aa 2268     	 ldr r2,[r4]
 1811 00ac 82F85030 	 strb r3,[r2,#80]
 1812 00b0 08E0     	 b .L372
 1813              	.L371:
 1814 00b2 2368     	 ldr r3,[r4]
 1815 00b4 5A7E     	 ldrb r2,[r3,#25]
 1816 00b6 022A     	 cmp r2,#2
 1817 00b8 04D1     	 bne .L372
 1818 00ba 83F85080 	 strb r8,[r3,#80]
 1819 00be 4046     	 mov r0,r8
 1820 00c0 00E0     	 b .L372
 1821              	.L407:
 1822 00c2 1920     	 movs r0,#25
 1823              	.L372:
 1824 00c4 17B1     	 cbz r7,.L373
 1825              	.L376:
 1826 00c6 30B1     	 cbz r0,.L374
 1827 00c8 0546     	 mov r5,r0
 1828 00ca B9E0     	 b .L370
 1829              	.L373:
 1830 00cc 1928     	 cmp r0,#25
 1831 00ce 4FF00107 	 mov r7,#1
 1832 00d2 CAD0     	 beq .L375
 1833 00d4 F7E7     	 b .L376
 1834              	.L374:
 1835 00d6 2368     	 ldr r3,[r4]
 1836 00d8 3F49     	 ldr r1,.L463+12
 1837 00da B3F84C70 	 ldrh r7,[r3,#76]
 1838 00de 16AB     	 add r3,sp,#88
 1839 00e0 3A46     	 mov r2,r7
 1840 00e2 43F8480D 	 str r0,[r3,#-72]!
 1841 00e6 2046     	 mov r0,r4
 1842 00e8 0093     	 str r3,[sp]
 1843 00ea 0123     	 movs r3,#1
 1844 00ec FFF7FEFF 	 bl SDMMC_BLOCK_SD_lSendCommand
 1845 00f0 2368     	 ldr r3,[r4]
 1846 00f2 93F85020 	 ldrb r2,[r3,#80]
 1847 00f6 0546     	 mov r5,r0
 1848 00f8 0AB9     	 cbnz r2,.L377
 1849 00fa 1228     	 cmp r0,#18
 1850 00fc 02D0     	 beq .L378
 1851              	.L377:
 1852 00fe 002D     	 cmp r5,#0
 1853 0100 40F09F80 	 bne .L415
 1854              	.L378:
 1855 0104 2033     	 adds r3,r3,#32
 1856 0106 0093     	 str r3,[sp]
 1857 0108 2046     	 mov r0,r4
 1858 010a 3449     	 ldr r1,.L463+16
 1859 010c 3A46     	 mov r2,r7
 1860 010e 0423     	 movs r3,#4
 1861 0110 FFF7FEFF 	 bl SDMMC_BLOCK_SD_lSendCommand
 1862 0114 1228     	 cmp r0,#18
 1863 0116 0546     	 mov r5,r0
 1864 0118 02D0     	 beq .L380
 1865 011a 0028     	 cmp r0,#0
 1866 011c 40F09180 	 bne .L415
 1867              	.L380:
 1868 0120 0027     	 movs r7,#0
 1869 0122 2368     	 ldr r3,[r4]
 1870 0124 0697     	 str r7,[sp,#24]
 1871 0126 93F85030 	 ldrb r3,[r3,#80]
 1872 012a BB42     	 cmp r3,r7
 1873 012c 2C4B     	 ldr r3,.L463+20
 1874 012e 0CBF     	 ite eq
 1875 0130 4FF48018 	 moveq r8,#1048576
 1876 0134 9846     	 movne r8,r3
 1877              	.L387:
 1878 0136 0096     	 str r6,[sp]
 1879 0138 2046     	 mov r0,r4
 1880 013a 2749     	 ldr r1,.L463+12
 1881 013c 0022     	 movs r2,#0
 1882 013e 0123     	 movs r3,#1
 1883 0140 FFF7FEFF 	 bl SDMMC_BLOCK_SD_lSendCommand
 1884 0144 0546     	 mov r5,r0
 1885 0146 58BB     	 cbnz r0,.L409
 1886 0148 2368     	 ldr r3,[r4]
 1887 014a 2449     	 ldr r1,.L463+16
 1888 014c 2033     	 adds r3,r3,#32
 1889 014e 0093     	 str r3,[sp]
 1890 0150 2046     	 mov r0,r4
 1891 0152 4246     	 mov r2,r8
 1892 0154 0423     	 movs r3,#4
 1893 0156 FFF7FEFF 	 bl SDMMC_BLOCK_SD_lSendCommand
 1894 015a 08B1     	 cbz r0,.L383
 1895 015c 1228     	 cmp r0,#18
 1896 015e 2AD1     	 bne .L410
 1897              	.L383:
 1898 0160 2368     	 ldr r3,[r4]
 1899 0162 0122     	 movs r2,#1
 1900 0164 83F85C20 	 strb r2,[r3,#92]
 1901 0168 2368     	 ldr r3,[r4]
 1902 016a 1E4A     	 ldr r2,.L463+24
 1903 016c 0021     	 movs r1,#0
 1904 016e 5965     	 str r1,[r3,#84]
 1905 0170 44F62060 	 movw r0,#20000
 1906 0174 2346     	 mov r3,r4
 1907 0176 FFF7FEFF 	 bl SYSTIMER_CreateTimer
 1908 017a 8146     	 mov r9,r0
 1909 017c 88B1     	 cbz r0,.L382
 1910 017e 2368     	 ldr r3,[r4]
 1911 0180 5865     	 str r0,[r3,#84]
 1912 0182 FFF7FEFF 	 bl SYSTIMER_StartTimer
 1913 0186 60B9     	 cbnz r0,.L382
 1914 0188 2268     	 ldr r2,[r4]
 1915              	.L386:
 1916 018a 92F85C30 	 ldrb r3,[r2,#92]
 1917 018e 002B     	 cmp r3,#0
 1918 0190 FBD1     	 bne .L386
 1919 0192 4846     	 mov r0,r9
 1920 0194 FFF7FEFF 	 bl SYSTIMER_StopTimer
 1921 0198 4846     	 mov r0,r9
 1922 019a FFF7FEFF 	 bl SYSTIMER_DeleteTimer
 1923 019e 00E0     	 b .L382
 1924              	.L409:
 1925 01a0 6427     	 movs r7,#100
 1926              	.L382:
 1927 01a2 312F     	 cmp r7,#49
 1928 01a4 07F10102 	 add r2,r7,#1
 1929 01a8 06D8     	 bhi .L384
 1930 01aa 2368     	 ldr r3,[r4]
 1931 01ac 1B6A     	 ldr r3,[r3,#32]
 1932 01ae 002B     	 cmp r3,#0
 1933 01b0 02DB     	 blt .L384
 1934 01b2 1746     	 mov r7,r2
 1935 01b4 BFE7     	 b .L387
 1936              	.L410:
 1937 01b6 0546     	 mov r5,r0
 1938              	.L384:
 1939 01b8 002D     	 cmp r5,#0
 1940 01ba 42D1     	 bne .L415
 1941 01bc 2268     	 ldr r2,[r4]
 1942 01be 637A     	 ldrb r3,[r4,#9]
 1943 01c0 92F85010 	 ldrb r1,[r2,#80]
 1944 01c4 81B9     	 cbnz r1,.L388
 1945 01c6 43F00203 	 orr r3,r3,#2
 1946 01ca 14E0     	 b .L460
 1947              	.L464:
 1948              	 .align 2
 1949              	.L463:
 1950 01cc 40420F00 	 .word 1000000
 1951 01d0 00000000 	 .word .LANCHOR0
 1952 01d4 0C000000 	 .word .LANCHOR0+12
 1953 01d8 32000000 	 .word .LANCHOR0+50
 1954 01dc 3E000000 	 .word .LANCHOR0+62
 1955 01e0 00001040 	 .word 1074790400
 1956 01e4 00000000 	 .word SDMMC_BLOCK_SD_TimerCallback
 1957              	.L388:
 1958 01e8 116A     	 ldr r1,[r2,#32]
 1959 01ea 4800     	 lsls r0,r1,#1
 1960 01ec 4CBF     	 ite mi
 1961 01ee 43F00C03 	 orrmi r3,r3,#12
 1962 01f2 43F00103 	 orrpl r3,r3,#1
 1963              	.L460:
 1964 01f6 2432     	 adds r2,r2,#36
 1965 01f8 6372     	 strb r3,[r4,#9]
 1966 01fa 0092     	 str r2,[sp]
 1967 01fc 2046     	 mov r0,r4
 1968 01fe 8D49     	 ldr r1,.L465
 1969 0200 0022     	 movs r2,#0
 1970 0202 0323     	 movs r3,#3
 1971 0204 FFF7FEFF 	 bl SDMMC_BLOCK_SD_lSendCommand
 1972 0208 0546     	 mov r5,r0
 1973 020a D0B9     	 cbnz r0,.L415
 1974 020c 2368     	 ldr r3,[r4]
 1975 020e 8A49     	 ldr r1,.L465+4
 1976 0210 4C33     	 adds r3,r3,#76
 1977 0212 0093     	 str r3,[sp]
 1978 0214 2A46     	 mov r2,r5
 1979 0216 2046     	 mov r0,r4
 1980 0218 0523     	 movs r3,#5
 1981 021a FFF7FEFF 	 bl SDMMC_BLOCK_SD_lSendCommand
 1982 021e 0546     	 mov r5,r0
 1983 0220 78B9     	 cbnz r0,.L415
 1984 0222 2046     	 mov r0,r4
 1985 0224 3146     	 mov r1,r6
 1986 0226 FFF7FEFF 	 bl SDMMC_BLOCK_SD_GetLockStatus
 1987 022a 0546     	 mov r5,r0
 1988 022c 48B9     	 cbnz r0,.L415
 1989 022e 9DF81830 	 ldrb r3,[sp,#24]
 1990 0232 012B     	 cmp r3,#1
 1991 0234 237A     	 ldrb r3,[r4,#8]
 1992 0236 23F00303 	 bic r3,r3,#3
 1993 023a 08BF     	 it eq
 1994 023c 2B25     	 moveq r5,#43
 1995 023e 2372     	 strb r3,[r4,#8]
 1996              	.L370:
 1997 0240 15B1     	 cbz r5,.L391
 1998              	.L415:
 1999 0242 2B2D     	 cmp r5,#43
 2000 0244 40F0F280 	 bne .L433
 2001              	.L391:
 2002 0248 0023     	 movs r3,#0
 2003 024a 0393     	 str r3,[sp,#12]
 2004 024c 0493     	 str r3,[sp,#16]
 2005 024e 0593     	 str r3,[sp,#20]
 2006 0250 2368     	 ldr r3,[r4]
 2007 0252 267A     	 ldrb r6,[r4,#8]
 2008 0254 B3F84C70 	 ldrh r7,[r3,#76]
 2009 0258 7849     	 ldr r1,.L465+8
 2010 025a 3433     	 adds r3,r3,#52
 2011 025c 3F04     	 lsls r7,r7,#16
 2012 025e 06F00806 	 and r6,r6,#8
 2013 0262 0093     	 str r3,[sp]
 2014 0264 2046     	 mov r0,r4
 2015 0266 3A46     	 mov r2,r7
 2016 0268 0323     	 movs r3,#3
 2017 026a F6B2     	 uxtb r6,r6
 2018 026c FFF7FEFF 	 bl SDMMC_BLOCK_SD_lSendCommand
 2019 0270 0028     	 cmp r0,#0
 2020 0272 4ED1     	 bne .L392
 2021 0274 002E     	 cmp r6,#0
 2022 0276 4CD1     	 bne .L392
 2023 0278 3146     	 mov r1,r6
 2024 027a 4022     	 movs r2,#64
 2025 027c 06A8     	 add r0,sp,#24
 2026 027e FFF7FEFF 	 bl memset
 2027 0282 2046     	 mov r0,r4
 2028 0284 06A9     	 add r1,sp,#24
 2029 0286 FFF7FEFF 	 bl SDMMC_BLOCK_SD_GetSdStatus
 2030 028a 0546     	 mov r5,r0
 2031 028c 0028     	 cmp r0,#0
 2032 028e 40F0CD80 	 bne .L433
 2033 0292 069B     	 ldr r3,[sp,#24]
 2034 0294 C3F30742 	 ubfx r2,r3,#16,#8
 2035 0298 1B0E     	 lsrs r3,r3,#24
 2036 029a 53EA0223 	 orrs r3,r3,r2,lsl#8
 2037 029e 1EBF     	 ittt ne
 2038 02a0 237A     	 ldrbne r3,[r4,#8]
 2039 02a2 43F00403 	 orrne r3,r3,#4
 2040 02a6 2372     	 strbne r3,[r4,#8]
 2041 02a8 637A     	 ldrb r3,[r4,#9]
 2042 02aa D906     	 lsls r1,r3,#27
 2043 02ac 40D4     	 bmi .L431
 2044 02ae 2046     	 mov r0,r4
 2045 02b0 FFF7FEFF 	 bl SDMMC_BLOCK_SD_lSwitchToTransferState
 2046 02b4 0546     	 mov r5,r0
 2047 02b6 0028     	 cmp r0,#0
 2048 02b8 40F0B880 	 bne .L433
 2049 02bc 2368     	 ldr r3,[r4]
 2050 02be 6049     	 ldr r1,.L465+12
 2051 02c0 B3F84C20 	 ldrh r2,[r3,#76]
 2052 02c4 03AB     	 add r3,sp,#12
 2053 02c6 0093     	 str r3,[sp]
 2054 02c8 2046     	 mov r0,r4
 2055 02ca 47EA0242 	 orr r2,r7,r2,lsl#16
 2056 02ce 0123     	 movs r3,#1
 2057 02d0 FFF7FEFF 	 bl SDMMC_BLOCK_SD_lSendCommand
 2058 02d4 0546     	 mov r5,r0
 2059 02d6 0028     	 cmp r0,#0
 2060 02d8 40F0A880 	 bne .L433
 2061 02dc 2368     	 ldr r3,[r4]
 2062 02de 5949     	 ldr r1,.L465+16
 2063 02e0 1A68     	 ldr r2,[r3]
 2064 02e2 9389     	 ldrh r3,[r2,#12]
 2065 02e4 9BB2     	 uxth r3,r3
 2066 02e6 23F01003 	 bic r3,r3,#16
 2067 02ea 43F01003 	 orr r3,r3,#16
 2068 02ee 9381     	 strh r3,[r2,#12]
 2069 02f0 04AF     	 add r7,sp,#16
 2070 02f2 0123     	 movs r3,#1
 2071 02f4 0193     	 str r3,[sp,#4]
 2072 02f6 2A46     	 mov r2,r5
 2073 02f8 0823     	 movs r3,#8
 2074 02fa 0097     	 str r7,[sp]
 2075 02fc 2046     	 mov r0,r4
 2076 02fe FFF7FEFF 	 bl SDMMC_BLOCK_SD_lSingleBlockTransfer
 2077 0302 2368     	 ldr r3,[r4]
 2078 0304 0546     	 mov r5,r0
 2079 0306 97E80300 	 ldmia r7,{r0,r1}
 2080 030a 4433     	 adds r3,r3,#68
 2081 030c 83E80300 	 stmia r3,{r0,r1}
 2082 0310 0CE0     	 b .L394
 2083              	.L392:
 2084 0312 2046     	 mov r0,r4
 2085 0314 FFF7FEFF 	 bl SDMMC_BLOCK_SD_lSwitchToTransferState
 2086 0318 2368     	 ldr r3,[r4]
 2087 031a 1A68     	 ldr r2,[r3]
 2088 031c 9389     	 ldrh r3,[r2,#12]
 2089 031e 9BB2     	 uxth r3,r3
 2090 0320 23F01003 	 bic r3,r3,#16
 2091 0324 43F01003 	 orr r3,r3,#16
 2092 0328 0546     	 mov r5,r0
 2093 032a 9381     	 strh r3,[r2,#12]
 2094              	.L394:
 2095 032c 002D     	 cmp r5,#0
 2096 032e 7DD1     	 bne .L433
 2097              	.L431:
 2098 0330 04AB     	 add r3,sp,#16
 2099 0332 0093     	 str r3,[sp]
 2100 0334 2046     	 mov r0,r4
 2101 0336 4449     	 ldr r1,.L465+20
 2102 0338 4FF40072 	 mov r2,#512
 2103 033c 0123     	 movs r3,#1
 2104 033e FFF7FEFF 	 bl SDMMC_BLOCK_SD_lSendCommand
 2105 0342 0546     	 mov r5,r0
 2106 0344 0028     	 cmp r0,#0
 2107 0346 71D1     	 bne .L433
 2108 0348 002E     	 cmp r6,#0
 2109 034a 63D1     	 bne .L395
 2110 034c 16AE     	 add r6,sp,#88
 2111 034e 46F8400D 	 str r0,[r6,#-64]!
 2112 0352 2046     	 mov r0,r4
 2113 0354 FFF7FEFF 	 bl SDMMC_BLOCK_SD_lSwitchToTransferState
 2114 0358 50BB     	 cbnz r0,.L416
 2115 035a 2368     	 ldr r3,[r4]
 2116 035c 4021     	 movs r1,#64
 2117 035e 1868     	 ldr r0,[r3]
 2118 0360 FFF7FEFF 	 bl XMC_SDMMC_DisableEvent
 2119 0364 2368     	 ldr r3,[r4]
 2120 0366 93F84520 	 ldrb r2,[r3,#69]
 2121 036a 5207     	 lsls r2,r2,#29
 2122 036c 0CD4     	 bmi .L398
 2123              	.L399:
 2124 036e 2368     	 ldr r3,[r4]
 2125 0370 1B68     	 ldr r3,[r3]
 2126 0372 93F82820 	 ldrb r2,[r3,#40]
 2127 0376 02F0DD02 	 and r2,r2,#221
 2128 037a 83F82820 	 strb r2,[r3,#40]
 2129 037e 93F82820 	 ldrb r2,[r3,#40]
 2130 0382 42F00202 	 orr r2,r2,#2
 2131 0386 1EE0     	 b .L461
 2132              	.L398:
 2133 0388 B3F84C20 	 ldrh r2,[r3,#76]
 2134 038c 2C49     	 ldr r1,.L465+12
 2135 038e 0096     	 str r6,[sp]
 2136 0390 2046     	 mov r0,r4
 2137 0392 1204     	 lsls r2,r2,#16
 2138 0394 0123     	 movs r3,#1
 2139 0396 FFF7FEFF 	 bl SDMMC_BLOCK_SD_lSendCommand
 2140 039a 40B9     	 cbnz r0,.L397
 2141 039c 0096     	 str r6,[sp]
 2142 039e 2046     	 mov r0,r4
 2143 03a0 2A49     	 ldr r1,.L465+24
 2144 03a2 0222     	 movs r2,#2
 2145 03a4 0123     	 movs r3,#1
 2146 03a6 FFF7FEFF 	 bl SDMMC_BLOCK_SD_lSendCommand
 2147 03aa 0028     	 cmp r0,#0
 2148 03ac DFD0     	 beq .L399
 2149              	.L397:
 2150 03ae 60B1     	 cbz r0,.L400
 2151              	.L416:
 2152 03b0 2368     	 ldr r3,[r4]
 2153 03b2 1B68     	 ldr r3,[r3]
 2154 03b4 93F82820 	 ldrb r2,[r3,#40]
 2155 03b8 02F0DD02 	 and r2,r2,#221
 2156 03bc 83F82820 	 strb r2,[r3,#40]
 2157 03c0 93F82820 	 ldrb r2,[r3,#40]
 2158 03c4 D2B2     	 uxtb r2,r2
 2159              	.L461:
 2160 03c6 83F82820 	 strb r2,[r3,#40]
 2161              	.L400:
 2162 03ca 3046     	 mov r0,r6
 2163 03cc 0021     	 movs r1,#0
 2164 03ce 4022     	 movs r2,#64
 2165 03d0 FFF7FEFF 	 bl memset
 2166 03d4 2368     	 ldr r3,[r4]
 2167 03d6 93F84430 	 ldrb r3,[r3,#68]
 2168 03da 1B07     	 lsls r3,r3,#28
 2169 03dc 12D0     	 beq .L417
 2170 03de 2046     	 mov r0,r4
 2171 03e0 FFF7FEFF 	 bl SDMMC_BLOCK_SD_lSwitchToTransferState
 2172 03e4 70B9     	 cbnz r0,.L417
 2173 03e6 0123     	 movs r3,#1
 2174 03e8 0193     	 str r3,[sp,#4]
 2175 03ea 0096     	 str r6,[sp]
 2176 03ec 2046     	 mov r0,r4
 2177 03ee 1849     	 ldr r1,.L465+28
 2178 03f0 184A     	 ldr r2,.L465+32
 2179 03f2 4023     	 movs r3,#64
 2180 03f4 FFF7FEFF 	 bl SDMMC_BLOCK_SD_lSingleBlockTransfer
 2181 03f8 20B9     	 cbnz r0,.L417
 2182 03fa 0A9B     	 ldr r3,[sp,#40]
 2183 03fc 03F00F03 	 and r3,r3,#15
 2184 0400 012B     	 cmp r3,#1
 2185 0402 0CD0     	 beq .L459
 2186              	.L417:
 2187 0404 2368     	 ldr r3,[r4]
 2188 0406 1A68     	 ldr r2,[r3]
 2189 0408 92F82830 	 ldrb r3,[r2,#40]
 2190 040c 03F0FB03 	 and r3,r3,#251
 2191              	.L462:
 2192 0410 82F82830 	 strb r3,[r2,#40]
 2193              	.L395:
 2194 0414 2368     	 ldr r3,[r4]
 2195 0416 0122     	 movs r2,#1
 2196 0418 83F85E20 	 strb r2,[r3,#94]
 2197 041c 06E0     	 b .L433
 2198              	.L459:
 2199 041e 2368     	 ldr r3,[r4]
 2200 0420 1A68     	 ldr r2,[r3]
 2201 0422 92F82830 	 ldrb r3,[r2,#40]
 2202 0426 43F00403 	 orr r3,r3,#4
 2203 042a F1E7     	 b .L462
 2204              	.L433:
 2205 042c 2846     	 mov r0,r5
 2206 042e 17B0     	 add sp,sp,#92
 2207              	 
 2208 0430 BDE8F083 	 pop {r4,r5,r6,r7,r8,r9,pc}
 2209              	.L466:
 2210              	 .align 2
 2211              	.L465:
 2212 0434 02000000 	 .word .LANCHOR0+2
 2213 0438 04000000 	 .word .LANCHOR0+4
 2214 043c 0E000000 	 .word .LANCHOR0+14
 2215 0440 32000000 	 .word .LANCHOR0+50
 2216 0444 42000000 	 .word .LANCHOR0+66
 2217 0448 18000000 	 .word .LANCHOR0+24
 2218 044c 36000000 	 .word .LANCHOR0+54
 2219 0450 08000000 	 .word .LANCHOR0+8
 2220 0454 01000080 	 .word -2147483647
 2222              	 .section .text.SDMMC_BLOCK_SD_EraseBlock,"ax",%progbits
 2223              	 .align 1
 2224              	 .global SDMMC_BLOCK_SD_EraseBlock
 2225              	 .thumb
 2226              	 .thumb_func
 2228              	SDMMC_BLOCK_SD_EraseBlock:
 2229              	 
 2230              	 
 2231 0000 2DE9F04F 	 push {r4,r5,r6,r7,r8,r9,r10,fp,lr}
 2232 0004 354D     	 ldr r5,.L481
 2233 0006 0646     	 mov r6,r0
 2234 0008 8846     	 mov r8,r1
 2235 000a 9146     	 mov r9,r2
 2236 000c 0FCD     	 ldmia r5!,{r0,r1,r2,r3}
 2237 000e 9BB0     	 sub sp,sp,#108
 2238 0010 6C46     	 mov r4,sp
 2239 0012 0FC4     	 stmia r4!,{r0,r1,r2,r3}
 2240 0014 0FCD     	 ldmia r5!,{r0,r1,r2,r3}
 2241 0016 0FC4     	 stmia r4!,{r0,r1,r2,r3}
 2242 0018 95E80300 	 ldmia r5,{r0,r1}
 2243 001c 4022     	 movs r2,#64
 2244 001e 84E80300 	 stmia r4,{r0,r1}
 2245 0022 0AA8     	 add r0,sp,#40
 2246 0024 0021     	 movs r1,#0
 2247 0026 FFF7FEFF 	 bl memset
 2248 002a 3268     	 ldr r2,[r6]
 2249 002c 0123     	 movs r3,#1
 2250 002e 5376     	 strb r3,[r2,#25]
 2251 0030 3268     	 ldr r2,[r6]
 2252 0032 1376     	 strb r3,[r2,#24]
 2253 0034 3268     	 ldr r2,[r6]
 2254 0036 9376     	 strb r3,[r2,#26]
 2255 0038 337A     	 ldrb r3,[r6,#8]
 2256 003a 5807     	 lsls r0,r3,#29
 2257 003c 40D4     	 bmi .L474
 2258 003e 09F10107 	 add r7,r9,#1
 2259 0042 C8EB0707 	 rsb r7,r8,r7
 2260 0046 3046     	 mov r0,r6
 2261 0048 4146     	 mov r1,r8
 2262 004a 3A46     	 mov r2,r7
 2263 004c FFF7FEFF 	 bl SDMMC_BLOCK_SD_lCheckSectorBound
 2264 0050 0546     	 mov r5,r0
 2265 0052 B0BB     	 cbnz r0,.L468
 2266 0054 3046     	 mov r0,r6
 2267 0056 0AA9     	 add r1,sp,#40
 2268 0058 FFF7FEFF 	 bl SDMMC_BLOCK_SD_GetSdStatus
 2269 005c 0546     	 mov r5,r0
 2270 005e 80BB     	 cbnz r0,.L468
 2271 0060 0D9A     	 ldr r2,[sp,#52]
 2272 0062 0C9B     	 ldr r3,[sp,#48]
 2273 0064 D1B2     	 uxtb r1,r2
 2274 0066 4FEA136A 	 lsr r10,r3,#24
 2275 006a C2F38524 	 ubfx r4,r2,#10,#6
 2276 006e C2F30122 	 ubfx r2,r2,#8,#2
 2277 0072 41EA0A2A 	 orr r10,r1,r10,lsl#8
 2278 0076 C3F30353 	 ubfx r3,r3,#20,#4
 2279 007a B4FBFAF4 	 udiv r4,r4,r10
 2280 007e 1444     	 add r4,r4,r2
 2281 0080 1AAA     	 add r2,sp,#104
 2282 0082 02EB8303 	 add r3,r2,r3,lsl#2
 2283 0086 53F8683C 	 ldr r3,[r3,#-104]
 2284 008a 03FB0AFA 	 mul r10,r3,r10
 2285              	.L469:
 2286 008e 5745     	 cmp r7,r10
 2287 0090 0DD3     	 bcc .L470
 2288 0092 08EB0A0B 	 add fp,r8,r10
 2289 0096 3046     	 mov r0,r6
 2290 0098 4146     	 mov r1,r8
 2291 009a 5A46     	 mov r2,fp
 2292 009c 2346     	 mov r3,r4
 2293 009e FFF7FEFF 	 bl SDMMC_BLOCK_SD_lLocalErase
 2294 00a2 18B9     	 cbnz r0,.L475
 2295 00a4 CAEB0707 	 rsb r7,r10,r7
 2296 00a8 D846     	 mov r8,fp
 2297 00aa F0E7     	 b .L469
 2298              	.L475:
 2299 00ac 0546     	 mov r5,r0
 2300              	.L470:
 2301 00ae 47B1     	 cbz r7,.L468
 2302 00b0 3046     	 mov r0,r6
 2303 00b2 4146     	 mov r1,r8
 2304 00b4 4A46     	 mov r2,r9
 2305 00b6 2346     	 mov r3,r4
 2306 00b8 FFF7FEFF 	 bl SDMMC_BLOCK_SD_lLocalErase
 2307 00bc 0546     	 mov r5,r0
 2308 00be 00E0     	 b .L468
 2309              	.L474:
 2310 00c0 0F25     	 movs r5,#15
 2311              	.L468:
 2312 00c2 3368     	 ldr r3,[r6]
 2313 00c4 1B68     	 ldr r3,[r3]
 2314              	.L472:
 2315 00c6 5A6A     	 ldr r2,[r3,#36]
 2316 00c8 9107     	 lsls r1,r2,#30
 2317 00ca FCD4     	 bmi .L472
 2318 00cc 5A6A     	 ldr r2,[r3,#36]
 2319 00ce D207     	 lsls r2,r2,#31
 2320 00d0 F9D4     	 bmi .L472
 2321 00d2 2846     	 mov r0,r5
 2322 00d4 1BB0     	 add sp,sp,#108
 2323              	 
 2324 00d6 BDE8F08F 	 pop {r4,r5,r6,r7,r8,r9,r10,fp,pc}
 2325              	.L482:
 2326 00da 00BF     	 .align 2
 2327              	.L481:
 2328 00dc 00000000 	 .word .LANCHOR1
 2330              	 .section .text.SDMMC_BLOCK_SD_EjectCard,"ax",%progbits
 2331              	 .align 1
 2332              	 .global SDMMC_BLOCK_SD_EjectCard
 2333              	 .thumb
 2334              	 .thumb_func
 2336              	SDMMC_BLOCK_SD_EjectCard:
 2337              	 
 2338              	 
 2339 0000 37B5     	 push {r0,r1,r2,r4,r5,lr}
 2340 0002 027A     	 ldrb r2,[r0,#8]
 2341 0004 02F00202 	 and r2,r2,#2
 2342 0008 0546     	 mov r5,r0
 2343 000a 02F0FF03 	 and r3,r2,#255
 2344 000e 82B9     	 cbnz r2,.L485
 2345 0010 0268     	 ldr r2,[r0]
 2346 0012 0A49     	 ldr r1,.L486
 2347 0014 B2F84C20 	 ldrh r2,[r2,#76]
 2348 0018 0093     	 str r3,[sp]
 2349 001a 1204     	 lsls r2,r2,#16
 2350 001c FFF7FEFF 	 bl SDMMC_BLOCK_SD_lSendCommand
 2351 0020 0446     	 mov r4,r0
 2352 0022 38B9     	 cbnz r0,.L484
 2353 0024 2846     	 mov r0,r5
 2354 0026 FFF7FEFF 	 bl SDMMC_BLOCK_SD_lCardCleanUp
 2355 002a 2B68     	 ldr r3,[r5]
 2356 002c 83F85E40 	 strb r4,[r3,#94]
 2357 0030 00E0     	 b .L484
 2358              	.L485:
 2359 0032 0124     	 movs r4,#1
 2360              	.L484:
 2361 0034 2046     	 mov r0,r4
 2362 0036 03B0     	 add sp,sp,#12
 2363              	 
 2364 0038 30BD     	 pop {r4,r5,pc}
 2365              	.L487:
 2366 003a 00BF     	 .align 2
 2367              	.L486:
 2368 003c 16000000 	 .word .LANCHOR0+22
 2370              	 .section .text.SDMMC_BLOCK_SD_Start,"ax",%progbits
 2371              	 .align 1
 2372              	 .global SDMMC_BLOCK_SD_Start
 2373              	 .thumb
 2374              	 .thumb_func
 2376              	SDMMC_BLOCK_SD_Start:
 2377              	 
 2378              	 
 2379 0000 F7B5     	 push {r0,r1,r2,r4,r5,r6,r7,lr}
 2380 0002 037A     	 ldrb r3,[r0,#8]
 2381 0004 5A06     	 lsls r2,r3,#25
 2382 0006 0446     	 mov r4,r0
 2383 0008 01D5     	 bpl .L489
 2384              	.L492:
 2385 000a 2C20     	 movs r0,#44
 2386 000c 74E0     	 b .L490
 2387              	.L489:
 2388 000e 3B4B     	 ldr r3,.L496
 2389 0010 D968     	 ldr r1,[r3,#12]
 2390 0012 0368     	 ldr r3,[r0]
 2391 0014 C1F30221 	 ubfx r1,r1,#8,#3
 2392 0018 C1F10707 	 rsb r7,r1,#7
 2393 001c 062F     	 cmp r7,#6
 2394 001e DA68     	 ldr r2,[r3,#12]
 2395 0020 1E69     	 ldr r6,[r3,#16]
 2396 0022 28BF     	 it cs
 2397 0024 0627     	 movcs r7,#6
 2398 0026 09B1     	 cbz r1,.L495
 2399 0028 481E     	 subs r0,r1,#1
 2400 002a 00E0     	 b .L491
 2401              	.L495:
 2402 002c 0846     	 mov r0,r1
 2403              	.L491:
 2404 002e 0121     	 movs r1,#1
 2405 0030 01FA00F3 	 lsl r3,r1,r0
 2406 0034 013B     	 subs r3,r3,#1
 2407 0036 03EA0605 	 and r5,r3,r6
 2408 003a 01FA07F3 	 lsl r3,r1,r7
 2409 003e 013B     	 subs r3,r3,#1
 2410 0040 1340     	 ands r3,r3,r2
 2411 0042 8340     	 lsls r3,r3,r0
 2412 0044 2B43     	 orrs r3,r3,r5
 2413 0046 2E4A     	 ldr r2,.L496+4
 2414 0048 9B00     	 lsls r3,r3,#2
 2415 004a DBB2     	 uxtb r3,r3
 2416 004c 82F86A33 	 strb r3,[r2,#874]
 2417 0050 4FF48063 	 mov r3,#1024
 2418 0054 C2F88C31 	 str r3,[r2,#396]
 2419 0058 D360     	 str r3,[r2,#12]
 2420 005a 237A     	 ldrb r3,[r4,#8]
 2421 005c 5B06     	 lsls r3,r3,#25
 2422 005e D4D4     	 bmi .L492
 2423 0060 2046     	 mov r0,r4
 2424 0062 FFF7FEFF 	 bl SDMMC_BLOCK_SD_lReset
 2425 0066 0028     	 cmp r0,#0
 2426 0068 46D1     	 bne .L490
 2427 006a 2368     	 ldr r3,[r4]
 2428 006c 1A68     	 ldr r2,[r3]
 2429 006e 938D     	 ldrh r3,[r2,#44]
 2430 0070 23F00103 	 bic r3,r3,#1
 2431 0074 1B04     	 lsls r3,r3,#16
 2432 0076 1B0C     	 lsrs r3,r3,#16
 2433 0078 9385     	 strh r3,[r2,#44]
 2434 007a 2368     	 ldr r3,[r4]
 2435 007c 1A68     	 ldr r2,[r3]
 2436 007e 938D     	 ldrh r3,[r2,#44]
 2437 0080 DBB2     	 uxtb r3,r3
 2438 0082 43F48073 	 orr r3,r3,#256
 2439 0086 9385     	 strh r3,[r2,#44]
 2440 0088 2368     	 ldr r3,[r4]
 2441 008a 1A68     	 ldr r2,[r3]
 2442 008c 938D     	 ldrh r3,[r2,#44]
 2443 008e 9BB2     	 uxth r3,r3
 2444 0090 43F00103 	 orr r3,r3,#1
 2445 0094 9385     	 strh r3,[r2,#44]
 2446 0096 2368     	 ldr r3,[r4]
 2447 0098 1B68     	 ldr r3,[r3]
 2448 009a F322     	 movs r2,#243
 2449 009c 9A86     	 strh r2,[r3,#52]
 2450 009e 2368     	 ldr r3,[r4]
 2451 00a0 1A68     	 ldr r2,[r3]
 2452 00a2 4EF2FF03 	 movw r3,#57599
 2453 00a6 D386     	 strh r3,[r2,#54]
 2454 00a8 2268     	 ldr r2,[r4]
 2455 00aa 1268     	 ldr r2,[r2]
 2456 00ac 3321     	 movs r1,#51
 2457 00ae 1187     	 strh r1,[r2,#56]
 2458 00b0 2268     	 ldr r2,[r4]
 2459 00b2 1268     	 ldr r2,[r2]
 2460 00b4 5387     	 strh r3,[r2,#58]
 2461 00b6 2368     	 ldr r3,[r4]
 2462 00b8 1A68     	 ldr r2,[r3]
 2463 00ba 92F82E30 	 ldrb r3,[r2,#46]
 2464 00be 03F0F003 	 and r3,r3,#240
 2465 00c2 43F00E03 	 orr r3,r3,#14
 2466 00c6 82F82E30 	 strb r3,[r2,#46]
 2467 00ca 2368     	 ldr r3,[r4]
 2468 00cc 1A68     	 ldr r2,[r3]
 2469 00ce 92F82930 	 ldrb r3,[r2,#41]
 2470 00d2 03F0F103 	 and r3,r3,#241
 2471 00d6 43F00E03 	 orr r3,r3,#14
 2472 00da 82F82930 	 strb r3,[r2,#41]
 2473 00de 237A     	 ldrb r3,[r4,#8]
 2474 00e0 43F04303 	 orr r3,r3,#67
 2475 00e4 2372     	 strb r3,[r4,#8]
 2476 00e6 0190     	 str r0,[sp,#4]
 2477              	.L493:
 2478 00e8 019A     	 ldr r2,[sp,#4]
 2479 00ea 064B     	 ldr r3,.L496+8
 2480 00ec 9A42     	 cmp r2,r3
 2481 00ee 03D8     	 bhi .L490
 2482 00f0 019B     	 ldr r3,[sp,#4]
 2483 00f2 0133     	 adds r3,r3,#1
 2484 00f4 0193     	 str r3,[sp,#4]
 2485 00f6 F7E7     	 b .L493
 2486              	.L490:
 2487 00f8 03B0     	 add sp,sp,#12
 2488              	 
 2489 00fa F0BD     	 pop {r4,r5,r6,r7,pc}
 2490              	.L497:
 2491              	 .align 2
 2492              	.L496:
 2493 00fc 00ED00E0 	 .word -536810240
 2494 0100 00E100E0 	 .word -536813312
 2495 0104 9F860100 	 .word 99999
 2497              	 .section .text.SDMMC_BLOCK_SD_Init,"ax",%progbits
 2498              	 .align 1
 2499              	 .global SDMMC_BLOCK_SD_Init
 2500              	 .thumb
 2501              	 .thumb_func
 2503              	SDMMC_BLOCK_SD_Init:
 2504              	 
 2505              	 
 2506 0000 10B5     	 push {r4,lr}
 2507 0002 0368     	 ldr r3,[r0]
 2508 0004 0446     	 mov r4,r0
 2509 0006 1868     	 ldr r0,[r3]
 2510 0008 FFF7FEFF 	 bl XMC_SDMMC_Enable
 2511 000c 2368     	 ldr r3,[r4]
 2512 000e 986D     	 ldr r0,[r3,#88]
 2513 0010 FFF7FEFF 	 bl SYSTIMER_Init
 2514 0014 0220     	 movs r0,#2
 2515 0016 FFF7FEFF 	 bl XMC_SCU_CLOCK_EnableClock
 2516 001a 237A     	 ldrb r3,[r4,#8]
 2517 001c 5B06     	 lsls r3,r3,#25
 2518 001e 06D5     	 bpl .L499
 2519 0020 2046     	 mov r0,r4
 2520 0022 FFF7FEFF 	 bl SDMMC_BLOCK_SD_lCardCleanUp
 2521 0026 2046     	 mov r0,r4
 2522 0028 0121     	 movs r1,#1
 2523 002a FFF7FEFF 	 bl SDMMC_BLOCK_SD_lReset
 2524              	.L499:
 2525 002e 2046     	 mov r0,r4
 2526 0030 BDE81040 	 pop {r4,lr}
 2527 0034 FFF7FEBF 	 b SDMMC_BLOCK_SD_Start
 2529              	 .section .text.SDMMC_BLOCK_SD_ReadBlock,"ax",%progbits
 2530              	 .align 1
 2531              	 .global SDMMC_BLOCK_SD_ReadBlock
 2532              	 .thumb
 2533              	 .thumb_func
 2535              	SDMMC_BLOCK_SD_ReadBlock:
 2536              	 
 2537              	 
 2538 0000 2DE9FF41 	 push {r0,r1,r2,r3,r4,r5,r6,r7,r8,lr}
 2539 0004 1F46     	 mov r7,r3
 2540 0006 037A     	 ldrb r3,[r0,#8]
 2541 0008 1646     	 mov r6,r2
 2542 000a DA07     	 lsls r2,r3,#31
 2543 000c 0446     	 mov r4,r0
 2544 000e 0D46     	 mov r5,r1
 2545 0010 50D4     	 bmi .L513
 2546 0012 1B07     	 lsls r3,r3,#28
 2547 0014 50D4     	 bmi .L514
 2548 0016 012F     	 cmp r7,#1
 2549 0018 0368     	 ldr r3,[r0]
 2550 001a 21D1     	 bne .L505
 2551 001c 93F85E30 	 ldrb r3,[r3,#94]
 2552 0020 002B     	 cmp r3,#0
 2553 0022 45D0     	 beq .L521
 2554 0024 3146     	 mov r1,r6
 2555 0026 3A46     	 mov r2,r7
 2556 0028 FFF7FEFF 	 bl SDMMC_BLOCK_SD_lCheckSectorBound
 2557 002c 0028     	 cmp r0,#0
 2558 002e 3DD1     	 bne .L512
 2559 0030 637A     	 ldrb r3,[r4,#9]
 2560 0032 2849     	 ldr r1,.L526
 2561 0034 1807     	 lsls r0,r3,#28
 2562 0036 2368     	 ldr r3,[r4]
 2563 0038 1A68     	 ldr r2,[r3]
 2564 003a 9389     	 ldrh r3,[r2,#12]
 2565 003c 9BB2     	 uxth r3,r3
 2566 003e 23F01003 	 bic r3,r3,#16
 2567 0042 43F01003 	 orr r3,r3,#16
 2568 0046 9381     	 strh r3,[r2,#12]
 2569 0048 58BF     	 it pl
 2570 004a 7602     	 lslpl r6,r6,#9
 2571 004c 0123     	 movs r3,#1
 2572 004e 0193     	 str r3,[sp,#4]
 2573 0050 0095     	 str r5,[sp]
 2574 0052 2046     	 mov r0,r4
 2575 0054 3246     	 mov r2,r6
 2576 0056 4FF40073 	 mov r3,#512
 2577 005a FFF7FEFF 	 bl SDMMC_BLOCK_SD_lSingleBlockTransfer
 2578 005e 24E0     	 b .L509
 2579              	.L505:
 2580 0060 4FF00108 	 mov r8,#1
 2581 0064 83F81980 	 strb r8,[r3,#25]
 2582 0068 0368     	 ldr r3,[r0]
 2583 006a 0396     	 str r6,[sp,#12]
 2584 006c 83F81880 	 strb r8,[r3,#24]
 2585 0070 0368     	 ldr r3,[r0]
 2586 0072 83F81A80 	 strb r8,[r3,#26]
 2587 0076 0368     	 ldr r3,[r0]
 2588 0078 93F85E30 	 ldrb r3,[r3,#94]
 2589 007c C3B1     	 cbz r3,.L521
 2590 007e 3146     	 mov r1,r6
 2591 0080 3A46     	 mov r2,r7
 2592 0082 FFF7FEFF 	 bl SDMMC_BLOCK_SD_lCheckSectorBound
 2593 0086 88B9     	 cbnz r0,.L512
 2594 0088 2368     	 ldr r3,[r4]
 2595 008a 1B68     	 ldr r3,[r3]
 2596 008c 9A89     	 ldrh r2,[r3,#12]
 2597 008e 92B2     	 uxth r2,r2
 2598 0090 22F01002 	 bic r2,r2,#16
 2599 0094 42F01002 	 orr r2,r2,#16
 2600 0098 9A81     	 strh r2,[r3,#12]
 2601 009a 2046     	 mov r0,r4
 2602 009c 8DE82001 	 stmia sp,{r5,r8}
 2603 00a0 03A9     	 add r1,sp,#12
 2604 00a2 3A46     	 mov r2,r7
 2605 00a4 0C4B     	 ldr r3,.L526+4
 2606 00a6 FFF7FEFF 	 bl SDMMC_BLOCK_SD_lMultiBlockTransfer
 2607              	.L509:
 2608 00aa 40B1     	 cbz r0,.L504
 2609              	.L512:
 2610 00ac 3328     	 cmp r0,#51
 2611 00ae 05D0     	 beq .L516
 2612              	.L521:
 2613 00b0 0120     	 movs r0,#1
 2614 00b2 04E0     	 b .L504
 2615              	.L513:
 2616 00b4 0320     	 movs r0,#3
 2617 00b6 02E0     	 b .L504
 2618              	.L514:
 2619 00b8 0520     	 movs r0,#5
 2620 00ba 00E0     	 b .L504
 2621              	.L516:
 2622 00bc 0420     	 movs r0,#4
 2623              	.L504:
 2624 00be 2368     	 ldr r3,[r4]
 2625 00c0 1B68     	 ldr r3,[r3]
 2626              	.L510:
 2627 00c2 5A6A     	 ldr r2,[r3,#36]
 2628 00c4 9107     	 lsls r1,r2,#30
 2629 00c6 FCD4     	 bmi .L510
 2630 00c8 5A6A     	 ldr r2,[r3,#36]
 2631 00ca D207     	 lsls r2,r2,#31
 2632 00cc F9D4     	 bmi .L510
 2633 00ce 04B0     	 add sp,sp,#16
 2634              	 
 2635 00d0 BDE8F081 	 pop {r4,r5,r6,r7,r8,pc}
 2636              	.L527:
 2637              	 .align 2
 2638              	.L526:
 2639 00d4 1A000000 	 .word .LANCHOR0+26
 2640 00d8 1C000000 	 .word .LANCHOR0+28
 2642              	 .section .text.SDMMC_BLOCK_SD_WriteBlock,"ax",%progbits
 2643              	 .align 1
 2644              	 .global SDMMC_BLOCK_SD_WriteBlock
 2645              	 .thumb
 2646              	 .thumb_func
 2648              	SDMMC_BLOCK_SD_WriteBlock:
 2649              	 
 2650              	 
 2651 0000 F0B5     	 push {r4,r5,r6,r7,lr}
 2652 0002 1F46     	 mov r7,r3
 2653 0004 037A     	 ldrb r3,[r0,#8]
 2654 0006 0E46     	 mov r6,r1
 2655 0008 D907     	 lsls r1,r3,#31
 2656 000a 85B0     	 sub sp,sp,#20
 2657 000c 0446     	 mov r4,r0
 2658 000e 1546     	 mov r5,r2
 2659 0010 53D4     	 bmi .L539
 2660 0012 1A07     	 lsls r2,r3,#28
 2661 0014 53D4     	 bmi .L540
 2662 0016 5B07     	 lsls r3,r3,#29
 2663 0018 53D4     	 bmi .L541
 2664 001a 012F     	 cmp r7,#1
 2665 001c 0268     	 ldr r2,[r0]
 2666 001e 22D1     	 bne .L530
 2667 0020 92F85E30 	 ldrb r3,[r2,#94]
 2668 0024 002B     	 cmp r3,#0
 2669 0026 46D0     	 beq .L549
 2670 0028 2946     	 mov r1,r5
 2671 002a 3A46     	 mov r2,r7
 2672 002c FFF7FEFF 	 bl SDMMC_BLOCK_SD_lCheckSectorBound
 2673 0030 0028     	 cmp r0,#0
 2674 0032 3CD1     	 bne .L535
 2675 0034 637A     	 ldrb r3,[r4,#9]
 2676 0036 2949     	 ldr r1,.L555
 2677 0038 1807     	 lsls r0,r3,#28
 2678 003a 2368     	 ldr r3,[r4]
 2679 003c 1A68     	 ldr r2,[r3]
 2680 003e 9389     	 ldrh r3,[r2,#12]
 2681 0040 23F01003 	 bic r3,r3,#16
 2682 0044 4FEA0343 	 lsl r3,r3,#16
 2683 0048 4FEA1343 	 lsr r3,r3,#16
 2684 004c 9381     	 strh r3,[r2,#12]
 2685 004e 58BF     	 it pl
 2686 0050 6D02     	 lslpl r5,r5,#9
 2687 0052 0223     	 movs r3,#2
 2688 0054 0193     	 str r3,[sp,#4]
 2689 0056 0096     	 str r6,[sp]
 2690 0058 2046     	 mov r0,r4
 2691 005a 2A46     	 mov r2,r5
 2692 005c 4FF40073 	 mov r3,#512
 2693 0060 FFF7FEFF 	 bl SDMMC_BLOCK_SD_lSingleBlockTransfer
 2694 0064 20E0     	 b .L534
 2695              	.L530:
 2696 0066 0123     	 movs r3,#1
 2697 0068 5376     	 strb r3,[r2,#25]
 2698 006a 0268     	 ldr r2,[r0]
 2699 006c 0395     	 str r5,[sp,#12]
 2700 006e 1376     	 strb r3,[r2,#24]
 2701 0070 0268     	 ldr r2,[r0]
 2702 0072 9376     	 strb r3,[r2,#26]
 2703 0074 0368     	 ldr r3,[r0]
 2704 0076 93F85E30 	 ldrb r3,[r3,#94]
 2705 007a E3B1     	 cbz r3,.L549
 2706 007c 2946     	 mov r1,r5
 2707 007e 3A46     	 mov r2,r7
 2708 0080 FFF7FEFF 	 bl SDMMC_BLOCK_SD_lCheckSectorBound
 2709 0084 98B9     	 cbnz r0,.L535
 2710 0086 2368     	 ldr r3,[r4]
 2711 0088 1B68     	 ldr r3,[r3]
 2712 008a 9A89     	 ldrh r2,[r3,#12]
 2713 008c 22F01002 	 bic r2,r2,#16
 2714 0090 1204     	 lsls r2,r2,#16
 2715 0092 120C     	 lsrs r2,r2,#16
 2716 0094 9A81     	 strh r2,[r3,#12]
 2717 0096 0223     	 movs r3,#2
 2718 0098 0193     	 str r3,[sp,#4]
 2719 009a 0096     	 str r6,[sp]
 2720 009c 2046     	 mov r0,r4
 2721 009e 03A9     	 add r1,sp,#12
 2722 00a0 3A46     	 mov r2,r7
 2723 00a2 0F4B     	 ldr r3,.L555+4
 2724 00a4 FFF7FEFF 	 bl SDMMC_BLOCK_SD_lMultiBlockTransfer
 2725              	.L534:
 2726 00a8 08B9     	 cbnz r0,.L535
 2727              	.L536:
 2728 00aa 0020     	 movs r0,#0
 2729 00ac 0CE0     	 b .L529
 2730              	.L535:
 2731 00ae 1E28     	 cmp r0,#30
 2732 00b0 FBD0     	 beq .L536
 2733 00b2 3328     	 cmp r0,#51
 2734 00b4 07D0     	 beq .L542
 2735              	.L549:
 2736 00b6 0120     	 movs r0,#1
 2737 00b8 06E0     	 b .L529
 2738              	.L539:
 2739 00ba 0320     	 movs r0,#3
 2740 00bc 04E0     	 b .L529
 2741              	.L540:
 2742 00be 0520     	 movs r0,#5
 2743 00c0 02E0     	 b .L529
 2744              	.L541:
 2745 00c2 0220     	 movs r0,#2
 2746 00c4 00E0     	 b .L529
 2747              	.L542:
 2748 00c6 0420     	 movs r0,#4
 2749              	.L529:
 2750 00c8 2368     	 ldr r3,[r4]
 2751 00ca 1B68     	 ldr r3,[r3]
 2752              	.L537:
 2753 00cc 5A6A     	 ldr r2,[r3,#36]
 2754 00ce 9107     	 lsls r1,r2,#30
 2755 00d0 FCD4     	 bmi .L537
 2756 00d2 5A6A     	 ldr r2,[r3,#36]
 2757 00d4 D207     	 lsls r2,r2,#31
 2758 00d6 F9D4     	 bmi .L537
 2759 00d8 05B0     	 add sp,sp,#20
 2760              	 
 2761 00da F0BD     	 pop {r4,r5,r6,r7,pc}
 2762              	.L556:
 2763              	 .align 2
 2764              	.L555:
 2765 00dc 1E000000 	 .word .LANCHOR0+30
 2766 00e0 20000000 	 .word .LANCHOR0+32
 2768              	 .global sdmmc_block_sd_hash_table
 2769              	 .global sdmmc_block_command
 2770              	 .section .rodata
 2771              	 .align 2
 2772              	 .set .LANCHOR1,.+0
 2773              	.LC0:
 2774 0000 00000000 	 .word 0
 2775 0004 20000000 	 .word 32
 2776 0008 40000000 	 .word 64
 2777 000c 80000000 	 .word 128
 2778 0010 00010000 	 .word 256
 2779 0014 00020000 	 .word 512
 2780 0018 00040000 	 .word 1024
 2781 001c 00080000 	 .word 2048
 2782 0020 00100000 	 .word 4096
 2783 0024 00200000 	 .word 8192
 2784              	 .section .rodata.sdmmc_block_sd_hash_table,"a",%progbits
 2787              	sdmmc_block_sd_hash_table:
 2788 0000 00       	 .byte 0
 2789 0001 FF       	 .byte -1
 2790 0002 01       	 .byte 1
 2791 0003 02       	 .byte 2
 2792 0004 03       	 .byte 3
 2793 0005 FF       	 .byte -1
 2794 0006 04       	 .byte 4
 2795 0007 05       	 .byte 5
 2796 0008 06       	 .byte 6
 2797 0009 07       	 .byte 7
 2798 000a 08       	 .byte 8
 2799 000b FF       	 .byte -1
 2800 000c 09       	 .byte 9
 2801 000d 0A       	 .byte 10
 2802 000e FF       	 .byte -1
 2803 000f 0B       	 .byte 11
 2804 0010 0C       	 .byte 12
 2805 0011 0D       	 .byte 13
 2806 0012 0E       	 .byte 14
 2807 0013 FF       	 .byte -1
 2808 0014 FF       	 .byte -1
 2809 0015 FF       	 .byte -1
 2810 0016 FF       	 .byte -1
 2811 0017 FF       	 .byte -1
 2812 0018 0F       	 .byte 15
 2813 0019 10       	 .byte 16
 2814 001a FF       	 .byte -1
 2815 001b 11       	 .byte 17
 2816 001c 12       	 .byte 18
 2817 001d 13       	 .byte 19
 2818 001e 14       	 .byte 20
 2819 001f FF       	 .byte -1
 2820 0020 15       	 .byte 21
 2821 0021 16       	 .byte 22
 2822 0022 FF       	 .byte -1
 2823 0023 FF       	 .byte -1
 2824 0024 FF       	 .byte -1
 2825 0025 FF       	 .byte -1
 2826 0026 17       	 .byte 23
 2827 0027 FF       	 .byte -1
 2828 0028 FF       	 .byte -1
 2829 0029 FF       	 .byte -1
 2830 002a 18       	 .byte 24
 2831 002b FF       	 .byte -1
 2832 002c FF       	 .byte -1
 2833 002d FF       	 .byte -1
 2834 002e FF       	 .byte -1
 2835 002f FF       	 .byte -1
 2836 0030 FF       	 .byte -1
 2837 0031 FF       	 .byte -1
 2838 0032 FF       	 .byte -1
 2839 0033 FF       	 .byte -1
 2840 0034 FF       	 .byte -1
 2841 0035 FF       	 .byte -1
 2842 0036 FF       	 .byte -1
 2843 0037 19       	 .byte 25
 2844 0038 1A       	 .byte 26
 2845 0039 FF       	 .byte -1
 2846 003a 1B       	 .byte 27
 2847 003b 1C       	 .byte 28
 2848 003c 1D       	 .byte 29
 2849 003d 1E       	 .byte 30
 2850 003e 1F       	 .byte 31
 2851 003f 20       	 .byte 32
 2852 0040 21       	 .byte 33
 2853              	 .section .rodata.sdmmc_block_command,"a",%progbits
 2854              	 .align 1
 2855              	 .set .LANCHOR0,.+0
 2858              	sdmmc_block_command:
 2859 0000 00       	 .byte 0
 2860 0001 00       	 .byte 0
 2861 0002 09       	 .byte 9
 2862 0003 02       	 .byte 2
 2863 0004 1A       	 .byte 26
 2864 0005 03       	 .byte 3
 2865 0006 00       	 .byte 0
 2866 0007 04       	 .byte 4
 2867 0008 3A       	 .byte 58
 2868 0009 06       	 .byte 6
 2869 000a 1B       	 .byte 27
 2870 000b 07       	 .byte 7
 2871 000c 1A       	 .byte 26
 2872 000d 08       	 .byte 8
 2873 000e 09       	 .byte 9
 2874 000f 09       	 .byte 9
 2875 0010 09       	 .byte 9
 2876 0011 0A       	 .byte 10
 2877 0012 1B       	 .byte 27
 2878 0013 0C       	 .byte 12
 2879 0014 1A       	 .byte 26
 2880 0015 0D       	 .byte 13
 2881 0016 00       	 .byte 0
 2882 0017 0F       	 .byte 15
 2883 0018 1A       	 .byte 26
 2884 0019 10       	 .byte 16
 2885 001a 3A       	 .byte 58
 2886 001b 11       	 .byte 17
 2887 001c 3A       	 .byte 58
 2888 001d 12       	 .byte 18
 2889 001e 3A       	 .byte 58
 2890 001f 18       	 .byte 24
 2891 0020 3A       	 .byte 58
 2892 0021 19       	 .byte 25
 2893 0022 3A       	 .byte 58
 2894 0023 1B       	 .byte 27
 2895 0024 1A       	 .byte 26
 2896 0025 1C       	 .byte 28
 2897 0026 1A       	 .byte 26
 2898 0027 1D       	 .byte 29
 2899 0028 3A       	 .byte 58
 2900 0029 1E       	 .byte 30
 2901 002a 1A       	 .byte 26
 2902 002b 20       	 .byte 32
 2903 002c 1A       	 .byte 26
 2904 002d 21       	 .byte 33
 2905 002e 1B       	 .byte 27
 2906 002f 26       	 .byte 38
 2907 0030 3A       	 .byte 58
 2908 0031 2A       	 .byte 42
 2909 0032 1A       	 .byte 26
 2910 0033 37       	 .byte 55
 2911 0034 3A       	 .byte 58
 2912 0035 38       	 .byte 56
 2913 0036 1A       	 .byte 26
 2914 0037 06       	 .byte 6
 2915 0038 3A       	 .byte 58
 2916 0039 0D       	 .byte 13
 2917 003a 3A       	 .byte 58
 2918 003b 16       	 .byte 22
 2919 003c 1A       	 .byte 26
 2920 003d 17       	 .byte 23
 2921 003e 02       	 .byte 2
 2922 003f 29       	 .byte 41
 2923 0040 1A       	 .byte 26
 2924 0041 2A       	 .byte 42
 2925 0042 3A       	 .byte 58
 2926 0043 33       	 .byte 51
 2927 0044 12       	 .byte 18
 2928 0045 01       	 .byte 1
 2929 0046 1B       	 .byte 27
 2930 0047 05       	 .byte 5
 2931 0048 1B       	 .byte 27
 2932 0049 06       	 .byte 6
 2933 004a 3A       	 .byte 58
 2934 004b 08       	 .byte 8
 2935 004c 1A       	 .byte 26
 2936 004d 23       	 .byte 35
 2937 004e 1A       	 .byte 26
 2938 004f 24       	 .byte 36
 2939              	 .ident "GCC: (GNU Tools for ARM Embedded Processors) 4.9.3 20141119 (release) [ARM/embedded-4_9-branch revision 218278]"
DEFINED SYMBOLS
                            *ABS*:00000000 sdmmc_block_private_sd.c
    {standard input}:17     .text.SDMMC_BLOCK_SD_TimerCallback:00000000 $t
    {standard input}:21     .text.SDMMC_BLOCK_SD_TimerCallback:00000000 SDMMC_BLOCK_SD_TimerCallback
    {standard input}:33     .text.SDMMC_BLOCK_SD_lStartTimer:00000000 $t
    {standard input}:37     .text.SDMMC_BLOCK_SD_lStartTimer:00000000 SDMMC_BLOCK_SD_lStartTimer
    {standard input}:74     .text.SDMMC_BLOCK_SD_lStartTimer:00000044 $d
    {standard input}:77     .text.SDMMC_BLOCK_SD_lCardCleanUp:00000000 $t
    {standard input}:81     .text.SDMMC_BLOCK_SD_lCardCleanUp:00000000 SDMMC_BLOCK_SD_lCardCleanUp
    {standard input}:115    .text.SDMMC_BLOCK_SD_lStopTimer.isra.2:00000000 $t
    {standard input}:119    .text.SDMMC_BLOCK_SD_lStopTimer.isra.2:00000000 SDMMC_BLOCK_SD_lStopTimer.isra.2
    {standard input}:139    .text.SDMMC_BLOCK_SD_lReset:00000000 $t
    {standard input}:143    .text.SDMMC_BLOCK_SD_lReset:00000000 SDMMC_BLOCK_SD_lReset
    {standard input}:182    .text.SDMMC_BLOCK_SD_lReset:00000048 $d
    {standard input}:185    .text.SDMMC_BLOCK_SD_lTransferDelay.constprop.11:00000000 $t
    {standard input}:189    .text.SDMMC_BLOCK_SD_lTransferDelay.constprop.11:00000000 SDMMC_BLOCK_SD_lTransferDelay.constprop.11
    {standard input}:234    .text.SDMMC_BLOCK_SD_lTransferDelay.constprop.11:00000050 $d
    {standard input}:237    .text.SDMMC_BLOCK_SD_lCheckErrorInResponse:00000000 $t
    {standard input}:241    .text.SDMMC_BLOCK_SD_lCheckErrorInResponse:00000000 SDMMC_BLOCK_SD_lCheckErrorInResponse
    {standard input}:286    .text.SDMMC_BLOCK_SD_lErrorInterruptRecovery:00000000 $t
    {standard input}:290    .text.SDMMC_BLOCK_SD_lErrorInterruptRecovery:00000000 SDMMC_BLOCK_SD_lErrorInterruptRecovery
    {standard input}:419    .text.SDMMC_BLOCK_SD_lErrorInterruptRecovery:00000108 $d
    {standard input}:426    .text.SDMMC_BLOCK_SD_lSendCommand:00000000 $t
    {standard input}:430    .text.SDMMC_BLOCK_SD_lSendCommand:00000000 SDMMC_BLOCK_SD_lSendCommand
    {standard input}:567    .text.SDMMC_BLOCK_SD_lSendCommand:00000130 $d
    {standard input}:659    .text.SDMMC_BLOCK_SD_lSendCommand:000001dc $d
    {standard input}:663    .text.SDMMC_BLOCK_SD_lSwitchToTransferState:00000000 $t
    {standard input}:667    .text.SDMMC_BLOCK_SD_lSwitchToTransferState:00000000 SDMMC_BLOCK_SD_lSwitchToTransferState
    {standard input}:702    .text.SDMMC_BLOCK_SD_lSwitchToTransferState:00000040 $d
    {standard input}:706    .text.SDMMC_BLOCK_SD_lLocalErase:00000000 $t
    {standard input}:710    .text.SDMMC_BLOCK_SD_lLocalErase:00000000 SDMMC_BLOCK_SD_lLocalErase
    {standard input}:784    .text.SDMMC_BLOCK_SD_lLocalErase:00000094 $d
    {standard input}:790    .text.SDMMC_BLOCK_SD_lDataTransfer:00000000 $t
    {standard input}:794    .text.SDMMC_BLOCK_SD_lDataTransfer:00000000 SDMMC_BLOCK_SD_lDataTransfer
    {standard input}:859    .text.SDMMC_BLOCK_SD_lDataTransfer:00000080 $d
    {standard input}:862    .text.SDMMC_BLOCK_SD_lMultiBlockTransfer:00000000 $t
    {standard input}:866    .text.SDMMC_BLOCK_SD_lMultiBlockTransfer:00000000 SDMMC_BLOCK_SD_lMultiBlockTransfer
    {standard input}:982    .text.SDMMC_BLOCK_SD_lMultiBlockTransfer:000000f8 $d
    {standard input}:985    .text.SDMMC_BLOCK_SD_lSingleBlockTransfer:00000000 $t
    {standard input}:989    .text.SDMMC_BLOCK_SD_lSingleBlockTransfer:00000000 SDMMC_BLOCK_SD_lSingleBlockTransfer
    {standard input}:1065   .text.SDMMC_BLOCK_SD_lSingleBlockTransfer:0000009c $d
    {standard input}:1068   .text.SDMMC_BLOCK_SD_NormalInterruptHandler:00000000 $t
    {standard input}:1073   .text.SDMMC_BLOCK_SD_NormalInterruptHandler:00000000 SDMMC_BLOCK_SD_NormalInterruptHandler
    {standard input}:1141   .text.SDMMC_BLOCK_SD_ErrorInterruptHandler:00000000 $t
    {standard input}:1146   .text.SDMMC_BLOCK_SD_ErrorInterruptHandler:00000000 SDMMC_BLOCK_SD_ErrorInterruptHandler
    {standard input}:1286   .text.SDMMC_BLOCK_SD_GetLockStatus:00000000 $t
    {standard input}:1291   .text.SDMMC_BLOCK_SD_GetLockStatus:00000000 SDMMC_BLOCK_SD_GetLockStatus
    {standard input}:1328   .text.SDMMC_BLOCK_SD_GetLockStatus:00000044 $d
    {standard input}:1331   .text.SDMMC_BLOCK_SD_LockUnlockCard:00000000 $t
    {standard input}:1336   .text.SDMMC_BLOCK_SD_LockUnlockCard:00000000 SDMMC_BLOCK_SD_LockUnlockCard
    {standard input}:1426   .text.SDMMC_BLOCK_SD_LockUnlockCard:000000b8 $d
    {standard input}:1430   .text.SDMMC_BLOCK_SD_GetState:00000000 $t
    {standard input}:1435   .text.SDMMC_BLOCK_SD_GetState:00000000 SDMMC_BLOCK_SD_GetState
    {standard input}:1444   .text.SDMMC_BLOCK_SD_GetCardType:00000000 $t
    {standard input}:1449   .text.SDMMC_BLOCK_SD_GetCardType:00000000 SDMMC_BLOCK_SD_GetCardType
    {standard input}:1459   .text.SDMMC_BLOCK_SD_GetCid:00000000 $t
    {standard input}:1464   .text.SDMMC_BLOCK_SD_GetCid:00000000 SDMMC_BLOCK_SD_GetCid
    {standard input}:1510   .text.SDMMC_BLOCK_SD_GetOcr:00000000 $t
    {standard input}:1515   .text.SDMMC_BLOCK_SD_GetOcr:00000000 SDMMC_BLOCK_SD_GetOcr
    {standard input}:1526   .text.SDMMC_BLOCK_SD_GetCsd:00000000 $t
    {standard input}:1531   .text.SDMMC_BLOCK_SD_GetCsd:00000000 SDMMC_BLOCK_SD_GetCsd
    {standard input}:1552   .text.SDMMC_BLOCK_SD_GetSectorCount:00000000 $t
    {standard input}:1557   .text.SDMMC_BLOCK_SD_GetSectorCount:00000000 SDMMC_BLOCK_SD_GetSectorCount
    {standard input}:1603   .text.SDMMC_BLOCK_SD_lCheckSectorBound:00000000 $t
    {standard input}:1607   .text.SDMMC_BLOCK_SD_lCheckSectorBound:00000000 SDMMC_BLOCK_SD_lCheckSectorBound
    {standard input}:1629   .text.SDMMC_BLOCK_SD_GetSectorSize:00000000 $t
    {standard input}:1634   .text.SDMMC_BLOCK_SD_GetSectorSize:00000000 SDMMC_BLOCK_SD_GetSectorSize
    {standard input}:1644   .text.SDMMC_BLOCK_SD_GetBlockSize:00000000 $t
    {standard input}:1649   .text.SDMMC_BLOCK_SD_GetBlockSize:00000000 SDMMC_BLOCK_SD_GetBlockSize
    {standard input}:1677   .text.SDMMC_BLOCK_SD_GetSdStatus:00000000 $t
    {standard input}:1682   .text.SDMMC_BLOCK_SD_GetSdStatus:00000000 SDMMC_BLOCK_SD_GetSdStatus
    {standard input}:1728   .text.SDMMC_BLOCK_SD_GetSdStatus:00000058 $d
    {standard input}:1732   .text.SDMMC_BLOCK_SD_CardIdentificationProcess:00000000 $t
    {standard input}:1737   .text.SDMMC_BLOCK_SD_CardIdentificationProcess:00000000 SDMMC_BLOCK_SD_CardIdentificationProcess
    {standard input}:1950   .text.SDMMC_BLOCK_SD_CardIdentificationProcess:000001cc $d
    {standard input}:1958   .text.SDMMC_BLOCK_SD_CardIdentificationProcess:000001e8 $t
    {standard input}:2212   .text.SDMMC_BLOCK_SD_CardIdentificationProcess:00000434 $d
    {standard input}:2223   .text.SDMMC_BLOCK_SD_EraseBlock:00000000 $t
    {standard input}:2228   .text.SDMMC_BLOCK_SD_EraseBlock:00000000 SDMMC_BLOCK_SD_EraseBlock
    {standard input}:2328   .text.SDMMC_BLOCK_SD_EraseBlock:000000dc $d
    {standard input}:2331   .text.SDMMC_BLOCK_SD_EjectCard:00000000 $t
    {standard input}:2336   .text.SDMMC_BLOCK_SD_EjectCard:00000000 SDMMC_BLOCK_SD_EjectCard
    {standard input}:2368   .text.SDMMC_BLOCK_SD_EjectCard:0000003c $d
    {standard input}:2371   .text.SDMMC_BLOCK_SD_Start:00000000 $t
    {standard input}:2376   .text.SDMMC_BLOCK_SD_Start:00000000 SDMMC_BLOCK_SD_Start
    {standard input}:2493   .text.SDMMC_BLOCK_SD_Start:000000fc $d
    {standard input}:2498   .text.SDMMC_BLOCK_SD_Init:00000000 $t
    {standard input}:2503   .text.SDMMC_BLOCK_SD_Init:00000000 SDMMC_BLOCK_SD_Init
    {standard input}:2530   .text.SDMMC_BLOCK_SD_ReadBlock:00000000 $t
    {standard input}:2535   .text.SDMMC_BLOCK_SD_ReadBlock:00000000 SDMMC_BLOCK_SD_ReadBlock
    {standard input}:2639   .text.SDMMC_BLOCK_SD_ReadBlock:000000d4 $d
    {standard input}:2643   .text.SDMMC_BLOCK_SD_WriteBlock:00000000 $t
    {standard input}:2648   .text.SDMMC_BLOCK_SD_WriteBlock:00000000 SDMMC_BLOCK_SD_WriteBlock
    {standard input}:2765   .text.SDMMC_BLOCK_SD_WriteBlock:000000dc $d
    {standard input}:2787   .rodata.sdmmc_block_sd_hash_table:00000000 sdmmc_block_sd_hash_table
    {standard input}:2858   .rodata.sdmmc_block_command:00000000 sdmmc_block_command
    {standard input}:2771   .rodata:00000000 $d
    {standard input}:2854   .rodata.sdmmc_block_command:00000000 $d
    {standard input}:574    .text.SDMMC_BLOCK_SD_lSendCommand:00000137 $d
    {standard input}:574    .text.SDMMC_BLOCK_SD_lSendCommand:00000138 $t

UNDEFINED SYMBOLS
SYSTIMER_CreateTimer
SYSTIMER_StartTimer
SYSTIMER_DeleteTimer
memset
SYSTIMER_StopTimer
XMC_SDMMC_DisableEvent
XMC_SDMMC_ClearEvent
XMC_SDMMC_SendCommand
XMC_SDMMC_GetEvent
XMC_SDMMC_EnableEvent
XMC_SDMMC_SetDataTransferMode
XMC_SDMMC_Enable
SYSTIMER_Init
XMC_SCU_CLOCK_EnableClock
